1                                         High Level Assembler Option Summary                   (PTF UK67595)   Page    1            
-                                                                                            HLASM R6.0  2012/03/05 13.03            
0  No Overriding ASMAOPT Parameters                                                                                                  
   Overriding Parameters-  OBJECT,LIST(MAX),TERM,ASA,ADATA,ADATA,EXIT(INX(FLOWASM),LBX(FLOWASM),PRX(FLOWASM))                        
   Process Statements-     ALIGN,NOCOMPAT,DXREF,FLAG(ALIGN,CONT,RECORD)                                                              
                           NOFOLD,NOINFO,PC(ON,DATA,GEN,MCALL),RENT,                                                                 
                           RA2,NORLD,MXREF(FULL),RXREF,USING(MAP,WARN(13))                                                           
                           TYPECHECK(NOMAGNITUDE,REGISTER),XREF(FULL)                                                                
                                                                                                                                     
                                                                                                                                     
   Options for this Assembly                                                                                                         
03   ADATA                                                                                                                           
 5   ALIGN                                                                                                                           
 3   ASA                                                                                                                             
     BATCH                                                                                                                           
     CODEPAGE(047C)                                                                                                                  
 5 NOCOMPAT                                                                                                                          
   NODBCS                                                                                                                            
   NODECK                                                                                                                            
 5   DXREF                                                                                                                           
     ESD                                                                                                                             
     EXIT                                                                                                                            
 3       INEXIT(FLOWASM)                                                                                                             
 3       LIBEXIT(FLOWASM)                                                                                                            
 3       PRTEXIT(FLOWASM)                                                                                                            
       NOOBJEXIT                                                                                                                     
       NOADEXIT                                                                                                                      
       NOTRMEXIT                                                                                                                     
 5   FLAG(0,ALIGN,CONT,EXLITW,NOIMPLEN,NOPAGE0,PUSH,RECORD,NOSUBSTR,USING0)                                                          
 5 NOFOLD                                                                                                                            
   NOGOFF                                                                                                                            
 5 NOINFO                                                                                                                            
     LANGUAGE(EN)                                                                                                                    
   NOLIBMAC                                                                                                                          
     LINECOUNT(60)                                                                                                                   
 3   LIST(MAX)                                                                                                                       
     MACHINE(,NOLIST)                                                                                                                
 5   MXREF(FULL)                                                                                                                     
 3   OBJECT                                                                                                                          
     OPTABLE(UNI,NOLIST)                                                                                                             
 5   PCONTROL(DATA,GEN,MCALL,ON)                                                                                                     
   NOPESTOP                                                                                                                          
   NOPROFILE                                                                                                                         
 5   RA2                                                                                                                             
 5   RENT                                                                                                                            
 5 NORLD                                                                                                                             
 5   RXREF                                                                                                                           
     SECTALGN(8)                                                                                                                     
     SIZE(MAX)                                                                                                                       
   NOSUPRWARN                                                                                                                        
     SYSPARM()                                                                                                                       
 3   TERM(WIDE)                                                                                                                      
   NOTEST                                                                                                                            
     THREAD                                                                                                                          
   NOTRANSLATE                                                                                                                       
 5   TYPECHECK(NOMAGNITUDE,REGISTER)                                                                                                 
 5   USING(NOLIMIT,MAP,WARN(13))                                                                                                     
1                                         High Level Assembler Option Summary                   (PTF UK67595)   Page    2            
-                                                                                            HLASM R6.0  2012/03/05 13.03            
0  NOWORKFILE                                                                                                                        
 5   XREF(FULL)                                                                                                                      
                                                                                                                                     
   Standard   DD Names- SYSLIN   SYSLIB   SYSIN    SYSPRINT SYSPUNCH SYSUT1   SYSTERM  SYSADATA ASMAOPT                              
   Overriding DD Names- SYS00019 SYS00004 SYS00017 SYS00018                   SYS00016 SYS00020                                      
1                                              External Symbol Dictionary                                       Page    3            
-Symbol   Type   Id     Address  Length   Owner Id Flags Alias-of                            HLASM R6.0  2012/03/05 13.03            
0FTEE      SD 00000001 00000000 00000594             07                                                                              
 CEEINT    ER 00000002                                                                                                               
 CEEMAIN   SD 00000003 00000598 00000008             07                                                                              
 CEE3INF   ER 00000004                                                                                                               
 CEE3DMP   ER 00000005                                                                                                               
 CEETREC   ER 00000006                                                                                                               
 CEESTART  ER 00000007                                                                                                               
 CEEBETBL  ER 00000008                                                                                                               
1                                                                                                               Page    4            
   Active Usings: None                                                                                                               
0  Loc    Object Code      Addr1    Addr2    Stmt  Source Statement                          HLASM R6.0  2012/03/05 13.03            
0                                               1 *PROCESS ALIGN,NOCOMPAT,DXREF,FLAG(ALIGN,CONT,RECORD)                              
                                                2 *PROCESS NOFOLD,NOINFO,PC(ON,DATA,GEN,MCALL),RENT,                                 
                                                3 *PROCESS RA2,NORLD,MXREF(FULL),RXREF,USING(MAP,WARN(13))                           
                                                4 *PROCESS TYPECHECK(NOMAGNITUDE,REGISTER),XREF(FULL)                                
                                                5 *WARNING - THIS PROGRAM REQUIRES THE HIGH-LEVEL ASSEMBLER                          
                                                6 *          AS WELL AS LE/370                                                       
                                                7 *          THIS PROGRAM IS RE-ENTRANT.                                             
                                                8          PUSH  PRINT                                                               
                                                9          LCLC  &NL,&TAB                                                            
                                               10 &NL      SETC  BYTE(21)                                                            
                                               11 &TAB     SETC  BYTE(05)                                                            
                                               12          PRINT NOGEN                                                               
                                               13          IEABRCX DEFINE                                                            
                                               14+         PUSH  PRINT,NOPRINT                                            01-IEABRCX 
                                               15+         PRINT OFF,NOPRINT                                              01-IEABRCX 
                                               16+***********************************************************************            
                                               17+*                                                                     *            
                                               18+*01* MACRO-NAME = IEABRC                                              *            
                                               19+*                                                                     *            
                                               20+*01* DESCRIPTIVE-NAME = RELATIVE BRANCH MACROS                        *            
                                               21+*                                                                     *            
                                               22+*01*  COPYRIGHT =                                                     *            
                                               23+*       LICENSED MATERIALS - PROPERTY OF IBM                          *            
                                               24+*       5694-A01 COPYRIGHT IBM CORP. 2000, 2008                       *            
                                               25+*                                                                     *            
                                               26+*01* STATUS = HBB7750                                                 *            
                                               27+*                                                                     *            
                                               28+*01* EXTERNAL CLASSIFICATION: PI                                      *            
                                               29+*01* END OF EXTERNAL CLASSIFICATION:                                  *            
                                               30+*                                                                     *            
                                               31+*01* FUNCTION = Allow use of OS/390 macros within an assembler        *            
                                               32+*       routine that uses relative branching                          *            
                                               33+*       It defines macros to intercept and change various             *            
                                               34+*       base-displacement branch instructions to their                *            
                                               35+*       relative branch equivalents.                                  *            
                                               36+*                                                                     *            
                                               37+*       Specify SYSSTATE ARCHLVL=x where x is a supported value       *            
                                               38+*       other than 0, when using IEABRC. This lets macro expansions   *            
                                               39+*       take advantage of the knowledge of the availability of        *            
                                               40+*       relative branching.                                           *            
                                               41+*                                                                     *            
                                               42+*02* METHOD OF INVOCATION                                             *            
                                               43+*       COPY  IEABRC                                                  *            
                                               44+*       placed prior to any base/displacement branch that needs       *            
                                               45+*       to be converted to a relative branch.                         *            
                                               46+*                                                                     *            
                                               47+*       This will automatically "enable" the conversion.              *            
                                               48+*                                                                     *            
                                               49+*       It is now recommended that instead of this approach you       *            
                                               50+*       invoke IEABRCX DEFINE as that will allow you to take          *            
                                               51+*       better advantage of the IEABRCX DISABLE | ENABLE functions.   *            
                                               52+*                                                                     *            
                                               53+*02* NOTES:                                                           *            
                                               54+*       Branch condition instructions are converted to                *            
                                               55+*       relative branch condition instructions except when:           *            
1                                                                                                               Page    5            
   Active Usings: None                                                                                                               
0  Loc    Object Code      Addr1    Addr2    Stmt  Source Statement                          HLASM R6.0  2012/03/05 13.03            
0                                              56+*       - The branch target ends with ")" and                         *            
                                               57+*         a "(" in 2nd or subsequent characters of the branch         *            
                                               58+*         target is not preceded by "+" or "-".                       *            
                                               59+*       For example,                                                  *            
                                               60+*         B   X(15)          -- remains base/displacement branch      *            
                                               61+*         B   X+(15)         -- converted to relative branch          *            
                                               62+*         B   X+Y            -- converted to relative branch          *            
                                               63+*                                                                     *            
                                               64+*01* MODULE-TYPE = MACRO                                              *            
                                               65+*                                                                     *            
                                               66+*02* PROCESSOR = HLASM                                                *            
                                               67+*                                                                     *            
                                               68+*01* MACROS = NONE                                                    *            
                                               69+*                                                                     *            
                                               70+*01* PARAMETERS:                                                      *            
                                               71+*        Same as used within assembler instructions                   *            
                                               72+*                                                                     *            
                                               73+*01* CHANGE-ACTIVITY =                                                *            
                                               74+*                                                                     *            
                                               75+*   $L0=64BITSUP HBB7703  980106  PD00XB: 64-BIT ROUTINES             *            
                                               76+*   $L1=ME10226  HBB7750  070501  PD00XB: Enable/Disable              *            
                                               77+*                                                                     *            
                                               78+*01* MNOTES = NONE                                                    *            
                                               79+*                                                                     *            
                                               80+*01* COMPONENT = SC1C5 (SUPERVISOR CONTROL)                           *            
                                               81+*                                                                     *            
                                               82+*01*  DISTRIBUTION-LIBRARY = AMACLIB                                  *            
                                               83+*                                                                     *            
                                               84+***********************************************************************            
                                               85+B_       OPSYN B                                                        01-IEABRCX 
                                               86+BAL_     OPSYN BAL                                                      01-IEABRCX 
                                               87+BAS_     OPSYN BAS                                                      01-IEABRCX 
                                               88+BC_      OPSYN BC                                                       01-IEABRCX 
                                               89+BCT_     OPSYN BCT                                                      01-IEABRCX 
                                               90+BE_      OPSYN BE                                                       01-IEABRCX 
                                               91+BH_      OPSYN BH                                                       01-IEABRCX 
                                               92+BL_      OPSYN BL                                                       01-IEABRCX 
                                               93+BM_      OPSYN BM                                                       01-IEABRCX 
                                               94+BNE_     OPSYN BNE                                                      01-IEABRCX 
                                               95+BNH_     OPSYN BNH                                                      01-IEABRCX 
                                               96+BNL_     OPSYN BNL                                                      01-IEABRCX 
                                               97+BNM_     OPSYN BNM                                                      01-IEABRCX 
                                               98+BNO_     OPSYN BNO                                                      01-IEABRCX 
                                               99+BNP_     OPSYN BNP                                                      01-IEABRCX 
                                              100+BNZ_     OPSYN BNZ                                                      01-IEABRCX 
                                              101+BO_      OPSYN BO                                                       01-IEABRCX 
                                              102+BP_      OPSYN BP                                                       01-IEABRCX 
                                              103+BXH_     OPSYN BXH                                                      01-IEABRCX 
                                              104+BXLE_    OPSYN BXLE                                                     01-IEABRCX 
                                              105+BZ_      OPSYN BZ                                                       01-IEABRCX 
                                              106+*                                                                                  
                                              107          MACRO                                                          02350000   
                                              108 &NAME    B     &WHERE                                                   02400000   
                                              109 &NAME    BC    15,&WHERE                                                02450000   
                                              110          MEND                                                           02500000   
1                                                                                                               Page    6            
   Active Usings: None                                                                                                               
0  Loc    Object Code      Addr1    Addr2    Stmt  Source Statement                          HLASM R6.0  2012/03/05 13.03            
0                                             111          MACRO                                                          02550000   
                                              112 &NAME    BE    &WHERE                                                   02600000   
                                              113 &NAME    BC    8,&WHERE                                                 02650000   
                                              114          MEND                                                           02700000   
                                              115          MACRO                                                          02750000   
                                              116 &NAME    BL    &WHERE                                                   02800000   
                                              117 &NAME    BC    4,&WHERE                                                 02850000   
                                              118          MEND                                                           02900000   
                                              119          MACRO                                                          02950000   
                                              120 &NAME    BH    &WHERE                                                   03000000   
                                              121 &NAME    BC    2,&WHERE                                                 03050000   
                                              122          MEND                                                           03100000   
                                              123          MACRO                                                          03150000   
                                              124 &NAME    BM    &WHERE                                                   03200000   
                                              125 &NAME    BC    4,&WHERE                                                 03250000   
                                              126          MEND                                                           03300000   
                                              127          MACRO                                                          03350000   
                                              128 &NAME    BNE   &WHERE                                                   03400000   
                                              129 &NAME    BC    7,&WHERE                                                 03450000   
                                              130          MEND                                                           03500000   
                                              131          MACRO                                                          03550000   
                                              132 &NAME    BNH   &WHERE                                                   03600000   
                                              133 &NAME    BC    13,&WHERE                                                03650000   
                                              134          MEND                                                           03700000   
                                              135          MACRO                                                          03750000   
                                              136 &NAME    BNL   &WHERE                                                   03800000   
                                              137 &NAME    BC    11,&WHERE                                                03850000   
                                              138          MEND                                                           03900000   
                                              139          MACRO                                                          03950000   
                                              140 &NAME    BNM   &WHERE                                                   04000000   
                                              141 &NAME    BC    11,&WHERE                                                04050000   
                                              142          MEND                                                           04100000   
                                              143          MACRO                                                          04150000   
                                              144 &NAME    BNO   &WHERE                                                   04200000   
                                              145 &NAME    BC    14,&WHERE                                                04250000   
                                              146          MEND                                                           04300000   
                                              147          MACRO                                                          04350000   
                                              148 &NAME    BNP   &WHERE                                                   04400000   
                                              149 &NAME    BC    13,&WHERE                                                04450000   
                                              150          MEND                                                           04500000   
                                              151          MACRO                                                          04550000   
                                              152 &NAME    BNZ   &WHERE                                                   04600000   
                                              153 &NAME    BC    7,&WHERE                                                 04650000   
                                              154          MEND                                                           04700000   
                                              155          MACRO                                                          04750000   
                                              156 &NAME    BO    &WHERE                                                   04800000   
                                              157 &NAME    BC    1,&WHERE                                                 04850000   
                                              158          MEND                                                           04900000   
                                              159          MACRO                                                          04950000   
                                              160 &NAME    BP    &WHERE                                                   05000000   
                                              161 &NAME    BC    2,&WHERE                                                 05050000   
                                              162          MEND                                                           05100000   
                                              163          MACRO                                                          05150000   
                                              164 &NAME    BZ    &WHERE                                                   05200000   
                                              165 &NAME    BC    8,&WHERE                                                 05250000   
1                                                                                                               Page    7            
   Active Usings: None                                                                                                               
0  Loc    Object Code      Addr1    Addr2    Stmt  Source Statement                          HLASM R6.0  2012/03/05 13.03            
0                                             166          MEND                                                           05300000   
                                              167          MACRO                                                          05350000   
                                              168 &NAME    BC    &COND,&WHERE                                             05400000   
                                              169          LCLA  &I,&X                                                    05450000   
                                              170          LCLC  &C                                                       05500000   
                                              171 &I       SETA  2                                                        05550000   
                                              172 &X       SETA  K'&WHERE                                                 05600000   
                                              173 &C       SETC  '&WHERE'(&X,1)                                           05650000   
                                              174          AIF   ('&C.' NE ')').NEW                                       05700000   
                                              175 .LOOP    ANOP                                                           05750000   
                                              176          AIF   (&I GE &X).NEW                                           05800000   
                                              177          AIF   ('&WHERE'(&I,1) NE '(').NEXT                             05850000   
                                              178          AIF   ('&WHERE'(&I-1,1) EQ '+').NEXT                           05900000   
                                              179          AIF   ('&WHERE'(&I-1,1) NE '-').OLD                            05950000   
                                              180 .NEXT    ANOP                                                           06000000   
                                              181 &I       SETA  &I+1                                                     06050000   
                                              182          AGO   .LOOP                                                    06100000   
                                              183 .NEW     ANOP                                                           06150000   
                                              184 &C       SETC  '  (&SYSMAC(1))'                                         06166600   
                                              185          AIF   ('&C' NE '  (OPEN CODE)').OC                             06183200   
                                              186 &C       SETC  ' '                                                      06199800   
                                              187 .OC      ANOP                                                           06216400   
                                              188 &NAME    BRC   &COND,&WHERE&C                                           06233000   
                                              189          MEXIT                                                          06250000   
                                              190 .OLD     ANOP                                                           06300000   
                                              191 &NAME    BC_   &COND,&WHERE                                             06350000   
                                              192          MEND                                                           06400000   
                                              193+*                                                                                  
                                              194          MACRO                                                          06500000   
                                              195 &NAME    BCT   &REG,&WHERE                                              06550000   
                                              196          LCLA  &I,&X                                                    06600000   
                                              197          LCLC  &C                                                       06650000   
                                              198 &I       SETA  2                                                        06700000   
                                              199 &X       SETA  K'&WHERE                                                 06750000   
                                              200 &C       SETC  '&WHERE'(&X,1)                                           06800000   
                                              201          AIF   ('&C.' NE ')').NEW                                       06850000   
                                              202 .LOOP    ANOP                                                           06900000   
                                              203          AIF   (&I GE &X).NEW                                           06950000   
                                              204          AIF   ('&WHERE'(&I,1) NE '(').NEXT                             07000000   
                                              205          AIF   ('&WHERE'(&I-1,1) EQ '+').NEXT                           07050000   
                                              206          AIF   ('&WHERE'(&I-1,1) NE '-').OLD                            07100000   
                                              207 .NEXT    ANOP                                                           07150000   
                                              208 &I       SETA  &I+1                                                     07200000   
                                              209          AGO   .LOOP                                                    07250000   
                                              210 .NEW     ANOP                                                           07300000   
                                              211 &C       SETC  '  (&SYSMAC(1))'                                         07316600   
                                              212          AIF   ('&C' NE '  (OPEN CODE)').OC                             07333200   
                                              213 &C       SETC  ' '                                                      07349800   
                                              214 .OC      ANOP                                                           07366400   
                                              215 &NAME    BRCT  &REG,&WHERE&C                                            07383000   
                                              216          MEXIT                                                          07400000   
                                              217 .OLD     ANOP                                                           07450000   
                                              218 &NAME    BCT_  &REG,&WHERE                                              07500000   
                                              219          MEND                                                           07550000   
                                              220+*                                                                                  
1                                                                                                               Page    8            
   Active Usings: None                                                                                                               
0  Loc    Object Code      Addr1    Addr2    Stmt  Source Statement                          HLASM R6.0  2012/03/05 13.03            
0                                             221          MACRO                                                          07650000   
                                              222 &NAME    BXLE  &REG,&REG2,&WHERE                                        07700000   
                                              223          LCLA  &I,&X                                                    07750000   
                                              224          LCLC  &C                                                       07800000   
                                              225 &I       SETA  2                                                        07850000   
                                              226 &X       SETA  K'&WHERE                                                 07900000   
                                              227 &C       SETC  '&WHERE'(&X,1)                                           07950000   
                                              228          AIF   ('&C.' NE ')').NEW                                       08000000   
                                              229 .LOOP    ANOP                                                           08050000   
                                              230          AIF   (&I GE &X).NEW                                           08100000   
                                              231          AIF   ('&WHERE'(&I,1) NE '(').NEXT                             08150000   
                                              232          AIF   ('&WHERE'(&I-1,1) EQ '+').NEXT                           08200000   
                                              233          AIF   ('&WHERE'(&I-1,1) NE '-').OLD                            08250000   
                                              234 .NEXT    ANOP                                                           08300000   
                                              235 &I       SETA  &I+1                                                     08350000   
                                              236          AGO   .LOOP                                                    08400000   
                                              237 .NEW     ANOP                                                           08450000   
                                              238 &C       SETC  '  (&SYSMAC(1))'                                         08466600   
                                              239          AIF   ('&C' NE '  (OPEN CODE)').OC                             08483200   
                                              240 &C       SETC  ' '                                                      08499800   
                                              241 .OC      ANOP                                                           08516400   
                                              242 &NAME    BRXLE &REG,&REG2,&WHERE&C                                      08533000   
                                              243          MEXIT                                                          08550000   
                                              244 .OLD     ANOP                                                           08600000   
                                              245 &NAME    BXLE_ &REG,&REG2,&WHERE                                        08650000   
                                              246          MEND                                                           08700000   
                                              247+*                                                                                  
                                              248          MACRO                                                          08800000   
                                              249 &NAME    BXH   &REG,&REG2,&WHERE                                        08850000   
                                              250          LCLA  &I,&X                                                    08900000   
                                              251          LCLC  &C                                                       08950000   
                                              252 &I       SETA  2                                                        09000000   
                                              253 &X       SETA  K'&WHERE                                                 09050000   
                                              254 &C       SETC  '&WHERE'(&X,1)                                           09100000   
                                              255          AIF   ('&C.' NE ')').NEW                                       09150000   
                                              256 .LOOP    ANOP                                                           09200000   
                                              257          AIF   (&I GE &X).NEW                                           09250000   
                                              258          AIF   ('&WHERE'(&I,1) NE '(').NEXT                             09300000   
                                              259          AIF   ('&WHERE'(&I-1,1) EQ '+').NEXT                           09350000   
                                              260          AIF   ('&WHERE'(&I-1,1) NE '-').OLD                            09400000   
                                              261 .NEXT    ANOP                                                           09450000   
                                              262 &I       SETA  &I+1                                                     09500000   
                                              263          AGO   .LOOP                                                    09550000   
                                              264 .NEW     ANOP                                                           09600000   
                                              265 &C       SETC  '  (&SYSMAC(1))'                                         09616600   
                                              266          AIF   ('&C' NE '  (OPEN CODE)').OC                             09633200   
                                              267 &C       SETC  ' '                                                      09649800   
                                              268 .OC      ANOP                                                           09666400   
                                              269 &NAME    BRXH  &REG,&REG2,&WHERE&C                                      09683000   
                                              270          MEXIT                                                          09700000   
                                              271 .OLD     ANOP                                                           09750000   
                                              272 &NAME    BXH_  &REG,&REG2,&WHERE                                        09800000   
                                              273          MEND                                                           09850000   
                                              274+*                                                                                  
                                              275          MACRO                                                          09950000   
1                                                                                                               Page    9            
   Active Usings: None                                                                                                               
0  Loc    Object Code      Addr1    Addr2    Stmt  Source Statement                          HLASM R6.0  2012/03/05 13.03            
0                                             276 &NAME    BAL   &REG,&WHERE                                              10000000   
                                              277          LCLA  &I,&X                                                    10050000   
                                              278          LCLC  &C                                                       10100000   
                                              279 &I       SETA  2                                                        10150000   
                                              280 &X       SETA  K'&WHERE                                                 10200000   
                                              281 &C       SETC  '&WHERE'(&X,1)                                           10250000   
                                              282          AIF   ('&C.' NE ')').NEW                                       10300000   
                                              283 .LOOP    ANOP                                                           10350000   
                                              284          AIF   (&I GE &X).NEW                                           10400000   
                                              285          AIF   ('&WHERE'(&I,1) NE '(').NEXT                             10450000   
                                              286          AIF   ('&WHERE'(&I-1,1) EQ '+').NEXT                           10500000   
                                              287          AIF   ('&WHERE'(&I-1,1) NE '-').OLD                            10550000   
                                              288 .NEXT    ANOP                                                           10600000   
                                              289 &I       SETA  &I+1                                                     10650000   
                                              290          AGO   .LOOP                                                    10700000   
                                              291 .NEW     ANOP                                                           10750000   
                                              292 &C       SETC  '  (&SYSMAC(1))'                                         10766600   
                                              293          AIF   ('&C' NE '  (OPEN CODE)').OC                             10783200   
                                              294 &C       SETC  ' '                                                      10799800   
                                              295 .OC      ANOP                                                           10816400   
                                              296 &NAME    BRAS  &REG,&WHERE&C                                            10833000   
                                              297          MEXIT                                                          10850000   
                                              298 .OLD     ANOP                                                           10900000   
                                              299 &NAME    BAL_  &REG,&WHERE                                              10950000   
                                              300          MEND                                                           11000000   
                                              301+*                                                                                  
                                              302          MACRO                                                          11100000   
                                              303 &NAME    BAS   &REG,&WHERE                                              11150000   
                                              304          LCLA  &I,&X                                                    11200000   
                                              305          LCLC  &C                                                       11250000   
                                              306 &I       SETA  2                                                        11300000   
                                              307 &X       SETA  K'&WHERE                                                 11350000   
                                              308 &C       SETC  '&WHERE'(&X,1)                                           11400000   
                                              309          AIF   ('&C.' NE ')').NEW                                       11450000   
                                              310 .LOOP    ANOP                                                           11500000   
                                              311          AIF   (&I GE &X).NEW                                           11550000   
                                              312          AIF   ('&WHERE'(&I,1) NE '(').NEXT                             11600000   
                                              313          AIF   ('&WHERE'(&I-1,1) EQ '+').NEXT                           11650000   
                                              314          AIF   ('&WHERE'(&I-1,1) NE '-').OLD                            11700000   
                                              315 .NEXT    ANOP                                                           11750000   
                                              316 &I       SETA  &I+1                                                     11800000   
                                              317          AGO   .LOOP                                                    11850000   
                                              318 .NEW     ANOP                                                           11900000   
                                              319 &C       SETC  '  (&SYSMAC(1))'                                         11916600   
                                              320          AIF   ('&C' NE '  (OPEN CODE)').OC                             11933200   
                                              321 &C       SETC  ' '                                                      11949800   
                                              322 .OC      ANOP                                                           11966400   
                                              323 &NAME    BRAS  &REG,&WHERE&C                                            11983000   
                                              324          MEXIT                                                          12000000   
                                              325 .OLD     ANOP                                                           12050000   
                                              326 &NAME    BAS_  &REG,&WHERE                                              12100000   
                                              327          MEND                                                           12150000   
                                              328+_B_      OPSYN B                                                        01-IEABRCX 
                                              329+_BAL_    OPSYN BAL                                                      01-IEABRCX 
                                              330+_BAS_    OPSYN BAS                                                      01-IEABRCX 
1                                                                                                               Page   10            
   Active Usings: None                                                                                                               
0  Loc    Object Code      Addr1    Addr2    Stmt  Source Statement                          HLASM R6.0  2012/03/05 13.03            
0                                             331+_BC_     OPSYN BC                                                       01-IEABRCX 
                                              332+_BCT_    OPSYN BCT                                                      01-IEABRCX 
                                              333+_BE_     OPSYN BE                                                       01-IEABRCX 
                                              334+_BH_     OPSYN BH                                                       01-IEABRCX 
                                              335+_BL_     OPSYN BL                                                       01-IEABRCX 
                                              336+_BM_     OPSYN BM                                                       01-IEABRCX 
                                              337+_BNE_    OPSYN BNE                                                      01-IEABRCX 
                                              338+_BNH_    OPSYN BNH                                                      01-IEABRCX 
                                              339+_BNL_    OPSYN BNL                                                      01-IEABRCX 
                                              340+_BNM_    OPSYN BNM                                                      01-IEABRCX 
                                              341+_BNO_    OPSYN BNO                                                      01-IEABRCX 
                                              342+_BNP_    OPSYN BNP                                                      01-IEABRCX 
                                              343+_BNZ_    OPSYN BNZ                                                      01-IEABRCX 
                                              344+_BO_     OPSYN BO                                                       01-IEABRCX 
                                              345+_BP_     OPSYN BP                                                       01-IEABRCX 
                                              346+_BXH_    OPSYN BXH                                                      01-IEABRCX 
                                              347+_BXLE_   OPSYN BXLE                                                     01-IEABRCX 
                                              348+_BZ_     OPSYN BZ                                                       01-IEABRCX 
                                              349+         POP   PRINT,NOPRINT                                            01-IEABRCX 
                                              350 *        IEABRCX DISABLE                                                           
                                              351          IEABRCX ENABLE                                                            
                                              352+         PUSH  PRINT,NOPRINT                                            01-IEABRCX 
                                              353+         PRINT OFF,NOPRINT                                              01-IEABRCX 
                                              354+B        OPSYN _B_                                                      01-IEABRCX 
                                              355+BAL      OPSYN _BAL_                                                    01-IEABRCX 
                                              356+BAS      OPSYN _BAS_                                                    01-IEABRCX 
                                              357+BC       OPSYN _BC_                                                     01-IEABRCX 
                                              358+BCT      OPSYN _BCT_                                                    01-IEABRCX 
                                              359+BE       OPSYN _BE_                                                     01-IEABRCX 
                                              360+BH       OPSYN _BH_                                                     01-IEABRCX 
                                              361+BL       OPSYN _BL_                                                     01-IEABRCX 
                                              362+BM       OPSYN _BM_                                                     01-IEABRCX 
                                              363+BNE      OPSYN _BNE_                                                    01-IEABRCX 
                                              364+BNH      OPSYN _BNH_                                                    01-IEABRCX 
                                              365+BNL      OPSYN _BNL_                                                    01-IEABRCX 
                                              366+BNM      OPSYN _BNM_                                                    01-IEABRCX 
                                              367+BNO      OPSYN _BNO_                                                    01-IEABRCX 
                                              368+BNP      OPSYN _BNP_                                                    01-IEABRCX 
                                              369+BNZ      OPSYN _BNZ_                                                    01-IEABRCX 
                                              370+BO       OPSYN _BO_                                                     01-IEABRCX 
                                              371+BP       OPSYN _BP_                                                     01-IEABRCX 
                                              372+BXH      OPSYN _BXH_                                                    01-IEABRCX 
                                              373+BXLE     OPSYN _BXLE_                                                   01-IEABRCX 
                                              374+BZ       OPSYN _BZ_                                                     01-IEABRCX 
                                              375+         POP   PRINT,NOPRINT                                            01-IEABRCX 
                                              376 _BALR    OPSYN BALR                                                                
                                              377 BALR     OPSYN BASR                                                                
                                              378          POP   PRINT                                                               
                                              379 FTEE     CEEENTRY PPA=FTEE_PPA,                                        X           
                                                                 MAIN=YES,                                               X           
                                                                 AUTO=DSASIZE,                                           X           
                                                                 BASE=R11_32                                                         
 00000000                00000000 00000594    380+FTEE    CSECT ,                                                         01-CEEENTRY
                                              381+FTEE    RMODE ANY                                                 @D2A  01-CEEENTRY
                                              382+FTEE    AMODE ANY                                                 @D2A  01-CEEENTRY
1                                                                                                               Page   11            
   Active Usings: None                                                                                                               
0  Loc    Object Code      Addr1    Addr2    Stmt  Source Statement                          HLASM R6.0  2012/03/05 13.03            
0                                             383+           ENTRY FTEE                                                   01-CEEENTRY
                                              384+         PUSH  USING                                                    01-CEEENTRY
                                              385+         DROP  ,                                                  @02A  01-CEEENTRY
                     R:F 00000000             386+         USING *,15                                                     01-CEEENTRY
                                              387+         B     CEEZ0003                                                 01-CEEENTRY
                                              388+         BC    15,CEEZ0003                                              02-00000109
 00000000 A7F4 000A               00000014    389+         BRC   15,CEEZ0003  (B)                                         03-00000188
 00000004 00C3C5C5                            390+         DC    X'00C3C5C5'                                              01-CEEENTRY
                         000002B8             391+CEEY0003    EQU ((DSASIZE+7)/8)*8 . Size of automatic storage.    @P1A  01-CEEENTRY
 00000008 000002B8                            392+         DC    A(CEEY0003)        . Size of automatic storage.    @P1C  01-CEEENTRY
 0000000C 00000524                            393+         DC    A(FTEE_PPA-FTEE)   . Address of PPA for this program     01-CEEENTRY
                                              394+         B     1(,15)                                                   01-CEEENTRY
                                              395+         BC    15,1(,15)                                                02-00000109
 00000010 47F0 F001               00000001    396+         BC_   15,1(,15)                                                03-00000191
                         00000014             397+CEEZ0003    EQU *                                                       01-CEEENTRY
 00000014 90EC D00C               0000000C    398+         STM   14,12,CEEDSAR14-CEEDSA(13)                               01-CEEENTRY
 00000018 5820 F050               00000050    399+         L     2,CEEINPL0003        R2=addr(CEEINPL)        5@01D @01C  01-CEEENTRY
 0000001C 58F0 F054               00000054    400+         L     15,CEEINT0003        R15=addr(CEEINT)              @01C  01-CEEENTRY
                                              401+         DROP  15                                                 @01A  01-CEEENTRY
 00000020 0DEF                                402+         BALR  14,15                Call CEEINT to init LE              01-CEEENTRY
 00000022 1821                                403+         LR    2,1                  Save input R1 value temporarily     01-CEEENTRY
 00000024 58E0 C2F0               000002F0    404+         L     14,752(,12)          Get EDB address                     01-CEEENTRY
 00000028 9680 E008      00000008             405+         OI    8(14),X'80'          Turn CEEEDBMAINI flag ON            01-CEEENTRY
 0000002C 5810 D04C               0000004C    406+         L     1,CEEDSANAB-CEEDSA(,13)  Get the current NAB             01-CEEENTRY
 00000030 A502 0000               00000000    407+         IILH  0,CEEY0003/65536        Load high half of AUTO size@P1A  01-CEEENTRY
 00000034 A503 02B8               000002B8    408+         IILL  0,CEEY0003-(CEEY0003/65536*65536)       and low    @P1A  01-CEEENTRY
 00000038 1E01                                409+         ALR   0,1                     Compute new value.               01-CEEENTRY
 0000003A 5500 C00C               0000000C    410+         CL    0,CEECAAEOS-CEECAA(,12)  Compare with EOS.               01-CEEENTRY
 0000003E A7D4 000D               00000058    411+         JNH   CEEX0003                                           @P1C  01-CEEENTRY
 00000042 58F0 C2BC               000002BC    412+         L     15,CEECAAGETS-CEECAA(,12) Get address overflow routine   01-CEEENTRY
 00000046 0DEF                                413+         BALR  14,15                   Get another stack segment.       01-CEEENTRY
 00000048 181F                                414+         LR    1,15                                                     01-CEEENTRY
 0000004A A7F4 0007               00000058    415+         J     CEEX0003                Branch around statics      @P1C  01-CEEENTRY
 0000004E 0000                                   +                                                                                   
 00000050 00000548                            416+CEEINPL0003    DC    A(CEEINPL)                                   @01A  01-CEEENTRY
 00000054 00000000                            417+CEEINT0003     DC    V(CEEINT)                                    @01A  01-CEEENTRY
                         00000058             418+CEEX0003    EQU *                                                       01-CEEENTRY
 00000058 50D0 1004               00000004    419+         ST    13,CEEDSABKC-CEEDSA(,1)  Set back chain.                 01-CEEENTRY
 0000005C 5000 104C               0000004C    420+         ST    0,CEEDSANAB-CEEDSA(,1)   Set new NAB value               01-CEEENTRY
 00000060 D701 1000 1000 00000000 00000000    421+         XC    CEEDSAFLAGS-CEEDSA(,1),CEEDSAFLAGS-CEEDSA(1) . Clear     01-CEEENTRY
 00000066 5010 D008               00000008    422+         ST    1,CEEDSAFWC-CEEDSA(,13)  Set forward chain.              01-CEEENTRY
 0000006A 18D1                                423+         LR    13,1                    Set save area address            01-CEEENTRY
                                              424+         POP   USING                   Clear any temporary usings @P1M  01-CEEENTRY
                     R:D 00000000             425+         USING CEEDSA,13               Addresability to SF     V1R2M0   01-CEEENTRY
 0000006C D203 D048 C280 00000048 00000280    426+         MVC   CEEDSALWS,CEECAALWS-CEECAA(12) Get LWS addr     V1R2M0   01-CEEENTRY
 00000072 1812                                427+         LR    1,2                     Move input r1 value to PARMREG   01-CEEENTRY
 00000074 C0B0 FFFF FFC6          00000000    428+         LARL  R11_32,FTEE              Load EP into 1st base reg @P1C  01-CEEENTRY
                     R:B 00000000             429+         USING FTEE,R11_32                                        @P1M  01-CEEENTRY
                     R:C 00000000             430          USING CEECAA,R12_32                                                       
                     R:D 00000000             431          USING CEEDSA,R13_32                                                       
 0000007A A7F4 0030               000000DA    432          J     GO                                                                  
 0000007E                                     433 GOBACK   DS    0H                                                                  
 0000007E E310 D08C 0012          0000008C    434          LT    R1_32,IOV@                                                          
 00000084 A784 0016               000000B0    435          JZ    NOFREE                                                              
 00000088 E300 D090 0012          00000090    436          LT    R0_32,IOVL                                                          
1                                                                                                               Page   12            
   Active Usings: FTEE,R11  CEECAA,R12  CEEDSA,R13                                                                                   
0  Loc    Object Code      Addr1    Addr2    Stmt  Source Statement                          HLASM R6.0  2012/03/05 13.03            
00000008E A784 0011               000000B0    437          JZ    NOFREE                                                              
                                              438          STORAGE RELEASE,                                              X           
                                                                 LENGTH=(0),                                             X           
                                                                 ADDR=(1)                                                            
                                              439+         SYSSTATE TEST            This macro sets SYSASCE and      @L8A 01-STORAGE 
 00000092 0700                                440+         CNOP   0,4                                                     01-STORAGE 
                                              441+         B      IHB0008B                     .BRANCH AROUND DATA        01-STORAGE 
                                              442+         BC    15,IHB0008B                                              02-00000109
 00000094 A7F4 0004               0000009C    443+         BRC   15,IHB0008B  (B)                                         03-00000188
 00000098 00                                  444+IHB0008F DC     BL1'00000000'                                           01-STORAGE 
 00000099 00                                  445+         DC     AL1(0*16)                    .KEY                       01-STORAGE 
 0000009A 00                                  446+         DC     AL1(0)                       .SUBPOOL                   01-STORAGE 
 0000009B 03                                  447+         DC     BL1'00000011'                .FLAGS                     01-STORAGE 
 0000009C                                     448+IHB0008B DS     0F                                                      01-STORAGE 
 0000009C 58F0 B098               00000098    449+         L      15,IHB0008F                  .CONTROL INFORMATION  @P9C 01-STORAGE 
 000000A0 58E0 0010               00000010    450+         L      14,16(0,0)                   .CVT ADDRESS               01-STORAGE 
 000000A4 58EE 0304               00000304    451+         L      14,772(14,0)                 .ADDR SYST LINKAGE TABLE   01-STORAGE 
 000000A8 58EE 00CC               000000CC    452+         L      14,204(14,0)                 .OBTAIN LX/EX FOR RELEASE  01-STORAGE 
 000000AC B218 E000      00000000             453+         PC     0(14)                        .PC TO STORAGE RTN         01-STORAGE 
 000000B0                                     454 NOFREE   DS    0H                                                                  
                                              455          CEETERM RC=RETURN_CODE,                                       X           
                                                                 MF=(E,CEETERM_BLOCK)                                                
 000000B0 D203 D0E8 B518 000000E8 00000518    456+         MVC  CEETERM_BLOCK+8,=A(0)  move Modifier to 3rd word of plist 01-CEETERM 
 000000B6 D203 D0EC D0D0 000000EC 000000D0    457+         MVC  CEETERM_BLOCK+12,RETURN_CODE                             X01-CEETERM 
                                                 +                               move RC to 4th word of plist                        
 000000BC 4110 D0E8               000000E8    458+         LA   1,CEETERM_BLOCK+8                                         01-CEETERM 
 000000C0 5010 D0E0               000000E0    459+         ST   1,CEETERM_BLOCK                                           01-CEETERM 
 000000C4 4110 1004               00000004    460+         LA   1,4(,1)                                                   01-CEETERM 
 000000C8 5010 D0E4               000000E4    461+         ST   1,CEETERM_BLOCK+4                                         01-CEETERM 
 000000CC 9680 D0E4      000000E4             462+         OI   CEETERM_BLOCK+4,X'80'                                    X01-CEETERM 
                                                 +                                  turn on high order bit                           
 000000D0 4110 D0E0               000000E0    463+         LA   1,CEETERM_BLOCK                                          X01-CEETERM 
                                                 +                        get address of termination list                            
 000000D4 58F0 B51C               0000051C    464+         L    15,=V(CEETREC)       Get address of termination rtn       01-CEETERM 
 000000D8 0DEF                                465+         BALR 14,15                Call termination routine.            01-CEETERM 
 00000598                00000598 00000008    466+CEEMAIN  CSECT                                                          01-CEETERM 
                                              467+CEEMAIN  RMODE ANY                                                      01-CEETERM 
                                              468+CEEMAIN  AMODE ANY                                                      01-CEETERM 
 00000598 00000000                            469+         DC    A(FTEE)                                            @04A  01-CEETERM 
 0000059C 00000000                            470+         DC    F'0'                                                     01-CEETERM 
 000000DA                00000000 00000594    471+FTEE       CSECT                                                        01-CEETERM 
 000000DA                                     472 GO       DS    0H                                                                  
 000000DA 18A1                                473          LR    R10_32,R1_32       SAVE R1 UPON ENTRY                               
                     R:A 00000000             474          USING PARMS,R10_32                                                        
 000000DC 4110 D0F0               000000F0    475          LA    R1_32,CALLX                                                         
 000000E0 58F0 B2A8               000002A8    476          L     R15_32,CEE3INF                                                      
                                              477          CALL  (15),(SYS,ENV,MEMBER,GPID,FC),VL,                       X           
                                                                 MF=(E,(1))                                                          
                                              478+         SYSSTATE TEST                                             @L3A 01-CALL    
 000000E4                                     479+         DS    0H                                                       01-CALL    
                                              480+         IHBOPLTX (15),(SYS,ENV,MEMBER,GPID,FC),,MF=(E,(1))        @L1C 01-CALL    
                                              481+         SYSSTATE TEST                  TEST ASC ENVIRONMENT       @L1A 02-IHBOPLTX
                                              482+         IHBINNRR (1)                       LOAD REG 1 WITH LIST ADDR   02-IHBOPLTX
                                              483+         SYSSTATE TEST                  TEST ASC ENVIRONMENT       @L1A 03-IHBINNRR
 000000E4 4100 D0B0               000000B0    484+         LA    0,SYS              PICKUP  PARAMETER                     02-IHBOPLTX
1                                                                                                               Page   13            
   Active Usings: PARMS,R10  FTEE,R11  CEECAA,R12  CEEDSA,R13                                                                        
0  Loc    Object Code      Addr1    Addr2    Stmt  Source Statement                          HLASM R6.0  2012/03/05 13.03            
0000000E8 5000 1000               00000000    485+         ST    0,0(0,1)                          STORE INTO PARAM. LIST 02-IHBOPLTX
 000000EC 4100 D0B4               000000B4    486+         LA    0,ENV              PICKUP  PARAMETER                     02-IHBOPLTX
 000000F0 5000 1004               00000004    487+         ST    0,4(0,1)                          STORE INTO PARAM. LIST 02-IHBOPLTX
 000000F4 4100 D0B8               000000B8    488+         LA    0,MEMBER           PICKUP  PARAMETER                     02-IHBOPLTX
 000000F8 5000 1008               00000008    489+         ST    0,8(0,1)                          STORE INTO PARAM. LIST 02-IHBOPLTX
 000000FC 4100 D0BC               000000BC    490+         LA    0,GPID             PICKUP  PARAMETER                     02-IHBOPLTX
 00000100 5000 100C               0000000C    491+         ST    0,12(0,1)                         STORE INTO PARAM. LIST 02-IHBOPLTX
 00000104 4100 D0C0               000000C0    492+         LA    0,FC               PICKUP  PARAMETER                     02-IHBOPLTX
 00000108 5000 1010               00000010    493+         ST    0,16(0,1)                         STORE INTO PARAM. LIST 02-IHBOPLTX
 0000010C 9680 1010      00000010             494+         OI    16(1),X'80'                SET LAST WORD BIT ON @G860P40 02-IHBOPLTX
 00000110 0DEF                                495+         BALR  14,15                             BRANCH TO ENTRY POINT  01-CALL    
 00000112 9102 D0B0      000000B0             496          TM    SYS,X'02'          UNIX?                                            
 00000116 A7E4 009C               0000024E    497          JNO   NOTUNIX            NO                                               
 0000011A D703 D08C D08C 0000008C 0000008C    498          XC    IOV@,IOV@                                                           
 00000120 D703 D090 D090 00000090 00000090    499          XC    IOVL,IOVL                                                           
                                              500          LOAD  EP=BPX1WRT                                                          
                                              501+         SYSSTATE TEST                                           000815 01-LOAD    
 00000126 0700                                502+         CNOP  0,4                                                 @L2P 01-LOAD    
                                              503+         BAS   15,LOAD2_0019      BRANCH AROUND CONSTANT(S)             01-LOAD    
 00000128 A7F5 0006               00000134    504+         BRAS  15,LOAD2_0019  (LOAD)                                    02-00000323
 0000012C                                     505+LD2_0019    DS 0H                                                       01-LOAD    
 0000012C C2D7E7F1E6D9E340                    506+LE2_0019    DC CL8'BPX1WRT'       ENTRY POINT NAME                      01-LOAD    
 00000134                                     507+LOAD2_0019    DS 0H                                                     01-LOAD    
 00000134 4100 F000               00000000    508+         LA    0,LE2_0019-LD2_0019(,15)         ADDR OF PARAMETER       01-LOAD    
 00000138 1B11                                509+         SR    1,1                SHOW NO DCB PRESENT                   01-LOAD    
 0000013A 0A08                                510+         SVC   8                                                        01-LOAD    
 0000013C 5000 D094               00000094    511          ST    R0_32,BPX1WRT                                                       
                                              512          LOAD  EP=BPX1WRV                                                          
                                              513+         SYSSTATE TEST                                           000815 01-LOAD    
 00000140                                     514+         CNOP  0,4                                                 @L2P 01-LOAD    
                                              515+         BAS   15,LOAD2_0022      BRANCH AROUND CONSTANT(S)             01-LOAD    
 00000140 A7F5 0006               0000014C    516+         BRAS  15,LOAD2_0022  (LOAD)                                    02-00000323
 00000144                                     517+LD2_0022    DS 0H                                                       01-LOAD    
 00000144 C2D7E7F1E6D9E540                    518+LE2_0022    DC CL8'BPX1WRV'       ENTRY POINT NAME                      01-LOAD    
 0000014C                                     519+LOAD2_0022    DS 0H                                                     01-LOAD    
 0000014C 4100 F000               00000000    520+         LA    0,LE2_0022-LD2_0022(,15)         ADDR OF PARAMETER       01-LOAD    
 00000150 1B11                                521+         SR    1,1                SHOW NO DCB PRESENT                   01-LOAD    
 00000152 0A08                                522+         SVC   8                                                        01-LOAD    
 00000154 5000 D098               00000098    523          ST    R0_32,BPX1WRV                                                       
 00000158 1F00                                524          SLR   R0_32,R0_32                                                         
 0000015A 5000 D080               00000080    525          ST    R0_32,DYN_Opts                                                      
 0000015E 5000 D084               00000084    526          ST    R0_32,DYN_Opts_Len                                                  
 00000162 4200 D2B0               000002B0    527          STC   R0_32,OPTION                                                        
 00000166 E330 A000 0012          00000000    528          LT    R3_32,@ARGC        pointer to # arguments                           
 0000016C A784 003A               000001E0    529          JZ    NoFiles                                                             
 00000170 5840 A004               00000004    530          L     R4_32,@ARGVL       pointer to argument lengths                      
 00000174 5850 A008               00000008    531          L     R5_32,@ARGV        pointer to argument values                       
 00000178 5830 3000               00000000    532          L     R3_32,0(,R3_32)    load number of arguments                         
 0000017C A73E 0002               00000002    533          CHI   R3_32,2                                                             
 00000180 A744 0030               000001E0    534          JL    NoFiles                                                             
 00000184 4140 4004               00000004    535          LA    R4_32,4(,R4_32)    SKIP ARG(0)                                      
 00000188 4150 5004               00000004    536          LA    R5_32,4(,R5_32)    SKIP ARG(0)                                      
 0000018C 0630                                537          BCTR  R3_32,0            DEC # ARGS BY 1                                  
 0000018E                                     538 LOOP     DS    0H                                                                  
 0000018E 5860 4000               00000000    539          L     R6_32,0(,R4_32)    A(LENGTH)                                        
1                                                                                                               Page   14            
   Active Usings: PARMS,R10  FTEE,R11  CEECAA,R12  CEEDSA,R13                                                                        
0  Loc    Object Code      Addr1    Addr2    Stmt  Source Statement                          HLASM R6.0  2012/03/05 13.03            
000000192 E360 6000 0012          00000000    540          LT    R6_32,0(,R6_32)    LOAD LENGTH                                      
 00000198 A784 001E               000001D4    541          JZ    NextLOOP                                                            
 0000019C 5870 5000               00000000    542          L     R7_32,0(,R5_32)    A(STRING)                                        
 000001A0 9180 D2B0      000002B0             543          TM    OPTION,DASHDASH                                                     
 000001A4 A714 0006               000001B0    544          JO    NotOpt                                                              
 000001A8 9560 7000      00000000             545          CLI   0(R7_32),C'-'      Option?                                          
 000001AC A784 0006               000001B8    546          JE    Options                                                             
 000001B0                                     547 NotOpt   DS    0H                                                                  
 000001B0 9500 7000      00000000             548          CLI   0(R7_32),0         NULL string?                                     
 000001B4 A784 0010               000001D4    549          JE    NextLOOP                                                            
                                              550 * ..                                                                               
 000001B8                                     551 Options  DS    0H                                                                  
 000001B8 A76E 0002               00000002    552          CHI   R6_32,2                                                             
 000001BC A744 000C               000001D4    553          JL    NextLOOP                                                            
 000001C0                                     554 NextOpt  DS    0H                                                                  
 000001C0 9500 7000      00000000             555          CLI   0(R7_32),0         End of Options string?                           
 000001C4 A784 0008               000001D4    556          JE    NextLOOP                                                            
 000001C8 95A7 7000      00000000             557          CLI   0(R7_32),C'x'      BPXWDYN Options?                                 
 000001CC A784 000A               000001E0    558          JE    BPXWDYN_Opt                                                         
 000001D0 A766 FFF8               000001C0    559          BRCT  R6_32,NextOpt                                                       
 000001D4                                     560 NextLOOP DS    0H                                                                  
 000001D4 4140 4004               00000004    561          LA    R4_32,4(,R4_32)                                                     
 000001D8 4150 5004               00000004    562          LA    R5_32,4(,R5_32)                                                     
 000001DC A736 FFD9               0000018E    563          BRCT  R3_32,LOOP                                                          
 000001E0                                     564 NoFiles  DS    0H                                                                  
                                              565 * ...                                                                              
 000001E0                                     566 BPXWDYN_Opt DS 0H                                                                  
 000001E0 E300 D080 0012          00000080    567          LT    R0_32,DYN_Opts                                                      
 000001E6 A774 002F               00000244    568          JNZ   Ret20                                                               
 000001EA                                     569 DYN_Opt_Save DS 0H                                                                 
 000001EA A76E 0002               00000002    570          CHI   R6_32,2                                                             
 000001EE A744 000F               0000020C    571          JL    DYN_Opt_Next_Arg                                                    
 000001F2 9500 7001      00000001             572          CLI   1(R7_32),0                                                          
 000001F6 A784 000B               0000020C    573          JE    DYN_Opt_Next_Arg                                                    
 000001FA 4170 7001               00000001    574          LA    R7_32,1(,R7_32)                                                     
 000001FE 5070 D080               00000080    575          ST    R7_32,DYN_Opts                                                      
 00000202 0660                                576          BCTR  R6_32,0                                                             
 00000204 5060 D084               00000084    577          ST    R6_32,DYN_Opts_Len                                                  
 00000208 A7F4 FFE6               000001D4    578          J     NextLOOP                                                            
 0000020C                                     579 DYN_Opt_Next_Arg DS 0H                                                             
 0000020C A73E 0001               00000001    580          CHI   R3_32,1                                                             
 00000210 A784 0018               00000240    581          JE    NoMoreArgs                                                          
 00000214 4140 4004               00000004    582          LA    R4_32,4(,R4_32)                                                     
 00000218 4150 5004               00000004    583          LA    R5_32,4(,R5_32)                                                     
 0000021C 5860 4000               00000000    584          L     R6_32,0(,R4_32)                                                     
 00000220 D203 D080 4000 00000080 00000000    585          MVC   DYN_Opts,0(R4_32)                                                   
 00000226 D203 D084 6000 00000084 00000000    586          MVC   DYN_Opts_Len,0(R6_32)                                               
 0000022C A736 FFD4               000001D4    587          BRCT  R3_32,NextLOOP     Absorb ARG                                       
 00000230                                     588 RET0     DS    0H                                                                  
 00000230 D703 D0D0 D0D0 000000D0 000000D0    589          XC    RETURN_CODE,RETURN_CODE                                             
 00000236 D703 D0D4 D0D4 000000D4 000000D4    590          XC    MODIFIER,MODIFIER                                                   
 0000023C A7F4 FF21               0000007E    591          J     GOBACK                                                              
 00000240                                     592 NoMoreArgs DS  0H                                                                  
 00000240 A7F4 0002               00000244    593          J     Ret20                                                               
 00000244                                     594 Ret20    DS    0H                                                                  
1                                                                                                               Page   15            
   Active Usings: PARMS,R10  FTEE,R11  CEECAA,R12  CEEDSA,R13                                                                        
0  Loc    Object Code      Addr1    Addr2    Stmt  Source Statement                          HLASM R6.0  2012/03/05 13.03            
000000244 D203 D0D0 B520 000000D0 00000520    595          MVC   RETURN_CODE,=F'20'                                                  
 0000024A A7F4 FF1A               0000007E    596          J     GOBACK                                                              
 0000024E                                     597 NOTUNIX  DS    0H                                                                  
                                              598          ABEND 1,,STEP,REASON=1                                                    
                                              599+         SYSSTATE TEST                                             @L3A 01-ABEND   
 0000024E                                     600+         DS    0H                                                       01-ABEND   
                                              601+         IHBINNRR 1               LOAD REG1 WITH COMPCODE          @L1C 01-ABEND   
                                              602+         SYSSTATE TEST                  TEST ASC ENVIRONMENT       @L1A 02-IHBINNRR
 0000024E 4110 0001               00000001    603+         LA    1,1                               LOAD PARAMETER REG 1   02-IHBINNRR
 00000252 41F0 0001               00000001    604+         LA    15,1               LOAD REG15 WITH REASON CODE  @G860P1F 01-ABEND   
 00000256 4100 0044               00000044    605+         LA    0,68(0,0)          DUMP/STEP/DUMPOPTS/REASON    @G860P1F 01-ABEND   
 0000025A 8900 0018               00000018    606+         SLL   0,24(0)            SHIFT TO HIGH ORDER                   01-ABEND   
 0000025E 1610                                607+         OR    1,0                OR IN WITH COMPCODE                   01-ABEND   
 00000260 0A0D                                608+         SVC   13                 LINK TO ABEND ROUTINE                 01-ABEND   
 00000262 A7F4 FF0E               0000007E    609          J     GOBACK                                                              
 00000266                                     610 DUMP     DS    0H                                                                  
 00000266 50E0 D088               00000088    611          ST    R14_32,@DUMPRET                                                     
 0000026A 4110 D0F0               000000F0    612          LA    R1_32,CALLX                                                         
 0000026E 58F0 B2AC               000002AC    613          L     R15_32,CEE3DMP                                                      
                                              614          CALL  (15),                                                   X           
                                                                 (TITLE,DUMPOPTS,FC),                                    X           
                                                                 VL,                                                     X           
                                                                 MF=(E,(1))                                                          
                                              615+         SYSSTATE TEST                                             @L3A 01-CALL    
 00000272                                     616+         DS    0H                                                       01-CALL    
                                              617+         IHBOPLTX (15),(TITLE,DUMPOPTS,FC),,MF=(E,(1))             @L1C 01-CALL    
                                              618+         SYSSTATE TEST                  TEST ASC ENVIRONMENT       @L1A 02-IHBOPLTX
                                              619+         IHBINNRR (1)                       LOAD REG 1 WITH LIST ADDR   02-IHBOPLTX
                                              620+         SYSSTATE TEST                  TEST ASC ENVIRONMENT       @L1A 03-IHBINNRR
 00000272 4100 B2C2               000002C2    621+         LA    0,TITLE            PICKUP  PARAMETER                     02-IHBOPLTX
 00000276 5000 1000               00000000    622+         ST    0,0(0,1)                          STORE INTO PARAM. LIST 02-IHBOPLTX
 0000027A 4100 B312               00000312    623+         LA    0,DUMPOPTS         PICKUP  PARAMETER                     02-IHBOPLTX
 0000027E 5000 1004               00000004    624+         ST    0,4(0,1)                          STORE INTO PARAM. LIST 02-IHBOPLTX
 00000282 4100 D0C0               000000C0    625+         LA    0,FC               PICKUP  PARAMETER                     02-IHBOPLTX
 00000286 5000 1008               00000008    626+         ST    0,8(0,1)                          STORE INTO PARAM. LIST 02-IHBOPLTX
 0000028A 9680 1008      00000008             627+         OI    8(1),X'80'                 SET LAST WORD BIT ON @G860P40 02-IHBOPLTX
 0000028E 0DEF                                628+         BALR  14,15                             BRANCH TO ENTRY POINT  01-CALL    
 00000290 58E0 D088               00000088    629          L     R14_32,@DUMPRET                                                     
 00000294 07FE                                630          BR    R14_32                                                              
 00000296 0000                                                                                                                       
 00000298 00000000                            631 STDIN    DC    F'0'                                                                
 0000029C 00000001                            632 STDOUT   DC    F'1'                                                                
 000002A0 00000002                            633 STDERR   DC    F'2'                                                                
 000002A4 00000000                            634 ALET     DC    A(0)                                                                
                         000002A4             635 IOV_ALET EQU   ALET                                                                
                         000002A4             636 IOV_BUFFER_ALET EQU ALET                                                           
 000002A8 00000000                            637 CEE3INF  DC    V(CEE3INF)                                                          
                                              638 *PRINTF  DC    V(SPRINTF)                                                          
 000002AC 00000000                            639 CEE3DMP  DC    V(CEE3DMP)                                                          
 000002B0 F0F1F2F3F4F5F6F7                    640 TOHEX    DC    C'0123456789ABCDEF'                                                 
 000002B8 F8F9C1C2C3C4C5C6                                                                                                           
                                              641 TAB      DC    C'&TAB.'                                                            
 000002C0 05                                     +TAB      DC    C'	'                                                                
                                              642 NL       DC    C'&NL.'                                                             
 000002C1 15                                     +NL       DC    C'
'                                                                
1                                                                                                               Page   16            
   Active Usings: PARMS,R10  FTEE,R11  CEECAA,R12  CEEDSA,R13                                                                        
0  Loc    Object Code      Addr1    Addr2    Stmt  Source Statement                          HLASM R6.0  2012/03/05 13.03            
0000002C2 C6E3C5C540C4E4D4                    643 TITLE    DC    CL80'FTEE DUMP'                                                     
 000002CA D740404040404040                                                                                                           
 000002D2 4040404040404040                                                                                                           
 000002DA 4040404040404040                                                                                                           
 000002E2 4040404040404040                                                                                                           
 000002EA 4040404040404040                                                                                                           
 000002F2 4040404040404040                                                                                                           
 000002FA 4040404040404040                                                                                                           
 00000302 4040404040404040                                                                                                           
 0000030A 4040404040404040                                                                                                           
 00000312 C2D3D6C3D2E26BE2                    644 DUMPOPTS DC    CL255'BLOCKS,STORAGE,REGST(256),GENOPTS'                            
 0000031A E3D6D9C1C7C56BD9                                                                                                           
 00000322 C5C7E2E34DF2F5F6                                                                                                           
 0000032A 5D6BC7C5D5D6D7E3                                                                                                           
 00000332 E240404040404040                                                                                                           
 0000033A 4040404040404040                                                                                                           
 00000342 4040404040404040                                                                                                           
 0000034A 4040404040404040                                                                                                           
 00000352 4040404040404040                                                                                                           
 0000035A 4040404040404040                                                                                                           
 00000362 4040404040404040                                                                                                           
 0000036A 4040404040404040                                                                                                           
 00000372 4040404040404040                                                                                                           
 0000037A 4040404040404040                                                                                                           
 00000382 4040404040404040                                                                                                           
 0000038A 4040404040404040                                                                                                           
 00000392 4040404040404040                                                                                                           
 0000039A 4040404040404040                                                                                                           
 000003A2 4040404040404040                                                                                                           
 000003AA 4040404040404040                                                                                                           
 000003B2 4040404040404040                                                                                                           
 000003BA 4040404040404040                                                                                                           
 000003C2 4040404040404040                                                                                                           
 000003CA 4040404040404040                                                                                                           
 000003D2 4040404040404040                                                                                                           
 000003DA 4040404040404040                                                                                                           
 000003E2 4040404040404040                                                                                                           
 000003EA 4040404040404040                                                                                                           
 000003F2 4040404040404040                                                                                                           
 000003FA 4040404040404040                                                                                                           
 00000402 4040404040404040                                                                                                           
 0000040A 40404040404040                                                                                                             
 00000411 0001020304050607                    645 TOUPPER  DC    256AL1(*-TOUPPER)                                                   
 00000419 08090A0B0C0D0E0F                                                                                                           
 00000421 1011121314151617                                                                                                           
 00000429 18191A1B1C1D1E1F                                                                                                           
 00000431 2021222324252627                                                                                                           
 00000439 28292A2B2C2D2E2F                                                                                                           
 00000441 3031323334353637                                                                                                           
 00000449 38393A3B3C3D3E3F                                                                                                           
 00000451 4041424344454647                                                                                                           
 00000459 48494A4B4C4D4E4F                                                                                                           
 00000461 5051525354555657                                                                                                           
 00000469 58595A5B5C5D5E5F                                                                                                           
 00000471 6061626364656667                                                                                                           
1                                                                                                               Page   17            
   Active Usings: PARMS,R10  FTEE,R11  CEECAA,R12  CEEDSA,R13                                                                        
0  Loc    Object Code      Addr1    Addr2    Stmt  Source Statement                          HLASM R6.0  2012/03/05 13.03            
000000479 68696A6B6C6D6E6F                                                                                                           
 00000481 7071727374757677                                                                                                           
 00000489 78797A7B7C7D7E7F                                                                                                           
 00000491 8081828384858687                                                                                                           
 00000499 88898A8B8C8D8E8F                                                                                                           
 000004A1 9091929394959697                                                                                                           
 000004A9 98999A9B9C9D9E9F                                                                                                           
 000004B1 A0A1A2A3A4A5A6A7                                                                                                           
 000004B9 A8A9AAABACADAEAF                                                                                                           
 000004C1 B0B1B2B3B4B5B6B7                                                                                                           
 000004C9 B8B9BABBBCBDBEBF                                                                                                           
 000004D1 C0C1C2C3C4C5C6C7                                                                                                           
 000004D9 C8C9CACBCCCDCECF                                                                                                           
 000004E1 D0D1D2D3D4D5D6D7                                                                                                           
 000004E9 D8D9DADBDCDDDEDF                                                                                                           
 000004F1 E0E1E2E3E4E5E6E7                                                                                                           
 000004F9 E8E9EAEBECEDEEEF                                                                                                           
 00000501 F0F1F2F3F4F5F6F7                                                                                                           
 00000509 F8F9FAFBFCFDFEFF                                                                                                           
 00000511                00000511 00000492    646          ORG   TOUPPER+X'81'                                                       
 00000492 C1C2C3C4C5C6C7C8                    647          DC    C'ABCDEFGHI'                                                        
 0000049A C9                                                                                                                         
 0000049B                0000049B 000004A2    648          ORG   TOUPPER+X'91'                                                       
 000004A2 D1D2D3D4D5D6D7D8                    649          DC    C'JKLMNOPQR'                                                        
 000004AA D9                                                                                                                         
 000004AB                000004AB 000004B3    650          ORG   TOUPPER+X'A2'                                                       
 000004B3 E2E3E4E5E6E7E8E9                    651          DC    C'STUVWXYZ'                                                         
 000004BB                000004BB 00000511    652          ORG                                                                       
 00000518                                     653          LTORG *                                                                   
 00000518 00000000                            654                =A(0)                                                               
 0000051C 00000000                            655                =V(CEETREC)                                                         
 00000520 00000014                            656                =F'20'                                                              
                                              657 FTEE_PPA CEEPPA LIBRARY=NO,                                            X           
                                                                 PPA2=YES,                                               X           
                                                                 EXTPROC=YES,                                            X           
                                                                 TSTAMP=YES,                                             X           
                                                                 PEP=YES,                                                X           
                                                                 INSTOP=NO,                                              X           
                                                                 EXITDSA=NO,                                             X           
                                                                 OWNEXM=YES,                                             X           
                                                                 EPNAME=FTEE,                                            X           
                                                                 VER=1,                                                  X           
                                                                 REL=1,                                                  X           
                                                                 MOD=0,                                                  X           
                                                                 DSA=YES                                                             
                                              658+*/******************************************************************/              
                                              659+*/*                                                                */              
                                              660+*/* Licensed Materials - Property of IBM                           */              
                                              661+*/*                                                                */              
                                              662+*/* 5694-A01 5688-198                                              */              
                                              663+*/*                                                                */              
                                              664+*/* Copyright IBM Corp. 1991, 2009                                 */              
                                              665+*/*                                                                */              
                                              666+*/* Status = HLE7760                                               */              
                                              667+*/*                                                                */              
1                                                                                                               Page   18            
   Active Usings: PARMS,R10  FTEE,R11  CEECAA,R12  CEEDSA,R13                                                                        
0  Loc    Object Code      Addr1    Addr2    Stmt  Source Statement                          HLASM R6.0  2012/03/05 13.03            
0                                             668+*/******************************************************************/              
                                              669+*                                                                                  
                                              670+**********************************************************************             
                                              671+*        P R O G R A M  P R O L O G  A R E A 1   ( P P A 1)          *             
                                              672+**********************************************************************             
                                              673+*                                                                                  
 00000524                                     674+PPA10035    DS    0F                                                    01-CEEPPA  
 00000524                                     675+FTEE_PPA DS    0F                                                       01-CEEPPA  
 00000524 1E                                  676+         DC    AL1(PPANL0035-*) Offset to the entry name length         01-CEEPPA  
 00000525 CE                                  677+         DC    X'CE'            LE/370  Indicator.                      01-CEEPPA  
 00000526 A0                                  678+         DC    B'10100000'                             . PPA flags      01-CEEPPA  
                                              679+*                     Bit 0   0 = Internal Procedure                               
                                              680+*                             1 = External Procedure                               
                                              681+*                     Bit 1   0 = Primary Entry Point                              
                                              682+*                             1 = Secondary Entry Point                            
                                              683+*                     Bit 2   0 = Block doesn't have a DSA                         
                                              684+*                             1 = Block has a DSA                                  
                                              685+*                     Bit 3   0 = compiled object                                  
                                              686+*                             1 = library object                                   
                                              687+*                     Bit 4   0 = sampling interrupts to library                   
                                              688+*                             1 = sampling interrupts to code                      
                                              689+*                     Bit 5   0 = not an exit DSA                                  
                                              690+*                             1 = Exit DSA                                         
                                              691+*                     Bit 6   0 = own exception model                              
                                              692+*                             1 = inherited (callers) exception model              
                                              693+*                     Bit 7       Reserved                                         
 00000527 00                                  694+         DC    X'00'            Member flags                            01-CEEPPA  
 00000528 0000056C                            695+         DC    A(PPA20035)      Addr of Compile Unit Block (PPA2)       01-CEEPPA  
 0000052C 00000000                            696+         DC    A(0)             Blk Debug Info                          01-CEEPPA  
 00000530 00000000                            697+         DC    A(0)             Data Descriptors for this entry point   01-CEEPPA  
 00000534 00000000                            698+         DC    A(0)             GPR save bit mask      X'10'      @D2A  01-CEEPPA  
 00000538 00000000                            699+         DC    A(0)             Member PPA1 word       X'14'      @D2A  01-CEEPPA  
 0000053C 00000000                            700+         DC    A(0)                             Offset X'18'      @D2A  01-CEEPPA  
                                              701+* Language Environment flags (16bits)           Offset X'1C'      @D2A             
 00000540 00                                  702+         DC    B'00000000'                                        @D2A  01-CEEPPA  
                                              703+*                 Bit 0-1 00 = Old code entry performs full save  @D2A             
                                              704+*                         01 = Old code performs partial save     @D2A             
                                              705+*                         10 = Old code performs partial save+R12 @D2A             
                                              706+*                 Bit 2   0  = Allow asynchronous exceptions      @D2A             
                                              707+*                         1  = Defer asynchronous exceptions      @D2A             
                                              708+*                 Bit 3   0  = Word 0 of SA not initialized       @D2A             
                                              709+*                         1  = Word 0 of SA initialized           @D2A             
                                              710+*                 Bit 4   0  = Code is nonexternal glue           @D2A             
                                              711+*                         1  = Code is external glue              @D2A             
                                              712+*                 Bit 5   0  = Real return addr saved in SA at    @D2A             
                                              713+*                              offset '0C'X                       @D2A             
                                              714+*                         1  = Real return addr saved in linkage  @D2A             
                                              715+*                              area                               @D2A             
                                              716+*                 Bit 6   0  = Storage argument area start        @D2A             
                                              717+*                              indeterminate                      @D2A             
                                              718+*                         1  = Storage argument area start valid  @D2A             
                                              719+*                 Bit 7   0  = R12 must contain CAA address upon  @D2A             
                                              720+*                              old code entry                     @D2A             
                                              721+*                         1  = R12 not defined upon old code entry@D2A             
 00000541 00                                  722+         DC    B'00000000'                                        @D2A  01-CEEPPA  
1                                                                                                               Page   19            
   Active Usings: PARMS,R10  FTEE,R11  CEECAA,R12  CEEDSA,R13                                                                        
0  Loc    Object Code      Addr1    Addr2    Stmt  Source Statement                          HLASM R6.0  2012/03/05 13.03            
0                                             723+*                 Bit 8   0  = Not vararg routine                 @D2A             
                                              724+*                         1  = Vararg routine                     @D2A             
                                              725+*                 Bit 9   0  = Asynchronous interrupts unsupported@D2A             
                                              726+*                         1  = Asynchronous interrupts supported  @D2A             
                                              727+*                 Bit 10  0  = No module service level            @D2A             
                                              728+*                         1  = Module service level applied       @D2A             
                                              729+*                 Bit 11-15  = Reserved                           @D2A             
 00000542                                     730+         DS    0H                                                       01-CEEPPA  
 00000542 0004                                731+PPANL0035 DC   AL2(4)        .  Length of Entry Point Name              01-CEEPPA  
 00000544 C6E3C5C5                            732+         DC    CL4'FTEE'     .  Entry Point Name                        01-CEEPPA  
 00000548                                     733+CEEINPL  DS    0D                                                       01-CEEPPA  
 00000548 0000057C                            734+         DC    A(PPA2M0035)                                             01-CEEPPA  
 0000054C 00000008                            735+         DC    A(CEEINPLSTST-CEEINPL)                                   01-CEEPPA  
 00000550                                     736+CEEINPLSTST DS 0F                                                       01-CEEPPA  
 00000550 00                                  737+         DC    X'00'            Control Level                     @01A  01-CEEPPA  
 00000551 00                                  738+         DC    X'00'            ENCLAVE=NO                        @01A  01-CEEPPA  
 00000552 00                                  739+         DC    X'00'                                              @01A  01-CEEPPA  
 00000553 07                                  740+         DC    X'07'            Number of items.                  @01C  01-CEEPPA  
 00000554 0000057C                            741+         DC    A(PPA2M0035)   . A of A(first entry point in comp unit)  01-CEEPPA  
 00000558 00000000                            742+         DC    V(CEESTART)   . A(Address of CEESTART)                   01-CEEPPA  
 0000055C 00000000                            743+         DC    V(CEEBETBL)                                              01-CEEPPA  
 00000560 0000000F                            744+         DC    A(15)         . Memeber id                               01-CEEPPA  
 00000564 00000000                            745+         DC    A(0)                                                     01-CEEPPA  
 00000568 00020000                            746+         DC    XL4'00020000'          . EXECOPS(ON), PLIST              01-CEEPPA  
 0000056C                                     747+         DS    0H                                                       01-CEEPPA  
                                              748+*                                                                                  
                                              749+**********************************************************************             
                                              750+*        P R O G R A M  P R O L O G  A R E A 2   ( P P A 2)          *             
                                              751+**********************************************************************             
                                              752+*                                                                                  
                                              753+         EXTRN CEESTART                                                 01-CEEPPA  
 0000056C                                     754+PPA20035    DS    0F                                                    01-CEEPPA  
 0000056C 0F                                  755+         DC    AL1(15)          Member ID                               01-CEEPPA  
 0000056D 00                                  756+         DC    AL1(0)           Sub ID                                  01-CEEPPA  
 0000056E 00                                  757+         DC    AL1(0)           Member defined                          01-CEEPPA  
 0000056F 01                                  758+         DC    AL1(1)           Level of PPAx control blocks            01-CEEPPA  
 00000570 00000000                            759+PPA2S0035   DC    A(CEESTART)      A(CEESTART for this load module)     01-CEEPPA  
 00000574 00000000                            760+         DC    A(0)             A(Compile Debug Information (CDI) )     01-CEEPPA  
 00000578 00000014                            761+         DC    A(CEETIMES-PPA20035)   A(Offset to time stamp)           01-CEEPPA  
 0000057C 00000000                            762+PPA2M0035   DC    A(FTEE)        . A(first entry point in comp. unit)   01-CEEPPA  
                                              763+*                                                                                  
                                              764+**********************************************************************             
                                              765+*                 T I M E    S T A M P                               *             
                                              766+**********************************************************************             
                                              767+*                                                                                  
                                              768+*        Time Stamp                                                                
                                              769+*,Time Stamp = 2012/03/05 13:03:00                                      01-CEEPPA  
                                              770+*,Version 1 Release 1 Modification 0                                    01-CEEPPA  
 00000580                                     771+CEETIMES DS    0F                                                       01-CEEPPA  
 00000580 F2F0F1F2                            772+         DC    CL4'2012'          Year                                  01-CEEPPA  
 00000584 F0F3                                773+         DC    CL2'03'            Month                                 01-CEEPPA  
 00000586 F0F5                                774+         DC    CL2'05'            Day                                   01-CEEPPA  
 00000588 F1F3                                775+         DC    CL2'13'            Hours                                 01-CEEPPA  
 0000058A F0F3                                776+         DC    CL2'03'            Minutes                               01-CEEPPA  
 0000058C F0F0                                777+         DC    CL2'00'            Seconds                               01-CEEPPA  
1                                                                                                               Page   20            
   Active Usings: PARMS,R10  FTEE,R11  CEECAA,R12  CEEDSA,R13                                                                        
0  Loc    Object Code      Addr1    Addr2    Stmt  Source Statement                          HLASM R6.0  2012/03/05 13.03            
00000058E F140                                778+         DC    CL2'1'             Version                               01-CEEPPA  
 00000590 F140                                779+         DC    CL2'1'             Release                               01-CEEPPA  
 00000592 F040                                780+         DC    CL2'0'             Modification                          01-CEEPPA  
                                              781          CEEDSA                                                                    
                                              782+*                                                                                  
                                              783+**********************************************************************             
                                              784+*   D Y N A M I C   S T O R A G E   A R E A    ( D S A )             *             
                                              785+**********************************************************************             
                                              786+*                                                                                  
 00000000                00000000 000002B1    787+CEEDSA   DSECT 0D         Default DSECT NAME for SECTYPE=ALL            01-CEEDSA  
                                              788+*                                                                                  
 00000000                                     789+CEEDSAFLAGS DS XL2                  DSA flags                           01-CEEDSA  
                         00001000             790+CEEDSALNGC EQU X'1000'                C library DSA                     01-CEEDSA  
                         00000800             791+CEEDSALNGP EQU X'0800'                PL/I library DSA                  01-CEEDSA  
                         00000008             792+CEEDSAEXIT EQU X'0008'                An Exit DSA                       01-CEEDSA  
 00000002                                     793+CEEDSAMEMD DS  XL2                  Member defined                      01-CEEDSA  
 00000004                                     794+CEEDSABKC DS   A                    Addr of DSA of caller               01-CEEDSA  
 00000008                                     795+CEEDSAFWC DS   A                    Addr of DSA of last called rtn      01-CEEDSA  
 0000000C                                     796+CEEDSAR14 DS   F                    Save area for register 14           01-CEEDSA  
 00000010                                     797+CEEDSAR15 DS   F                    Save area for register 15           01-CEEDSA  
 00000014                                     798+CEEDSAR0 DS    F                    Save area for register 0            01-CEEDSA  
 00000018                                     799+CEEDSAR1 DS    F                    Save area for register 1            01-CEEDSA  
 0000001C                                     800+CEEDSAR2 DS    F                    Save area for register 2            01-CEEDSA  
 00000020                                     801+CEEDSAR3 DS    F                    Save area for register 3            01-CEEDSA  
 00000024                                     802+CEEDSAR4 DS    F                    Save area for register 4            01-CEEDSA  
 00000028                                     803+CEEDSAR5 DS    F                    Save area for register 5            01-CEEDSA  
 0000002C                                     804+CEEDSAR6 DS    F                    Save area for register 6            01-CEEDSA  
 00000030                                     805+CEEDSAR7 DS    F                    Save area for register 7            01-CEEDSA  
 00000034                                     806+CEEDSAR8 DS    F                    Save area for register 8            01-CEEDSA  
 00000038                                     807+CEEDSAR9 DS    F                    Save area for register 9            01-CEEDSA  
 0000003C                                     808+CEEDSAR10 DS   F                    Save area for register 10           01-CEEDSA  
 00000040                                     809+CEEDSAR11 DS   F                    Save area for register 11           01-CEEDSA  
 00000044                                     810+CEEDSAR12 DS   F                    Save area for register 12           01-CEEDSA  
 00000048                                     811+CEEDSALWS DS   A                    Addr of PL/I Language Working Space 01-CEEDSA  
 0000004C                                     812+CEEDSANAB DS   A                    Addr of next available byte         01-CEEDSA  
 00000050                                     813+CEEDSAPNAB DS  A                    Addr of end-of-prolog NAB           01-CEEDSA  
 00000054                                     814+           DS  4F                                                       01-CEEDSA  
 00000064                                     815+CEEDSATRAN DS  0A                   HPL TxArea or                       01-CEEDSA  
 00000064                                     816+CEEDSARENT DS  A                    Program reentry address-IPAT        01-CEEDSA  
 00000068                                     817+CEEDSACILC DS  A                    C to Fortran ILC save area          01-CEEDSA  
 0000006C                                     818+CEEDSAMODE DS  A                    Return address of module that       01-CEEDSA  
                                              819+*                                   caused the last mode switch                    
 00000070                                     820+           DS  2F                                                       01-CEEDSA  
 00000078                                     821+CEEDSARMR  DS  A                    Addr of language specific           01-CEEDSA  
                                              822+*                                   exception handler                              
                                              823+*                                                                                  
 0000007C                                     824+           DS  F                    Reserved                            01-CEEDSA  
 00000080                                     825+CEEDSAAUTO DS  0D                   Automatic storage starts here       01-CEEDSA  
 00000080                                     826+CEEDSAEND  DS  0D                   End of DSA                          01-CEEDSA  
                         00000080             827+CEEDSASZ EQU   CEEDSAEND-CEEDSA     Size of DSA                         01-CEEDSA  
                         00000000             828+CEEDSA_STDCEEDSA  EQU   X'0000'     flag values of standard CEE DSA     01-CEEDSA  
                                              829+*                                                                                  
                                              830+*                                                                                  
                                              831+*                                                                                  
                                              832+*                                                                                  
1                                                                                                               Page   21            
   Active Usings: PARMS,R10  FTEE,R11  CEECAA,R12  CEEDSA,R13                                                                        
0D-Loc    Object Code      Addr1    Addr2    Stmt  Source Statement                          HLASM R6.0  2012/03/05 13.03            
0                                             833+**********************************************************************             
                                              834+*   X P L I N K   D Y N A M I C   S T O R A G E   A R E A            *             
                                              835+**********************************************************************             
                                              836+*                                                                                  
 00000000                00000000 00000840    837+CEEDSAHP DSECT 0D         Default DSECT NAME for SECTYPE=ALL            01-CEEDSA  
                                              838+         CEEDNUT          Set the global values                         01-CEEDSA  
                                              839+***********************************************************************            
                                              840+***********************************************************************            
                         00000004             841+LEPTRLEN EQU    4                                                       02-CEEDNUT 
                                              842+*                                                                                  
 00000000                                     843+CEEDSAHP_BIAS  DS XL2048             BIAS -- DO NOT USE                 01-CEEDSA  
                         00000800             844+CEEDSAHPBIASSZ EQU *-CEEDSAHP_BIAS   Size of Down Stack Bias            01-CEEDSA  
 00000800                                     845+CEEDSAHP_FIXED DS 0X                 Start of fixed part                01-CEEDSA  
 00000800                                     846+CEEDSAHP4TO15 DS 12F                 Save area for regs 4-15            01-CEEDSA  
 00000830                00000830 00000800    847+            ORG CEEDSAHP_FIXED                                          01-CEEDSA  
 00000800                                     848+CEEDSAHP4TO7  DS 4F                  Save area for regs 4-7             01-CEEDSA  
 00000810                00000810 00000800    849+            ORG CEEDSAHP_FIXED                                          01-CEEDSA  
 00000800                                     850+CEEDSAHPR4  DS F                     Save area for register 4           01-CEEDSA  
 00000804                                     851+CEEDSAHPR5  DS F                     Save area for register 5           01-CEEDSA  
 00000808                                     852+CEEDSAHPR6  DS F                     Save area for register 6           01-CEEDSA  
 0000080C                                     853+CEEDSAHPR7  DS F                     Save area for register 7           01-CEEDSA  
 00000810                                     854+CEEDSAHP8TO15 DS 8F                  Save area for regs 8-15            01-CEEDSA  
 00000830                00000830 00000810    855+            ORG CEEDSAHP8TO15                                           01-CEEDSA  
 00000810                                     856+CEEDSAHPR8  DS F                     Save area for register 8           01-CEEDSA  
 00000814                                     857+CEEDSAHPR9  DS F                     Save area for register 9           01-CEEDSA  
 00000818                                     858+CEEDSAHPR10 DS F                     Save area for register 10          01-CEEDSA  
 0000081C                                     859+CEEDSAHPR11 DS F                     Save area for register 11          01-CEEDSA  
 00000820                                     860+CEEDSAHPR12 DS F                     Save area for register 12          01-CEEDSA  
 00000824                                     861+CEEDSAHPR13 DS F                     Save area for register 13          01-CEEDSA  
 00000828                                     862+CEEDSAHPR14 DS F                     Save area for register 14          01-CEEDSA  
 0000082C                                     863+CEEDSAHPR15 DS F                     Save area for register 15          01-CEEDSA  
 00000830                                     864+            DS F                     Reserved for LE use                01-CEEDSA  
 00000834                                     865+CEEDSAHPMBRUSE DS F                  Reserved for LE Member use         01-CEEDSA  
 00000838                                     866+CEEDSAHPTRAN DS A                    Addr of transition area            01-CEEDSA  
 0000083C                                     867+CEEDSAHP_ARG_PRE DS 0A               Argument prefix area               01-CEEDSA  
 0000083C                                     868+CEEDSAHPRENT     DS A                or Program reentry addr-IPAT       01-CEEDSA  
                         00000040             869+CEEDSAHPSZ  EQU *-CEEDSAHP_FIXED     Size of fixed DSA                  01-CEEDSA  
 00000840                                     870+CEEDSAHP_ARGLIST DS 0X               Start of Vary length arg list      01-CEEDSA  
                                              871+*                                                                                  
                                              872+*                                                                                  
 00000080                00000000 000002B1    873+CEEDSA   DSECT  ,                                                       01-CEEDSA  
                                              874 * DYNAMIC AREA IS DEFINED HERE.                                                    
                                              875 * THIS IS WITHIN A DSECT, SO NO DATA IS REALLY INITIALIZED                         
 00000080                                     876          DS    0D                 FORCE DOUBLEWORD                                 
 00000080                                     877 DYN_Opts DS    F                                                                   
 00000084                                     878 DYN_Opts_Len DS F                                                                  
 00000088                                     879 @DUMPRET DS    A                                                                   
 0000008C                                     880 IOV@     DS    A                  IOV STRUCTURE ADDRESS                            
 00000090                                     881 IOVL     DS    F                  IOV STRUCTURE SIZE IN BYTES                      
 00000094 00000000                            882 BPX1WRT  DC    A(0)               DYNAMICALLY LOADED                               
 00000098 00000000                            883 BPX1WRV  DC    A(0)               DYNAMICALLY LOADED                               
 0000009C                                     884 COUNT    DS    F                                                                   
 000000A0                                     885 BUFFERA  DS    A                                                                   
 000000A4                                     886 RETVAL   DS    A(0)                                                                
 000000A8                                     887 RETCODE  DS    A(0)                                                                
1                                                                                                               Page   22            
   Active Usings: PARMS,R10  FTEE,R11  CEECAA,R12  CEEDSA,R13                                                                        
0D-Loc    Object Code      Addr1    Addr2    Stmt  Source Statement                          HLASM R6.0  2012/03/05 13.03            
0000000AC                                     888 RSNCODE  DS    A(0)                                                                
 000000B0                                     889 SYS      DS    F                                                                   
                                              890 * BIT MEANING                                                                      
                                              891 *    0 X'80'                                                                       
                                              892 *    CURRENTLY EXECUTING IN THE CICS ENVIRONMENT                                   
                                              893 *    1 X'40'                                                                       
                                              894 *    CURRENTLY EXECUTING IN A CICS_PIPI ENVIRONMENT                                
                                              895 *    2-3 X'30'                                                                     
                                              896 *    RESERVED FOR OTHER SPECIFIC CICS ENVIRONMENTS                                 
                                              897 *    4 X'10'                                                                       
                                              898 *    CURRENTLY EXECUTING IN A TSO ENVIRONMENT                                      
                                              899 *    5 X'08'                                                                       
                                              900 *    CURRENTLY EXECUTING IN A BATCH ENVIRONMENT                                    
                                              901 *    6 X'04'                                                                       
                                              902 *    CURRENTLY EXECUTING IN A Z/OS UNIX ENVIRONMENT                                
                                              903 *    7-28                                                                          
                                              904 *    RESERVED FOR FUTURE USE                                                       
                                              905 *    29                                                                            
                                              906 *    CURRENTLY EXECUTING ON Z/VSE(TM)                                              
                                              907 *    30                                                                            
                                              908 *    CURRENTLY EXECUTING ON Z/OS                                                   
                                              909 *    31                                                                            
                                              910 *    PREVIOUSLY INDICATED AS EXECUTING ON Z/OS.E                                   
                                              911 *                                                                                  
 000000B4                                     912 ENV      DS    F                                                                   
                                              913 *                                                                                  
 000000B8                                     914 MEMBER   DS    F                                                                   
                                              915 *                                                                                  
 000000BC                                     916 GPID     DS    F                                                                   
 000000C0                                     917 FC       DS    3F                                                                  
 000000CC                                     918 BUFL     DS    F                                                                   
 000000D0                                     919 RETURN_CODE DS F                                                                   
 000000D4                                     920 MODIFIER DS    F                                                                   
 000000D8 00000000                            921 RETURN_VALUE DC A(0)               PREVIOUS DEFAULT DUB                            
 000000DC 00000000                            922 REASON_CODE DC A(0)                                                                
                                              923 CEETERM_BLOCK CEETERM MF=L                                                         
 000000E0                                     924+CEETERM_BLOCK DS 4F                                                     01-CEETERM 
 000000F0                                     925 CALLX    DS     30A                                                                
 00000168                                     926 IOV_COUNT DS   F                                                                   
 00000170                                     927 IOV_STRUC DS   0D                                                                  
 00000170                                     928          DS    (10*8)A            ROOM FOR 10 ADDRESS / LENGTH PAIRS               
                         00000140             929 IOV_STRUC_L EQU *-IOV_STRUC                                                        
                         00000028             930 IOV_STRUC_N EQU IOV_STRUC_L/8                                                      
                                              931 *SGAREA  DS    CL(20+L'MSGFMT1)                                                    
 000002B0                                     932 OPTION   DS    X                                                                   
                         00000080             933 DASHDASH EQU   X'80'                                                               
                         000002B1             934 DSASIZE  EQU   *-CEEDSA                                                            
                                              935          BPXYCONS DSECT=YES,LIST=YES                                               
                                              936+** BPXYCONS: Syscall constants                                                     
                                              937+**  Used By: Many syscalls                                                         
                         00100000             938+DFLT_ARG_MAX         EQU   1048576  Constant for default ARG_MAX  @EGC  01-BPXYCONS
                         00000006             939+DFLT_CHILD_MAX       EQU   6    Constant for default CHILD_MAX          01-BPXYCONS
                                              940+*                               (_POSIX_CHILD_MAX)                                 
                         00000064             941+DFLT_CLK_TCK         EQU   100  Constant for default CLK_TCK            01-BPXYCONS
                                              942+*                               (100 ticks per second)                             
1                                                                                                               Page   23            
   Active Usings: PARMS,R10  FTEE,R11  CEECAA,R12  CEEDSA,R13                                                                        
0D-Loc    Object Code      Addr1    Addr2    Stmt  Source Statement                          HLASM R6.0  2012/03/05 13.03            
0                        00001FFF             943+DFLT_NGROUPS_MAX     EQU   8191 Constant for default NGROUPS_MAX        01-BPXYCONS
                                              944+*                               (RACF Maximum value)                               
                         00000010             945+DFLT_OPEN_MAX        EQU   16   Constant for default OPEN_MAX           01-BPXYCONS
                                              946+*                               (_POSIX_OPEN_MAX)                                  
                         00000009             947+DFLT_TZNAME_MAX      EQU   9    Constant for default TZNAME_MAX         01-BPXYCONS
                         00000001             948+DFLT_JOB_CONTROL     EQU   1    Constant for default JOB_CONTROL        01-BPXYCONS
                         00000001             949+DFLT_SAVED_IDS       EQU   1    Constant for default SAVED_IDS          01-BPXYCONS
                         00030961             950+DFLT_VERSION         EQU   199009  Constant for default VERSION         01-BPXYCONS
                         00000032             951+DFLT_THREAD_TASKS_MAX_NP  EQU  50  Constant default THREAD_TASKS_MAX_NP 01-BPXYCONS
                         00000008             952+DFLT_USERIDLEN_MAX   EQU   8    Max characters for a userid       @DKA  01-BPXYCONS
                         00000008             953+DFLT_PASSWDLEN_MAX   EQU   8    Max characters for a password     @DKA  01-BPXYCONS
                         00000064             954+DFLT_PASSWDPHRLEN_MAX EQU  100 Max characters for password phrase @EBA  01-BPXYCONS
                         00000001             955+DFLT_2_CHAR_TERM     EQU   1    Constant default SC_2_CHAR_TERM  @P1A   01-BPXYCONS
0                                             957+* items from sysconf()                                                             
                         00000001             958+SC_ARG_MAX           EQU   1    Constant for querying ARG_MAX           01-BPXYCONS
                         00000002             959+SC_CHILD_MAX         EQU   2    Constant for querying CHILD_MAX         01-BPXYCONS
                         00000003             960+SC_CLK_TCK           EQU   3    Constant for querying CLK_TCK           01-BPXYCONS
                         00000004             961+SC_JOB_CONTROL       EQU   4    Constant for querying JOB_CONTROL       01-BPXYCONS
                         00000005             962+SC_NGROUPS_MAX       EQU   5    Constant for querying NGROUPS_MAX       01-BPXYCONS
                         00000006             963+SC_OPEN_MAX          EQU   6    Constant for querying OPEN_MAX          01-BPXYCONS
                         00000007             964+SC_SAVED_IDS         EQU   7    Constant for querying SAVED_IDS         01-BPXYCONS
                         00000009             965+SC_TZNAME_MAX        EQU   9    Constant for querying TZNAME_MAX        01-BPXYCONS
                         0000000A             966+SC_VERSION           EQU   10   Constant for querying VERSION           01-BPXYCONS
                         0000000B             967+SC_THREAD_TASKS_MAX_NP EQU 11   Constant to query THREAD_TASKS_MAX_NP   01-BPXYCONS
                         0000000C             968+SC_2_CHAR_TERM       EQU   12   Constant for querying VERSION    @P1A   01-BPXYCONS
                         0000000D             969+SC_THREADS_MAX_NP    EQU   13   Constant to query THREADS_MAX_NP @D5A   01-BPXYCONS
                         0000000E             970+SC_MMAP_MEM_MAX_NP   EQU   14   Constant to query MMAP_MEM_MAX_NP@DAA   01-BPXYCONS
                         0000000F             971+SC_TTY_GROUP         EQU   15   Constant to query TTY GROUP      @PEA   01-BPXYCONS
                         00000010             972+SC_PAGESIZE          EQU   16   Constant to query Page Size      @D2A   01-BPXYCONS
                         00000010             973+SC_PAGE_SIZE         EQU   16   Constant to query Page Size      @D2A   01-BPXYCONS
0                                             975+* wait function code                                             @DCA              
                         00000001             976+#WAIT3               EQU   1    wait3() function code            @DCA   01-BPXYCONS
                         00000002             977+#WAITID              EQU   2    waitid() function code           @DCA   01-BPXYCONS
0                                             979+* items from waitf()                                                               
                         00000001             980+WNOHANG              EQU   1    Wait, do not suspend execution          01-BPXYCONS
                         00000002             981+WUNTRACED            EQU   2    Wait, return status of stopped child    01-BPXYCONS
                         00000004             982+WCONTINUED           EQU   4    Wait, return status of continued child  01-BPXYCONS
                                              983+*                                                                @DCA              
                         00000008             984+WEXITED              EQU   8    Wait for process that have exited       01-BPXYCONS
                                              985+*                                                                @DCA              
                         00000010             986+WSTOPPED             EQU  16    Wait, return status of stopped child    01-BPXYCONS
                                              987+*                                                                @DCA              
                         00000020             988+WNOWAIT              EQU  32    Wait, return status of a child without  01-BPXYCONS
                                              989+*                               changing the state.  The child can be              
                                              990+*                               waited for again.                @DCA              
0                                             992+* waitid() id type options                                       @DCA              
                         00000000             993+P_PID                EQU   0    Wait for the child with a process ID    01-BPXYCONS
                                              994+*                                                                @DCA              
                         00000001             995+P_PGID               EQU   1    Wait for any child with a process       01-BPXYCONS
                                              996+*                               group ID                         @DCA              
                         00000002             997+P_ALL                EQU   2    Wait for any child               @DCA   01-BPXYCONS
1                                                                                                               Page   24            
   Active Usings: PARMS,R10  FTEE,R11  CEECAA,R12  CEEDSA,R13                                                                        
0D-Loc    Object Code      Addr1    Addr2    Stmt  Source Statement                          HLASM R6.0  2012/03/05 13.03            
0                                             999+* BPX1PTX Options                                                                  
                         00000000            1000+PTEXITTHREAD         EQU   0    Pthread exit                            01-BPXYCONS
                         00000001            1001+PTGETNEWTHREAD       EQU   1    Pthread get new                         01-BPXYCONS
                         00000002            1002+PTFAILIFLASTTHREAD   EQU   2    Pthread fail if last thread      @D4A   01-BPXYCONS
0                        00000001            1004+QUIESCE_TERM         EQU   1    Quiesce threads type = term      @D3A   01-BPXYCONS
                         00000002            1005+QUIESCE_FORCE        EQU   2    Quiesce threads type = force     @D3A   01-BPXYCONS
                         00000003            1006+QUIESCE_QUERY        EQU   3    Alias of pthread_query           @P4C   01-BPXYCONS
                         00000003            1007+PTHREAD_QUERY        EQU   3    Quiesce threads type = query     @P4A   01-BPXYCONS
                         00000004            1008+QUIESCE_FREEZE       EQU   4    Quiesce threads type = freeze    @D6A   01-BPXYCONS
                         00000005            1009+QUIESCE_UNFREEZE     EQU   5    Quiesce threads type = unfreeze  @D6A   01-BPXYCONS
                         00000006            1010+FREEZE_THIS_THREAD   EQU   6    Quiesce threads type = freezeme  @D6A   01-BPXYCONS
                                             1011+* Skip 7 because of collision with BPXZCONS Freeze_Force                           
                         00000008            1012+FREEZE_EXIT          EQU   8    Quiesce threads type = freeze_exit      01-BPXYCONS
                         00000009            1013+QUIESCE_SRB          EQU   9    Quiesce threads type = SRBs      @DGA   01-BPXYCONS
                                             1014+* Skip 10 and 11 due to collision with BPXZCONS Freeze/Unfreeze Fast               
                                             1015+*                                                                @P6A              
0                        00000000            1017+PTHREAD_INTR_ENABLE#       EQU 0  Cancel request type = enabled         01-BPXYCONS
                         00000001            1018+PTHREAD_INTR_DISABLE#      EQU 1  Cancel request type = disabled        01-BPXYCONS
                         00000000            1019+PTHREAD_INTR_CONTROLLED#   EQU 0  Cancel request type = controlled      01-BPXYCONS
                         00000001            1020+PTHREAD_INTR_ASYNCHRONOUS# EQU 1  Cancel request type = Asynchronous    01-BPXYCONS
0                        00000000            1022+STDIN_FILENO         EQU   0    Standard input value, file descriptor   01-BPXYCONS
                         00000001            1023+STDOUT_FILENO        EQU   1    Standard output value, file descriptor  01-BPXYCONS
                         00000002            1024+STDERR_FILENO        EQU   2    Standard error value, file descriptor   01-BPXYCONS
0                        00000000            1026+DUBTHREAD            EQU   0    Dub a thread default setting     @L1A   01-BPXYCONS
                         00000001            1027+DUBPROCESS           EQU   1    Dub a process default setting    @L1A   01-BPXYCONS
                         00000002            1028+DUBTASKACEE          EQU   2    Dub a task ACEE setting          @02A   01-BPXYCONS
                         00000004            1029+DUBPROCESSDEFER      EQU   4    Dub a process - but defer dub    @04A   01-BPXYCONS
                         00000008            1030+DUBNOSIGNALS         EQU   8    Dub a process - no signals       @DWA   01-BPXYCONS
                         00000010            1031+DUBJOBPERM           EQU   16   Dub as a permanent Job           @DYA   01-BPXYCONS
                         00000020            1032+DUBNOJSTUNDUB        EQU   32   Dub process such that jobstep does not  01-BPXYCONS
                                             1033+*                                                                @DYA              
                         00000040            1034+DUBABENDCALLS        EQU   64   Dub process such that system calls      01-BPXYCONS
                                             1035+*                               abend during a shutdown/restart window             
                                             1036+*                                                                @DYA              
                         00000080            1037+DUBUNIQUEACEE        EQU   128                                   @07A   01-BPXYCONS
                         00000100            1038+DUBFAILNOTREADY      EQU   256  Fail dub if kernel is not up     @F1A   01-BPXYCONS
0                        00000001            1040+STL_MAX_TASKS        EQU   1    Replace MaxThreadTask only       @D7A   01-BPXYCONS
                         00000002            1041+STL_MAX_THREADS      EQU   2    Replace MaxThreads only          @D7A   01-BPXYCONS
                         00000003            1042+STL_SET_BOTH         EQU   3    Replace both limits              @D7A   01-BPXYCONS
0                        00000014            1044+NICE_ZERO            EQU   20   Default Process Scheduling Priority     01-BPXYCONS
0                        00000001            1046+PRIO_PROCESS         EQU   1    Looking for a specific process ID       01-BPXYCONS
                         00000002            1047+PRIO_PGRP            EQU   2    Looking for processes in a process grp  01-BPXYCONS
                         00000003            1048+PRIO_USER            EQU   3    Looking for processes for a user ID     01-BPXYCONS
0                        00000001            1050+CPRIO_ABSOLUTE       EQU   1    Priority value is an absolute value     01-BPXYCONS
                         00000002            1051+CPRIO_RELATIVE       EQU   2    Priority value is a relative value      01-BPXYCONS
0                                            1053+*   Define equates for memory map                                                  
1                                                                                                               Page   25            
   Active Usings: PARMS,R10  FTEE,R11  CEECAA,R12  CEEDSA,R13                                                                        
0D-Loc    Object Code      Addr1    Addr2    Stmt  Source Statement                          HLASM R6.0  2012/03/05 13.03            
0                        00000001            1054+PROT_READ            EQU   1    Mapped data can be read          @DAA   01-BPXYCONS
                         00000002            1055+PROT_WRITE           EQU   2    Mapped data can be written       @DAA   01-BPXYCONS
                         00000004            1056+PROT_NONE            EQU   4    Mapped data cannot be accessed   @DAA   01-BPXYCONS
                         00000008            1057+PROT_EXEC            EQU   8    Mapped data can be executed (treated    01-BPXYCONS
                                             1058+*                               as PROT_READ)                    @DAA              
0                        00000001            1060+MAP_PRIVATE          EQU   1    Changes to the mapped data are private  01-BPXYCONS
                         00000002            1061+MAP_SHARED           EQU   2    Changes to the mapped data are shared   01-BPXYCONS
                         00000004            1062+MAP_FIXED            EQU   4    Interpret map address exactly    @DAA   01-BPXYCONS
                         00000008            1063+MAP_MEGA             EQU   8    Use megabyte allocations         @D4A   01-BPXYCONS
0                        00000001            1065+MS_SYNC              EQU   1    Performs synchronous writes      @DAA   01-BPXYCONS
                         00000002            1066+MS_ASYNC             EQU   2    Performs asynchronous writes     @DAA   01-BPXYCONS
                         00000004            1067+MS_INVALIDATE        EQU   4    Invalidate the cached memory mapped     01-BPXYCONS
                                             1068+*                               pages                            @DAA              
0                                            1070+*   Define equates for spawn                                   @D9A                
                         FFFFFFFF            1071+SPAWN_FDCLOSED       EQU  -1    Do not inherit this file desc  @D9A     01-BPXYCONS
0                        00000004            1073+RLIMIT_CORE          EQU   4    Limit size of core dump          @DBA   01-BPXYCONS
                         00000000            1074+RLIMIT_CPU           EQU   0    Limit CPU time per process       @DBA   01-BPXYCONS
                         00000001            1075+RLIMIT_FSIZE         EQU   1    Limit file size                  @DBA   01-BPXYCONS
                         00000006            1076+RLIMIT_NOFILE        EQU   6    Limit number of open files       @DBA   01-BPXYCONS
                         00000005            1077+RLIMIT_AS            EQU   5    Limit address space size         @DBA   01-BPXYCONS
                         00000007            1078+RLIMIT_MEMLIMIT      EQU   7    Limit storage above the bar      @E0A   01-BPXYCONS
0                        7FFFFFFF            1080+RLIM_INFINITY        EQU   2147483647 No limit value             @DBA   01-BPXYCONS
0                        00000000            1082+RUSAGE_SELF          EQU   0    Rusage for current process       @DBA   01-BPXYCONS
                         FFFFFFFF            1083+RUSAGE_CHILDREN      EQU  -1    Rusage for terminated children   @DBA   01-BPXYCONS
0                                            1085+*   Define equates for querydub output status                                      
                         00000001            1086+QDB_DUBBED_FIRST     EQU   1    Task has already been dubbed.           01-BPXYCONS
                                             1087+*                               This task and this RB caused the                   
                                             1088+*                               dub.                             @DCA              
                         00000002            1089+QDB_DUBBED           EQU   2    Task has already been dubbed.           01-BPXYCONS
                                             1090+*                               Other task or other RB caused                      
                                             1091+*                               the dub                          @DCA              
                         00000004            1092+QDB_DUB_MAY_FAIL     EQU   4    Task has not been dubbed, but may       01-BPXYCONS
                                             1093+*                               fail if attempted.  Most likely                    
                                             1094+*                               reason for failure will be a missing               
                                             1095+*                               or incomplete user security profile,               
                                             1096+*                               or OMVS segment not defined      @DCA              
                         00000008            1097+QDB_DUB_OKAY         EQU   8    Task has not been dubbed, and should    01-BPXYCONS
                                             1098+*                               succeed if attempted             @DCA              
                         00000010            1099+QDB_DUB_AS_PROCESS   EQU   16   Task has not been dubbed, but its       01-BPXYCONS
                                             1100+*                               address space has. New task will dub               
                                             1101+*                               as another process within the address              
                                             1102+*                               space                            @DCA              
                         00000020            1103+QDB_DUB_AS_THREAD    EQU   32   Task has not been dubbed, but its       01-BPXYCONS
                                             1104+*                               address space has. New task will dub as            
                                             1105+*                               a thread within the process      @DCA              
0                                            1107+*   Define equates for oe_env_np syscall function codes                            
                         00000001            1108+ENQWAIT_PROCESS      EQU   1    Examine/Change ENQ wait interruption    01-BPXYCONS
1                                                                                                               Page   26            
   Active Usings: PARMS,R10  FTEE,R11  CEECAA,R12  CEEDSA,R13                                                                        
0D-Loc    Object Code      Addr1    Addr2    Stmt  Source Statement                          HLASM R6.0  2012/03/05 13.03            
0                                            1109+*                               state                            @P6A              
                         00000002            1110+FREEZE_EXIT_REG      EQU   2    Register/deregister an exit             01-BPXYCONS
                                             1111+*                               for pthread_quiesce(freeze_exit) @P6A              
                         00000003            1112+MVS_USERID           EQU   3    Retrieve MVS userid of invoker   @P7A   01-BPXYCONS
                         00000004            1113+ENV_TOGGLE_SEC       EQU   4    Toggle btw task/process security @P7A   01-BPXYCONS
                         00000005            1114+DFP_CLEANUP_EXIT_REG EQU   5    Register DFP Close cleanup exit  @01A   01-BPXYCONS
                         00000006            1115+BPXK_PARAMETER       EQU   6    Env Vars to Kernel               @P9A   01-BPXYCONS
                         00000007            1116+ENV_STOR_SERVICE     EQU   7    Swappable or Non-Swappable              01-BPXYCONS
                                             1117+*                               address space                    @DJA              
                         00000008            1118+QUICK_FREEZE_EXIT_REG EQU  8    Register/deregister an exit for         01-BPXYCONS
                                             1119+*                               fast pthread_quiesce_and_get     @DUA              
                         00000009            1120+SHUTDOWN_REG         EQU  9     Register/block for shutdown             01-BPXYCONS
                                             1121+*                               processing                       @DXA              
                         0000000A            1122+WRITE_DOWN           EQU  10    Query/Alter write_down state of an      01-BPXYCONS
                                             1123+*                               ACEE (MLS support)               @E5A              
                         0000000B            1124+PIDXFER_QUERY        EQU  11    Query if process image is a result of   01-BPXYCONS
                                             1125+*                               a PIDXFER                        @DXA              
                         0000000C            1126+QUERY_MODE           EQU  12    Query AMODE/RMODE/AMODE capability of   01-BPXYCONS
                                             1127+*                               target proess                    @E1A              
                         0000000D            1128+MUST_STAY_CLEAN      EQU  13    ENABLE/QUERY Must Stay Clean state of   01-BPXYCONS
                                             1129+*                               the invoking process             @E9A              
0                                            1131+*   Define equates for possible options of ENV_STOR_SERVICE                        
                                             1132+*   For future additions, make equates multiples of 2                              
                                             1133+*                                                               4@PED              
                         00000001            1134+BPX_SWAP         EQU   1    Make the address space swappable     @PEC   01-BPXYCONS
                         00000002            1135+BPX_NONSWAP      EQU   2    Make the address space non-swappable        01-BPXYCONS
                                             1136+*                                                                @PEC              
0                                            1138+*                                                                @E9A              
                                             1139+*   Define equates for possible options of MUST_STAY_CLEAN       @E9A              
                                             1140+* @E9A                                                                             
                         00000000            1141+MSC_QUERY        EQU   0    Query current Must Stay Clean state  @E9A   01-BPXYCONS
                         00000001            1142+MSC_ENABLE       EQU   1    Enable Must Stay Clean state         @E9A   01-BPXYCONS
                                             1143+*                                                                @E9A              
                                             1144+*   Define possible output for MSC_QUERY option                  @E9A              
                                             1145+* @E9A                                                                             
                         00000000            1146+MSC_DISABLED     EQU   0     Query result: disabled              @E9A   01-BPXYCONS
                         00000001            1147+MSC_ENABLED      EQU   1     Query result: enabled even accoss Job      01-BPXYCONS
                                             1148+*                            Step termination                    @E9A              
                         00000002            1149+MSC_ENABLED_COND EQU   2     Query result: enabled conditionally,       01-BPXYCONS
                                             1150+*                            Job Step termination will disable   @E9A              
                                             1151+*                                                                                  
                                             1152+*   Define equates for all possible options for WRITE_DOWN function                
                                             1153+*   code of BPX1ENV                                                                
                                             1154+*                                                                                  
                         00000000            1155+WD_OUERY         EQU   0     Query write_down                    @E5A   01-BPXYCONS
                         00000001            1156+WD_ACTIVATE      EQU   1     Activate write_down                 @E5A   01-BPXYCONS
                         00000002            1157+WD_INACTIVATE    EQU   2     Inactivate write_down               @E5A   01-BPXYCONS
                         00000003            1158+WD_RESET         EQU   3     Reset write_down to default         @E5A   01-BPXYCONS
                                             1159+*                                                                                  
                         00000001            1160+WD_SCOPE_AS      EQU   1     Target ACEE is AS                   @E5A   01-BPXYCONS
                         00000002            1161+WD_SCOPE_THD     EQU   2     Target ACEE is task                 @E5A   01-BPXYCONS
                                             1162+*                                                                                  
                         00000001            1163+WD_IS_ACTIVE     EQU   1     Query result: active                @E5A   01-BPXYCONS
1                                                                                                               Page   27            
   Active Usings: PARMS,R10  FTEE,R11  CEECAA,R12  CEEDSA,R13                                                                        
0D-Loc    Object Code      Addr1    Addr2    Stmt  Source Statement                          HLASM R6.0  2012/03/05 13.03            
0                        00000000            1164+WD_IS_INACTIVE   EQU   0     Query result: inactive              @E5A   01-BPXYCONS
                                             1165+*                                                                                  
                                             1166+*   Define equates for QUERY_MODE return values                  @E1A              
                                             1167+*                                                                @E1A              
                         00000001            1168+BIT24_MODE           EQU   1    24 bit AMODE, RMODE or AMODE cap.@E1A   01-BPXYCONS
                         00000002            1169+BIT31_MODE           EQU   2    31 bit AMODE, RMODE or AMODE cap.@E1A   01-BPXYCONS
                         00000003            1170+BIT64_MODE           EQU   3    64 bit AMODE, RMODE or AMODE cap.@E1A   01-BPXYCONS
                         00000004            1171+AMODE_INITIALIZING   EQU   4    AMODE for process not known yet  @PNA   01-BPXYCONS
0                                            1173+*   Define equates for possible options of ENV_SHUTDOWN_REG                        
                                             1174+*                                                                @DYA              
                         00000001            1175+ENV_REGISTERBLOCK     EQU  1   Register to Block Shutdown        @DYA   01-BPXYCONS
                         00000002            1176+ENV_REGISTERPERMP     EQU  2   Register as a Permanent job/proc  @DYA   01-BPXYCONS
                         00000003            1177+ENV_DEREGISTERBLOCK   EQU  3   Dereg as a blocking job/proc      @DYA   01-BPXYCONS
                         00000004            1178+ENV_DEREGISTERPERM    EQU  4   Dereg as a permanent job/proc     @DYA   01-BPXYCONS
                         00000005            1179+ENV_REGISTERNOTIFY    EQU  5   Register as a notify job/proc     @DYA   01-BPXYCONS
                         00000006            1180+ENV_DEREGISTERNOTIFY  EQU  6   Dereg as a notify job/proc        @DYA   01-BPXYCONS
                         00000001            1181+ENV_REGISTERJOB       EQU  1   Register Job                      @DYA   01-BPXYCONS
                         00000002            1182+ENV_REGISTERPROC      EQU  2   Register Process                  @DYA   01-BPXYCONS
                                             1183+*                                                                @DYA              
0                                            1185+*   Define equates for PIDXFER_QUERY return values               @DXA              
                                             1186+*                                                                @DXA              
                         00000001            1187+PIDXFER_YES          EQU   1    Process was PIDXFERed            @DXA   01-BPXYCONS
                         00000002            1188+PIDXFER_NO           EQU   2    Process was not PIDXFERed        @DXC   01-BPXYCONS
0                                            1190+*   Define equates for versions of OSMF on BPXESMF syscall                         
                         00000001            1191+OSMF_VER_HOM1110     EQU   1    Version 1 of OSMF, for HOM1110   @P5A   01-BPXYCONS
                         00000002            1192+OSMF_VER_HOM1120     EQU   2    Version 2 of OSMF, for HOM1120   @P5A   01-BPXYCONS
                         00000003            1193+OSMF_VER_HOM1130     EQU   3    Version 3 of OSMF, for HOM1130   @P5A   01-BPXYCONS
0                                            1195+*   Define equates for task ecurity syscall function codes                         
                         00000001            1196+TLS_CREATE_THREAD_SEC# EQU 1    Build Task Security              @P7A   01-BPXYCONS
                         00000002            1197+TLS_DELETE_THREAD_SEC# EQU 2    Delete Task Security             @P7A   01-BPXYCONS
                         00000003            1198+TLS_TASK_ACEE#         EQU 3    set posix identity from task ACEE@DYA   01-BPXYCONS
                         00000004            1199+TLS_TASK_ACEE_USP#     EQU 4    User passed ACEE/USP pair        @E6A   01-BPXYCONS
                         00000005            1200+TLS_DAEMON_THREAD_SEC# EQU 5    Build unauthenticated Security   @E8A   01-BPXYCONS
                         00000001            1201+TLS_IDENTITY_USERID#   EQU 1    User identity: 1-8 char userid   @P7A   01-BPXYCONS
                         00000002            1202+TLS_IDENTITY_UID#      EQU 2    User identity: 4-byte uid        @P7A   01-BPXYCONS
                         00000004            1203+TLS_IDENTITY_CERT#     EQU 4    User identity: CERT structure    @PFA   01-BPXYCONS
0                                            1205+*   Define equates for __Security syscall                                          
                                             1206+*   __Security function code                                                       
                         00000001            1207+SECURITY_CREATE#       EQU 1    Create new security environment  @DKA   01-BPXYCONS
                         00000002            1208+SECURITY_CERTREG#      EQU 2    Register certificate with caller @DOA   01-BPXYCONS
                         00000003            1209+SECURITY_CERTDEREG#    EQU 3    DeReg certificate from caller    @DOA   01-BPXYCONS
                         00000004            1210+SECURITY_CERTAUTH#     EQU 4    Authorize certificate from caller@E3A   01-BPXYCONS
                                             1211+*   __Security user identity                                                       
                         00000001            1212+SECURITY_USERID#       EQU 1    User identity is 1-8 char userid @DKA   01-BPXYCONS
                         00000002            1213+SECURITY_CERTIFICATE#  EQU 2    User identity is a certificate   @DKA   01-BPXYCONS
0                                            1215+*   Define equates for convert_id_np (BPX1CID) syscall function codes              
                         00000001            1216+CID_GET_UUID#          EQU 1    Retrieve UUID                    @P8A   01-BPXYCONS
                         00000002            1217+CID_GET_USERID#        EQU 2    Retrieve userid                  @P8A   01-BPXYCONS
1                                                                                                               Page   28            
   Active Usings: PARMS,R10  FTEE,R11  CEECAA,R12  CEEDSA,R13                                                                        
0D-Loc    Object Code      Addr1    Addr2    Stmt  Source Statement                          HLASM R6.0  2012/03/05 13.03            
0                                            1219+*   Define equates for __pid_affinity (BPX1PAF) syscall function codes             
                         00000001            1220+PAF_ADD_PID#           EQU 1    Add PID to affinity list         @DMA   01-BPXYCONS
                         00000002            1221+PAF_DELETE_PID#        EQU 2    Delete PID from affinity list    @DMA   01-BPXYCONS
0                                            1223+* Define equates for auth_check_resource_np  syscall access types                  
                         00000001            1224+ACK_READ#              EQU 1    Test READ access                 @P8A   01-BPXYCONS
                         00000002            1225+ACK_UPDATE#            EQU 2    Test UPDATE access               @P8A   01-BPXYCONS
                         00000003            1226+ACK_CONTROL#           EQU 3    Test CONTROL access              @P8A   01-BPXYCONS
                         00000004            1227+ACK_ALTER#             EQU 4    Test ALTER access                @P8A   01-BPXYCONS
0                                            1229+*   The high order two bytes of the reason codes returned by                       
                                             1230+*   OpenMVS services contains a value that is used to qualify                      
                                             1231+*   the contents of the low order two bytes. If the contents of                    
                                             1232+*   the high-order two bytes are within the range of #CMID_LO to                   
                                             1233+*   #CMID_HI, the error represented by the reason code is defined                  
                                             1234+*   by OpenMVS. If the contents of the high order two bytes lie                    
                                             1235+*   outside the range, the error represented by the reason code                    
                                             1236+*   is not an OpenMVS reason code.                                                 
                         00000000            1237+#CMID_LOW            EQU   0000   Low range                             01-BPXYCONS
                         000020FF            1238+#CMID_HI             EQU   8447   High range                            01-BPXYCONS
                                             1239+*   Define equates for console cmd                                                 
                         000045BA            1240+CC_MAX_MSG_LENGTH       EQU 17850 Max Wto string length for SUs   @DIC  01-BPXYCONS
                         00004574            1241+CC_MAX_MSG_LENGTH_NONSU EQU 17780 Max Wto string length for nonSU @DIC  01-BPXYCONS
                         00000080            1242+CC_MODIFY_BUFFER_LENGTH EQU 128  Length of Modify Buffer          @PAC  01-BPXYCONS
                         00000001            1243+CONSOLE_MODIFY          EQU   1  Service interrupted by Modify    @PAC  01-BPXYCONS
                         00000002            1244+CONSOLE_STOP            EQU   2  Service interrupted by Stop      @PAC  01-BPXYCONS
                                             1245+*   Define equates for server_init syscall ManagerType parameter                   
                         00000001            1246+SRV_WORKMGR             EQU   1  Work Manager services requested  @DGA  01-BPXYCONS
                         00000002            1247+SRV_QUEUEMGR            EQU   2  Queue Mgr services requested     @DGA  01-BPXYCONS
                         00000004            1248+SRV_SERVERMGR           EQU   4  Server Mgr services requested    @DGA  01-BPXYCONS
                         00000008            1249+SRV_SERVERMGRDYNAMIC    EQU   8  Server Mgr With Dynamic mngt     @DSA  01-BPXYCONS
                                             1250+*   Define equates for server_pwu syscall FcnCode parameter                        
                         00000001            1251+SRV_PUT_NEWWRK          EQU   1  Put new work function requested  @DGA  01-BPXYCONS
                         00000002            1252+SRV_PUT_SUBWRK          EQU   2  Put sub work function requested  @DGA  01-BPXYCONS
                         00000004            1253+SRV_TRANSFER_WRK        EQU   4  Transfer work function requested @DGA  01-BPXYCONS
                         00000008            1254+SRV_GET_WRK             EQU   8  Get work function requested      @DGA  01-BPXYCONS
                         00000010            1255+SRV_REFRESH_WRK         EQU  16  Refresh work fcn requested       @DGA  01-BPXYCONS
                         00000020            1256+SRV_END_WRK             EQU  32  End work function requested      @DGA  01-BPXYCONS
                         00000040            1257+SRV_DEL_ENC             EQU  64  Delete Enclave Fcn requested     @DGA  01-BPXYCONS
                         00000080            1258+SRV_DISCONNECT          EQU 128  Disconnect from WLM              @PBA  01-BPXYCONS
                         00000100            1259+SRV_DISCONNECT_COND     EQU 256  Disconnect conditional from WLM  @PCA  01-BPXYCONS
                                             1260+*                       EQU 512  Reserved for internal use        @PGA             
                                             1261+*                                See BPXZCONS                     @PGA             
                                             1262+*   Define equates for BPX1SLK syscall LockFcnCode parameter                       
                         00000001            1263+SLK_OBTAIN              EQU   1  Obtain function request          @DZA  01-BPXYCONS
                         00000002            1264+SLK_OBTAIN_COND         EQU   2  Obtain conditional function req  @DZA  01-BPXYCONS
                         00000004            1265+SLK_INIT                EQU   4  Initialization function request  @DZA  01-BPXYCONS
                         00000008            1266+SLK_DESTROY             EQU   8  Destroy function request         @DZA  01-BPXYCONS
                         00000010            1267+SLK_RELEASE             EQU  16  Release function request         @DZA  01-BPXYCONS
                                             1268+*   Define equates for BPX1SLK syscall LockReqType parameter                       
                         00000001            1269+SLK_NORMAL              EQU   1  Normal request type              @DZA  01-BPXYCONS
                         00000002            1270+SLK_ERRORCHECK          EQU   2  Errorcheck request type          @DZA  01-BPXYCONS
                         00000004            1271+SLK_RECURSIVE           EQU   4  Recursive request type           @DZA  01-BPXYCONS
                                             1272+*   Define equates for BPX1SLK syscall LockType parameter                          
                         00000001            1273+SLK_EXCLUSIVE           EQU   1  Exclusive lock type              @DZA  01-BPXYCONS
1                                                                                                               Page   29            
   Active Usings: PARMS,R10  FTEE,R11  CEECAA,R12  CEEDSA,R13                                                                        
0D-Loc    Object Code      Addr1    Addr2    Stmt  Source Statement                          HLASM R6.0  2012/03/05 13.03            
0                        00000002            1274+SLK_SHARED              EQU   2  Shared lock type                 @DZA  01-BPXYCONS
                                             1275+*                                                                                  
                                             1276+* Constants for BPX1PCT pfsctl                                                     
                                             1277+*                                                                                  
                                             1278+*  Constants for BPXVRCAC - LFS Cache                             @DHA             
                         80000007            1279+PC#ADDFILE              EQU X'80000007' Filecache cmd '80000007'x @PDC  01-BPXYCONS
                         80000008            1280+PC#DELETEFILE           EQU X'80000008' Filecache cmd '80000008'x @PDC  01-BPXYCONS
                         8000000A            1281+PC#PURGECACHE           EQU X'8000000A' Filecache cmd '8000000A'x @PDC  01-BPXYCONS
                         80000009            1282+PC#REFRESHCACHE         EQU X'80000009' Filecache cmd '80000009'x @PDC  01-BPXYCONS
                         8000000B            1283+PC#SHUTDOWNFILESYS      EQU X'8000000B' Soft Shutdown '8000000B'x @DVA  01-BPXYCONS
                         8000000C            1284+PC#PfsRecycle           EQU X'8000000C' Shutdown PFS for recycle        01-BPXYCONS
                         8000000D            1285+PC#PfsRestart           EQU X'8000000D' Restart the PFS                 01-BPXYCONS
                                             1286+*                                                                                  
                         C0000006            1287+PC#SETIBMASYIO          EQU X'C0000006' SetIbm AsyncIO 'C0000006'x@PDC  01-BPXYCONS
                         C0000005            1288+PC#SETIBMOPTCMD         EQU X'C0000005' SetIBMOpt TCP  'C0000005'x@PDC  01-BPXYCONS
                         C000000B            1289+PC#ERRORTEXT            EQU X'C000000B' Get error text 'C000000B'x@DNA  01-BPXYCONS
                                             1290+*                                                     -1073741813 @DNA             
                         C000000E            1291+PC#SYSNAMES             EQU X'C000000E' Get sysnames   'C000000C'x@PxA  01-BPXYCONS
                         C000000F            1292+PC#TDNAMES              EQU X'C000000F' GET CINET TDNAMES         @03A  01-BPXYCONS
                         C0000010            1293+PC#HFSSTATS             EQU X'C0000010' GET HFS Stats             @PKA  01-BPXYCONS
                         C0000011            1294+PC#BRLMSRVR             EQU X'C0000011' GET brlm server name      @PKA  01-BPXYCONS
                         80000012            1295+PC#SFSDIAG              EQU X'80000012' Shared-FS Diagnose        @DTA  01-BPXYCONS
                         C0000013            1296+PC#USERSIGNAL           EQU X'C0000013' Set Lost Locks Signal(@05)@06A  01-BPXYCONS
                         C0000014            1297+PC#DIRGETHOST           EQU X'C0000014' Directed GetHost          @06A  01-BPXYCONS
                         C0000015            1298+PC#SHUTTINGDOWNFS       EQU X'C0000015' File system shutdown      @E7A  01-BPXYCONS
                         C0000016            1299+PC#RECYCLEDONE          EQU X'C0000016' recycle is complete       @EDA  01-BPXYCONS
                                             1300+*  PC#GetVnodeToken - Allocate Vde & insert an open                                
                         80000017            1301+PC#GETVNODETOKEN        EQU X'80000017'                           @F2A  01-BPXYCONS
                                             1302+*         inet6_is_srcaddr() function                             @F3A             
                         C0000018            1303+PC#ISSRCADDR            EQU X'C0000018' inet6_is_srcaddr          @F3A  01-BPXYCONS
                                             1304+*  PC#ErrorText Subfunctions   - Request type:                                     
                         00000000            1305+PC#ETDESC               EQU X'0000'     Get description text      @DNA  01-BPXYCONS
                         00000001            1306+PC#ETACTION             EQU X'0001'     Get action text           @DNA  01-BPXYCONS
                         00000002            1307+PC#ETMODNAME            EQU X'0002'     Get module name           @DNA  01-BPXYCONS
                                             1308+*  PC#ErrorText Error code type                                                    
                         00000000            1309+PC#ETREASON             EQU X'0000'     Reason code input         @DNA  01-BPXYCONS
                         00000001            1310+PC#ETERRNO              EQU X'0001'     Errno code input          @DNA  01-BPXYCONS
                                             1311+*  PC#ShuttingDownFS args                                                          
                         00000001            1312+PC#TYPEFILESYS          EQU X'00000001' shutdown=filesys          @E7A  01-BPXYCONS
                         00000002            1313+PC#TYPEFILEOWNER        EQU X'00000002' shutdown=fileowner        @E7A  01-BPXYCONS
                         00000003            1314+PC#TYPEOMVS             EQU X'00000003' omvs shutdown             @E7A  01-BPXYCONS
                                             1315+*                                                                                  
                                             1316+* Constants for BPX1LOD  - HFS load - options                     @EFC             
                                             1317+*                                                                                  
                         80000000            1318+LOD_ERROR_ST_EXLINK     EQU X'80000000'  Error if sticky/ext lnk  @DRA  01-BPXYCONS
                         40000000            1319+LOD_IGNORE_STICKY       EQU X'40000000'  Skip sticky check        @DRA  01-BPXYCONS
                                             1320+*                                                                                  
                                             1321+*                                                                                  
                                             1322+* Constants for BPX1LDX  - extended HFS load - options            @EFC             
                                             1323+*                          and directed load returned parameters                   
                                             1324+*                                                                                  
                         20000000            1325+LOD_DIRECTED            EQU X'20000000'  Directed loadhfs         @ECA  01-BPXYCONS
                                             1326+*                                                                                  
 00000000                00000000 00000018   1327+DIRECTEDLOADRETURNEDPARMS   DSECT ,                               @ECA  01-BPXYCONS
 00000000                                    1328+DIRECTEDLOADMODULELENGTH64  DS  FD Directed Load Mod Len AMODE64  @ECA  01-BPXYCONS
1                                                                                                               Page   30            
   Active Usings: PARMS,R10  FTEE,R11  CEECAA,R12  CEEDSA,R13                                                                        
0D-Loc    Object Code      Addr1    Addr2    Stmt  Source Statement                          HLASM R6.0  2012/03/05 13.03            
000000008                00000008 00000000   1329+                            ORG DIRECTEDLOADMODULELENGTH64        @ECA  01-BPXYCONS
 00000000                                    1330+                            DS  F                                 @ECA  01-BPXYCONS
 00000004                                    1331+DIRECTEDLOADMODULELENGTH    DS  F  Directed Load Mod Len AMODE31  @ECA  01-BPXYCONS
                                             1332+*                                                                                  
 00000008                                    1333+DIRECTEDLOADMODULESTART64   DS  AD Directed Load Mod Start AMODE64@ECA  01-BPXYCONS
 00000010                00000010 00000008   1334+                            ORG DIRECTEDLOADMODULESTART64         @ECA  01-BPXYCONS
 00000008                                    1335+                            DS  F                                 @ECA  01-BPXYCONS
 0000000C                                    1336+DIRECTEDLOADMODULESTART     DS  A  Directed Load Mod Start AMODE31@ECA  01-BPXYCONS
                                             1337+*                                                                                  
 00000010                                    1338+DIRECTEDLOADMODULEENTRYPT64 DS  AD Directed Load Mod Entry AMODE64@ECA  01-BPXYCONS
 00000018                00000018 00000010   1339+                            ORG DIRECTEDLOADMODULEENTRYPT64       @ECA  01-BPXYCONS
 00000010                                    1340+                            DS  F                                 @ECA  01-BPXYCONS
 00000014                                    1341+DIRECTEDLOADMODULEENTRYPT   DS  A  Directed Load Mod Entry AMODE31@ECA  01-BPXYCONS
                                             1342+*                                                                                  
                                             1343+* Constants for BPX1DSD                                           @DPA             
                                             1344+*                                                                                  
                         00000001            1345+SW_SIGDLV_ENABLE#       EQU 1                                     @DPA  01-BPXYCONS
                         00000002            1346+SW_SIGDLV_DISABLE#      EQU 2                                     @DPA  01-BPXYCONS
                                             1347+*                                                                                  
                                             1348+*   Define equates for BPX1OSE syscall function_code parameter                     
                         00000001            1349+OSENV_GET               EQU   1  get function                     @DQA  01-BPXYCONS
                         00000002            1350+OSENV_SET               EQU   2  set function                     @DQA  01-BPXYCONS
                         00000004            1351+OSENV_UNSET             EQU   4  unset function                   @DQA  01-BPXYCONS
                         00000008            1352+OSENV_PERSIST           EQU   8  persist function                 @DQA  01-BPXYCONS
                         00000010            1353+OSENV_UNPERSIST         EQU   16 unpersist function               @DQA  01-BPXYCONS
                                             1354+*   Define equates for BPX1OSE syscall Request_Flags parameter                     
                         00000001            1355+OSENV_WLM               EQU   1  WLM Enclave membership           @DQA  01-BPXYCONS
                         00000002            1356+OSENV_SECURITY          EQU   2  pthread security environment     @DQA  01-BPXYCONS
                                             1357+*                                                                                  
                                             1358+*   Define equates for BPX1PQG syscall RequestType parameter                       
                         00000002            1359+THDQ_FREEZE             EQU   2  Freezes the threads identified in      01-BPXYCONS
                                             1360+*                                the THDQ Data List array (BPXYTHDQ)               
                                             1361+*                                                                 @DUA             
                         00000008            1362+THDQ_UNFREEZE_ALL       EQU   8  Unfreezes all threads that are frozen  01-BPXYCONS
                                             1363+*                                in the caller process            @DUA             
                         00000001            1364+THDQ_GET_STATE          EQU   1  Retrieves the state data for the       01-BPXYCONS
                                             1365+*                                threads identified in the THDQ data               
                                             1366+*                                list array or for all threads.                    
                                             1367+*                                This value can only be specified with             
                                             1368+*                                THDQ_FREEZE                      @DUA             
                                             1369+*                                                                                  
                                             1370+** BPXYCONS End                                                                    
-                                                                                                                                    
                                             1372          BPXYIOV                                                                   
                                             1373+** BPXYIOV: Socket I/O Vectors                                                     
                                             1374+**  Used By: FCT OPN                                                               
 00000000                00000000 00000008   1375+IOV                  DSECT ,                                            01-BPXYIOV 
 00000000                                    1376+IOV_ENTRY            DS    0F     Array Entry                           01-BPXYIOV 
                                             1377+*  -------------------------- 31-bit format                                        
 00000000                                    1378+IOV_BASE             DS    A      Address of buffer                     01-BPXYIOV 
 00000004                                    1379+IOV_LEN              DS    F      Length of buffer                      01-BPXYIOV 
0                        00000008            1381+IOV#LENGTH          EQU   *-IOV_ENTRY Length of this structure          01-BPXYIOV 
1                                                                                                               Page   31            
   Active Usings: PARMS,R10  FTEE,R11  CEECAA,R12  CEEDSA,R13                                                                        
0D-Loc    Object Code      Addr1    Addr2    Stmt  Source Statement                          HLASM R6.0  2012/03/05 13.03            
0                        00000078            1382+IOV_MAX             EQU   120     Maximum number of entries     @P1A    01-BPXYIOV 
                                             1383+** BPXYIOV End                                                                     
-                                                                                                                                    
                                             1385          CEECAA                                                                    
                                             1386+***********************************************************************            
                                             1387+*  C O M M O N   A N C H O R   A R E A   ( C A A )                    *            
                                             1388+***********************************************************************            
                                             1389+*                                                                                  
                                             1390+         CEEDNUT  ,                                                     01-CEECAA  
                                             1391+***********************************************************************            
                                             1392+***********************************************************************            
                                             1393+*                                                                                  
 00000000                00000000 000003F8   1394+CEECAA   DSECT    ,                 CAA mapping                         01-CEECAA  
 00000000                                    1395+CEECAAFLAG0 DS    X                 CAA Flags                           01-CEECAA  
                         00000002            1396+CEECAAXHDL  EQU   X'02'              Bypass exception handling          01-CEECAA  
                                             1397+*           EQU   X'FD'              Reserved                                      
 00000001                                    1398+            DS    X                 Reserved                            01-CEECAA  
                         00000020            1399+CEECAADBGINIT EQU X'20'              Debugger is initialized            01-CEECAA  
 00000002                                    1400+CEECAALANGP DS    X                 PL/I compatibility flags            01-CEECAA  
                         00000008            1401+CEECAATHFN  EQU   X'08'              If set, NO PL/I FINISH             01-CEECAA  
                                             1402+*                                    on-unit active                                
                                             1403+*           EQU   X'F7'               Reserved                                     
 00000003                                    1404+            DS    XL5               Reserved                            01-CEECAA  
 00000008                                    1405+CEECAABOS   DS    A                 Start of current storage segment    01-CEECAA  
 0000000C                                    1406+CEECAAEOS   DS    A                 End of current storage segment      01-CEECAA  
 00000010                                    1407+            DS    XL52              Reserved                            01-CEECAA  
 00000044                                    1408+CEECAATORC  DS    F                 Thread level return code            01-CEECAA  
 00000048                                    1409+            DS    XL44              Reserved                 @CM0419C   01-CEECAA  
 00000074                                    1410+CEECAATOVF  DS    A                 Stack overflow routine   @CM0419A   01-CEECAA  
 00000078                                    1411+            DS    XL168             Reserved                 @CM0419A   01-CEECAA  
 00000120                                    1412+CEECAAATTN  DS    A                 Addr of LE/370 attention handler    01-CEECAA  
                                             1413+*                                                                                  
 00000124                                    1414+            DS    XL56              Reserved                            01-CEECAA  
 0000015C                                    1415+CEECAAHLLEXIT DS  A                 Set by CEEBINT for user hook exit   01-CEECAA  
 00000160                                    1416+            DS    XL56              Reserved                            01-CEECAA  
 00000198                                    1417+CEECAAHOOK  DS    XL12              Code to pass control                01-CEECAA  
 000001A4                                    1418+CEECAADIMA  DS    A                 A(debugger entry)                   01-CEECAA  
                                             1419+*                                                                                  
 000001A8                                    1420+CEECAAHOOKS DS    0CL68             Hook control words for debugger@G3C 01-CEECAA  
 000001A8                                    1421+CEECAAALLOC DS    XL4               ALLOCATE descr. built               01-CEECAA  
 000001AC                                    1422+CEECAASTATE DS    XL4               New statement begins                01-CEECAA  
 000001B0                                    1423+CEECAAENTRY DS    XL4               Block entry                         01-CEECAA  
 000001B4                                    1424+CEECAAEXIT  DS    XL4               Block exit                          01-CEECAA  
 000001B8                                    1425+CEECAAMEXIT DS    XL4               Multiple block exit                 01-CEECAA  
 000001BC                                    1426+CEECAAPATHS DS    0CL32             PATH hooks                          01-CEECAA  
 000001BC                                    1427+CEECAALABEL DS    XL4               At a label constant                 01-CEECAA  
 000001C0                                    1428+CEECAABCALL DS    XL4               Before CALL                         01-CEECAA  
 000001C4                                    1429+CEECAAACALL DS    XL4               After CALL                          01-CEECAA  
 000001C8                                    1430+CEECAADO    DS    XL4               DO block starting                   01-CEECAA  
 000001CC                                    1431+CEECAAIFTRUE  DS   XL4              True part of IF                     01-CEECAA  
 000001D0                                    1432+CEECAAIFFALSE DS   XL4              False part of IF                    01-CEECAA  
 000001D4                                    1433+CEECAAWHEN    DS   XL4              WHEN group starting                 01-CEECAA  
 000001D8                                    1434+CEECAAOTHER   DS   XL4              OTHERWISE group                     01-CEECAA  
1                                                                                                               Page   32            
   Active Usings: PARMS,R10  FTEE,R11  CEECAA,R12  CEEDSA,R13                                                                        
0D-Loc    Object Code      Addr1    Addr2    Stmt  Source Statement                          HLASM R6.0  2012/03/05 13.03            
0000001DC                                    1435+CEECAACGOTO   DS   XL4              GOTO hook for C                     01-CEECAA  
 000001E0                                    1436+CEECAARSVDH1  DS   XL4              Reserved hook                       01-CEECAA  
 000001E4                                    1437+CEECAARSVDH2  DS   XL4              Reserved hook                       01-CEECAA  
 000001E8                                    1438+CEECAAMULTEVT DS   XL4              Multiple Event Hook            @G3C 01-CEECAA  
                                             1439+*                                                                                  
 000001EC                                    1440+CEECAAMEVMASK DS   XL4              Multiple Event Hook Mask       @G3A 01-CEECAA  
 000001F0                                    1441+CEECAACGENE DS    A                 Reserved                            01-CEECAA  
 000001F4                                    1442+CEECAACRENT DS    A                 C/370 writable static               01-CEECAA  
 000001F8                                    1443+CEECAACFLTINIT DS XL8               Used to covert fixed to float       01-CEECAA  
 00000200                                    1444+CEECAACPRMS DS    A                 Parms passed to IBMLIIA             01-CEECAA  
 00000204                                    1445+CEECAAC_RTL          DS   0F        Combination of 24 unique C/370 @DJC 01-CEECAA  
                                             1446+*                                   trc types & 8 common trc types                 
 00000204                                    1447+CEECAAC_RTL_1        DS    X        C/370 RTL unique trace options @DJA 01-CEECAA  
                                             1448+*                                                                  @DJA            
 00000205                                    1449+CEECAAC_RTL_2        DS    X        C/370 RTL unique trace options @DJA 01-CEECAA  
                                             1450+*                                                                  @DJA            
 00000206                                    1451+CEECAAC_RTL_3        DS    X        C/370 RTL unique trace options @DJA 01-CEECAA  
                                             1452+*                    EQU   X'80'    Reserved                       @DJA            
                         00000040            1453+CEECAA_SIGNALS_L     EQU   X'40'    Low-level signals              @DJA 01-CEECAA  
                         00000020            1454+CEECAA_LOW_IO        EQU   X'20'    Low-level I/O                  @DJA 01-CEECAA  
                         00000010            1455+CEECAA_INITTERM_L    EQU   X'10'    Low-level init/term            @DJA 01-CEECAA  
                                             1456+*                    EQU   X'08'    Reserved                       @DJA            
                         00000004            1457+CEECAA_SIGNALS_H     EQU   X'04'    High-level signals             @DJA 01-CEECAA  
                         00000002            1458+CEECAA_HIGH_IO       EQU   X'02'    High-level I/O                 @DJA 01-CEECAA  
                         00000001            1459+CEECAA_INITTERM_H    EQU   X'01'    High-level init/term           @DJA 01-CEECAA  
                                             1460+*                                                                  @DJA            
 00000207                                    1461+CEECAAC_COMTRACE     DS    X        Common RTL trace options       @DJA 01-CEECAA  
                                             1462+*                    EQU   X'80'    Reserved                       @DJA            
                                             1463+*                    EQU   X'40'    Reserved                       @DJA            
                         00000020            1464+CEECAA_RTLXPLI       EQU   X'20'    RTL XPLINK trace               @DJA 01-CEECAA  
                         00000010            1465+CEECAA_RTLCICS       EQU   X'10'    RTL CICS   trace               @DJA 01-CEECAA  
                         00000008            1466+CEECAA_RTLALLOC      EQU   X'08'    RTL Alloc  trace               @DJA 01-CEECAA  
                         00000004            1467+CEECAA_RTLCOUNT      EQU   X'04'    RTL Function counting          @DJA 01-CEECAA  
                         00000002            1468+CEECAA_RTLLOCKS      EQU   X'02'    RTL or user locking            @DJA 01-CEECAA  
                         00000001            1469+CEECAA_RTLFUNC       EQU   X'01'    RTL function entry/exit        @DJA 01-CEECAA  
                                             1470+*                                                                                  
 00000208                                    1471+CEECAACTHD  DS    A                                                     01-CEECAA  
 0000020C                                    1472+CEECAACURRFECB DS A                                                     01-CEECAA  
 00000210                                    1473+CEECAAEDCV  DS    A                 C/370 vector table                  01-CEECAA  
 00000214                                    1474+CEECAACPCB  DS    A                                                     01-CEECAA  
 00000218                                    1475+CEECAACEDB  DS    A                 C/370 CEDB                          01-CEECAA  
 0000021C                                    1476+            DS    XL3                                                   01-CEECAA  
 0000021F                                    1477+CEECAASPCFLAG3 DS X                                                     01-CEECAA  
 00000220                                    1478+CEECAACIO   DS    A                 Address oc cio                      01-CEECAA  
 00000224                                    1479+CEECAAFDSETFD DS  F                 Used by FD_* macros                 01-CEECAA  
 00000228                                    1480+CEECAAFCBMUTEXOK DS XL2                                                 01-CEECAA  
 0000022A                                    1481+            DS    XL2                                                   01-CEECAA  
 0000022C                                    1482+CEECAATC16  DS    F                                                     01-CEECAA  
 00000230                                    1483+CEECAATC17  DS    F                                                     01-CEECAA  
 00000234                                    1484+CEECAAEDCOV DS    A                 C/370 Open Libvec                   01-CEECAA  
 00000238                                    1485+CEECAACTOFSV DS   F                                                     01-CEECAA  
 0000023C                                    1486+CEECAATRTSPACE DS A                 C/370 Open Libvec                   01-CEECAA  
 00000240                                    1487+            DS    XL24                                                  01-CEECAA  
 00000258                                    1488+CEECAA_TCASRV DS  0CL36             TCA Service Rtn Vector              01-CEECAA  
 00000258                                    1489+CEECAA_TCASRV_USERWORD  DS A                                            01-CEECAA  
1                                                                                                               Page   33            
   Active Usings: PARMS,R10  FTEE,R11  CEECAA,R12  CEEDSA,R13                                                                        
0D-Loc    Object Code      Addr1    Addr2    Stmt  Source Statement                          HLASM R6.0  2012/03/05 13.03            
00000025C                                    1490+CEECAA_TCASRV_WORKAREA  DS A                                            01-CEECAA  
 00000260                                    1491+CEECAA_TCASRV_GETMAIN   DS A                                            01-CEECAA  
 00000264                                    1492+CEECAA_TCASRV_FREEMAIN  DS A                                            01-CEECAA  
 00000268                                    1493+CEECAA_TCASRV_LOAD      DS A                                            01-CEECAA  
 0000026C                                    1494+CEECAA_TCASRV_DELETE    DS A                                            01-CEECAA  
 00000270                                    1495+CEECAA_TCASRV_EXCEPTION DS A                                            01-CEECAA  
 00000274                                    1496+CEECAA_TCASRV_ATTENTION DS A                                            01-CEECAA  
 00000278                                    1497+CEECAA_TCASRV_MESSAGE   DS A                                            01-CEECAA  
 0000027C                                    1498+            DS    XL4               Reserved                            01-CEECAA  
 00000280                                    1499+CEECAALWS   DS    A                 Addr of PL/I Language Working Space 01-CEECAA  
 00000284                                    1500+CEECAASAVR  DS    A                 Register save            @CM0419A   01-CEECAA  
 00000288                                    1501+            DS    XL36              Reserved                       @P6C 01-CEECAA  
                                             1502+*                                                                                  
 000002AC                                    1503+CEECAASYSTM DS    X                 Underlying Operating System@MF0072A 01-CEECAA  
                         00000000            1504+CEECAASYUND EQU   X'00'               undefined                @MF0072A 01-CEECAA  
                         00000001            1505+CEECAASYUNS EQU   X'01'               unsupported              @MF0072A 01-CEECAA  
                         00000002            1506+CEECAASYVM  EQU   X'02'               VM                       @MF0072A 01-CEECAA  
                         00000003            1507+CEECAASYMVS EQU   X'03'               MVS                      @MF0072A 01-CEECAA  
 000002AD                                    1508+CEECAAHRDWR DS    X                 Underlying Hardware        @MF0072A 01-CEECAA  
                         00000000            1509+CEECAAHWUND EQU   X'00'               undefined                @MF0072A 01-CEECAA  
                         00000001            1510+CEECAAHWUNS EQU   X'01'               unsupported              @MF0072A 01-CEECAA  
                         00000002            1511+CEECAAHW370 EQU   X'02'               System / 370 non-XA      @MF0072A 01-CEECAA  
                         00000003            1512+CEECAAHWXA  EQU   X'03'               System / 370 XA          @MF0072A 01-CEECAA  
                         00000004            1513+CEECAAHWESA EQU   X'04'               System / 370 ESA         @MF0072A 01-CEECAA  
 000002AE                                    1514+CEECAASBSYS DS    X                 Underlying Subsystem       @MF0072A 01-CEECAA  
                         00000000            1515+CEECAASSUND EQU   X'00'               undefined                @MF0072A 01-CEECAA  
                         00000001            1516+CEECAASSUNS EQU   X'01'               unsupported              @MF0072A 01-CEECAA  
                         00000002            1517+CEECAASSNON EQU   X'02'               no subsystem             @MF0072A 01-CEECAA  
                         00000003            1518+CEECAASSTSO EQU   X'03'               TSO                      @MF0072A 01-CEECAA  
                         00000005            1519+CEECAASSCIC EQU   X'05'               CICS                     @MF0072A 01-CEECAA  
 000002AF                                    1520+CEECAAFLAG2 DS    X                                            @MF0072A 01-CEECAA  
                         00000080            1521+CEECAABIMODAL EQU X'80'             Bimodal addressing         @MF0072A 01-CEECAA  
                         00000040            1522+CEECAA_VECTOR EQU X'40'             vector hardware available  @MF0072A 01-CEECAA  
                         00000020            1523+CEECAATIP     EQU X'20'             Thread termination in progress      01-CEECAA  
                         00000010            1524+CEECAA_THREAD_INITIAL EQU X'10'     if on, indicates this is the IPT    01-CEECAA  
                         00000008            1525+CEECAA_TRACE_ACTIVE   EQU X'08'     If on, library trace is active      01-CEECAA  
                                             1526+*                                    (TRACE runtime option was set)                
                         00000004            1527+CEECAA_ALTSTK_ACTIVE  EQU X'04'     If on, alt stack active    @KCG0034 01-CEECAA  
                         00000002            1528+CEECAA_ENQ_WAIT_INTERRUPTABLE EQU X'02' PL/I doing Exclusive   KN80230  01-CEECAA  
                                             1529+*                                       file in Multitasking   KN80230             
                         00000001            1530+CEECAA_USRSTK_ACTIVE  EQU X'01'     If on, context switching user stack 01-CEECAA  
                                             1531+*                                       is active              PQ04250             
                                             1532+*                                                                                  
 000002B0                                    1533+CEECAALEVEL DS    X                 LE/370 level identifier             01-CEECAA  
                         00000018            1534+CEL_LEVEL_IDENTIFIER EQU X'18'                                     @DRC 01-CEECAA  
 000002B1                                    1535+CEECAA_PM   DS    X                 PROGRAM MASK               @NX0166C 01-CEECAA  
 000002B2                                    1536+CEECAA_INVAR DS   XL2               At same offset in 31 & 64 mode @G3C 01-CEECAA  
 000002B4                                    1537+CEECAAGETLS DS    A                 ADDR OF LE/370 LIBRARY STACK MGR    01-CEECAA  
 000002B8                                    1538+CEECAACELV  DS    A                 Addr of LE/370 LIBVEC               01-CEECAA  
 000002BC                                    1539+CEECAAGETS  DS    A                 Addr of LE/370 get stack stg rtn    01-CEECAA  
 000002C0                                    1540+CEECAALBOS  DS    A                 Start of library stack stg seg      01-CEECAA  
 000002C4                                    1541+CEECAALEOS  DS    A                 End of library stack stg seg        01-CEECAA  
 000002C8                                    1542+CEECAALNAB  DS    A                 Next available byte of lib stg      01-CEECAA  
 000002CC                                    1543+CEECAADMC   DS    A                 Addr of ESPIE Devil-May-Care rtn    01-CEECAA  
 000002D0                                    1544+CEECAAABCODE DS   0F                Most recent ABEND completion CDE    01-CEECAA  
1                                                                                                               Page   34            
   Active Usings: PARMS,R10  FTEE,R11  CEECAA,R12  CEEDSA,R13                                                                        
0D-Loc    Object Code      Addr1    Addr2    Stmt  Source Statement                          HLASM R6.0  2012/03/05 13.03            
0000002D0                                    1545+CEECAACD    DS    XL4               Most recent CAASHAB abend code      01-CEECAA  
 000002D4                                    1546+CEECAARSNCODE DS  0F                Most recent ABEDN reason Code       01-CEECAA  
 000002D4                                    1547+CEECAARS    DS    XL4               Most recent CAASHAB reason code     01-CEECAA  
 000002D8                                    1548+CEECAAERR   DS    A                 Addr of the current CIB             01-CEECAA  
 000002DC                                    1549+CEECAAGETSX DS    A                 Addr of LE/370 stack stg extender   01-CEECAA  
 000002E0                                    1550+CEECAADDSA  DS    A                 Addr of the dummy DSA               01-CEECAA  
 000002E4                                    1551+CEECAASECTSIZ DS  F                 Vector Section Size                 01-CEECAA  
 000002E8                                    1552+CEECAAPARTSUM DS  F                 Vector Partial Sum Number           01-CEECAA  
 000002EC                                    1553+CEECAASSEXPNT DS  F                 Log of Vector Section Size          01-CEECAA  
 000002F0                                    1554+CEECAAEDB   DS    A                 address of the EDB                  01-CEECAA  
 000002F4                                    1555+CEECAAPCB   DS    A                 address of the PCB                  01-CEECAA  
                                             1556+* ---------------------------------------------------------------------            
                                             1557+* - THE FOLLOWING TWO FIELDS ARE USED FOR VALIDATION OF THE CAA.      -            
                                             1558+* ---------------------------------------------------------------------            
 000002F8                                    1559+CEECAAEYEPTR DS   A                 addr of CAA eyecatcher              01-CEECAA  
 000002FC                                    1560+CEECAAPTR   DS    A                 addr of this CAA                    01-CEECAA  
 00000300                                    1561+CEECAAGETS1 DS    A                 DSA alloc - R13 not DSA addr        01-CEECAA  
 00000304                                    1562+CEECAASHAB  DS    A                 ABEND shunt routine address         01-CEECAA  
 00000308                                    1563+CEECAAPRGCK DS    A                 pgm interrupt code for CAADMC       01-CEECAA  
 0000030C                                    1564+CEECAAFLAG1 DS    X                 CAA Flag 1                          01-CEECAA  
                         00000080            1565+CEECAASORT  EQU   B'10000000'       Call to DFSORT is active            01-CEECAA  
                         00000040            1566+CEECAA_USE_OLD_STK  EQU  B'01000000'  use old stack               @P5A  01-CEECAA  
                         00000020            1567+CEECAA_CICS_EXT_REG EQU  B'00100000'  CICS extended regs active   @DQA  01-CEECAA  
 0000030D                                    1568+            DS    CL3               reserved                            01-CEECAA  
 00000310                                    1569+CEECAAURC   DS    F                 Thread level return code.           01-CEECAA  
 00000314                                    1570+CEECAARSRV1 DS    4A                                                    01-CEECAA  
                                             1571+* ---------------------------------------------------------------------            
                                             1572+* - THE FOLLOWING FIELD CONTAINS THE PRE-INIT COMPATABILITY           -            
                                             1573+* - CONTROL BLOCK ADDRESS.                                            -            
                                             1574+* ---------------------------------------------------------------------            
 00000324                                    1575+CEECAAPICICB DS   A                 Addr of pre-init compatability cb   01-CEECAA  
 00000328                                    1576+CEECAARSRV2  DS   A                                                     01-CEECAA  
                                             1577+* ---------------------------------------------------------------------            
 0000032C                                    1578+CEECAAGOSMR  DS   H                 Go Some More. used TRAV multiple    01-CEECAA  
 0000032E                                    1579+             DS   H                 skip.                               01-CEECAA  
                                             1580+* ---------------------------------------------------------------------            
 00000330                                    1581+CEECAALEOV   DS   A                 Addr of LE/OpenMVS LIBVEC           01-CEECAA  
 00000334                                    1582+CEECAA_SIGSCTR        DS  F         SIGSAFE Counter            @C54544  01-CEECAA  
                                             1583+*                                                                                  
 00000338                                    1584+CEECAA_SIGSFLG        DS  XL4       SIGSAFE Flags              @C54544  01-CEECAA  
                                             1585+*                                                                                  
                                             1586+*                     First byte                                   @P4A            
                                             1587+*                                                                                  
                         00000080            1588+CEECAA_SIGPUTBACK     EQU X'80'     Signal Putback                      01-CEECAA  
                         00000040            1589+CEECAA_SA_RESTART     EQU X'40'     SA_Restart processing needed        01-CEECAA  
                                             1590+*                     EQU X'20'     <unused>                                       
                         00000010            1591+CEECAA_SIGSAFE        EQU X'10'     Indicates that synchronous          01-CEECAA  
                                             1592+*                                    signals are safe to be delivered              
                                             1593+*                                    regardless of where the interrupt             
                                             1594+*                                    occurred                                      
                         00000008            1595+CEECAA_CANCELSAFE     EQU X'08'     Indicates that synchronous @CM0565A 01-CEECAA  
                                             1596+*                                    cancels are safe to be    @CM0565A            
                                             1597+*                                    delivered regardless of   @CM0565A            
                                             1598+*                                    where the interrupt       @CM0565A            
                                             1599+*                                    occurred                  @CM0565A            
1                                                                                                               Page   35            
   Active Usings: PARMS,R10  FTEE,R11  CEECAA,R12  CEEDSA,R13                                                                        
0D-Loc    Object Code      Addr1    Addr2    Stmt  Source Statement                          HLASM R6.0  2012/03/05 13.03            
0                        00000004            1600+CEECAA_SIGRESYNCH     EQU X'04'     One or more synchronous signals     01-CEECAA  
                                             1601+*                                    may have been recently put back               
                                             1602+*                                    last time a signal was resolicited            
                                             1603+*                                    when returning to non-XPLINK                  
                                             1604+*                                    user code                                     
                         00000002            1605+CEECAA_FRZ_UNSAFE     EQU X'02'     This thread is in an unsafe state   01-CEECAA  
                                             1606+*                                   to be frozen (set by members)                  
                         00000001            1607+CEECAA_NOAPPREGS      EQU X'01'     User Application registers may      01-CEECAA  
                                             1608+*                                   be saved in a nonstandard place                
                                             1609+*                                                                  @DFA            
                                             1610+*                     Second byte                                  @P4A            
                                             1611+*                                                                                  
                         00000080            1612+CEECAA_EINTR_RSOL     EQU   X'80'   Secondary signal resolicit          01-CEECAA  
                                             1613+*                                   in progress after EINTR                        
                                             1614+*                                   from inner function            @P4A            
                         00000040            1615+CEECAA_EINTR_PUTB     EQU   X'40'   Secondary resolicited signal        01-CEECAA  
                                             1616+*                                   has been put back              @P4A            
                         00000020            1617+CEECAA_EINTR_REST     EQU   X'20'   User catcher returned after         01-CEECAA  
                                             1618+*                                   catching secondary                             
                                             1619+*                                   resolicited signal with                        
                                             1620+*                                   SA_RESTART in effect           @P4A            
                         00000010            1621+CEECAA_EINTR_SIGG     EQU   X'10'   "Stray" signal interrupted          01-CEECAA  
                                             1622+*                                   CEEOSIGG while secondary                       
                                             1623+*                                   signal resolicitation                          
                                             1624+*                                   was in progress                @P4A            
                                             1625+*                     EQU   X'08'   Reserved                       @P4A            
                                             1626+*                     EQU   X'04'   Reserved                       @P4A            
                                             1627+*                     EQU   X'02'   Reserved                       @P4A            
                                             1628+*                     EQU   X'01'   Reserved                       @P4A            
                                             1629+*                                                                                  
                                             1630+*                     (16 unused bits)                             @P4C            
                                             1631+*                                                                                  
 0000033C                                    1632+CEECAATHDID           DS  CL8       Posix thread id                     01-CEECAA  
 00000344                                    1633+CEECAA_DCRENT         DS  A         CRENT anchor for DCE                01-CEECAA  
 00000348                                    1634+CEECAA_DANCHOR        DS  A         DCE anchor per thread               01-CEECAA  
 0000034C                                    1635+CEECAA_CTOC           DS  A         TOC anchor for CRENT                01-CEECAA  
 00000350                                    1636+CEECAARCB             DS  A         A(RCB)                              01-CEECAA  
 00000354                                    1637+CEECAACICSRSN         DS  A         CICS reason code from member        01-CEECAA  
                                             1638+*                                   language                                       
 00000358                                    1639+CEECAAMEMBR           DS  A         Addr of thread-level member list    01-CEECAA  
 0000035C                                    1640+CEECAA_SIGNAL_STATUS  DS  A         Signal stat for terminating thd     01-CEECAA  
 00000360                                    1641+CEECAA_HCOM_REG7      DS 0A         Saved Reg7  from HCOM               01-CEECAA  
 00000360                                    1642+CEECAA_HCOM_REG14     DS  A         Saved Reg14 from HCOM   @CH0092A    01-CEECAA  
 00000364                                    1643+CEECAA_STACKFLOOR     DS  A         Lowest usable addr in HP stack      01-CEECAA  
 00000368                                    1644+CEECAAHPGETS          DS  A         HP stack extension rtn              01-CEECAA  
 0000036C                                    1645+CEECAAEDCHPXV         DS  A         C/C++ XPLINK libvec                 01-CEECAA  
 00000370                                    1646+CEECAAFOR1            DS  A         Reserved for FORTRAN                01-CEECAA  
 00000374                                    1647+CEECAAFOR2            DS  A         Reserved for FORTRAN                01-CEECAA  
 00000378                                    1648+CEECAATHREADHEAPID    DS  A         Thread heapid         @NX0093A      01-CEECAA  
 0000037C                                    1649+CEECAA_SYS_RTNCODE    DS  F         Sys (kernel) return code @CM1752    01-CEECAA  
 00000380                                    1650+CEECAA_SYS_RSNCODE    DS  F         Sys (kernel) reason code @CM1752    01-CEECAA  
 00000384                                    1651+CEECAAGETFN           DS  A         Address of WSA swap routine         01-CEECAA  
 00000388                                    1652+CEECAA_LER4           DS  CL8       Reserved for expansion LE 1.4       01-CEECAA  
                                             1653+********************************************************************               
                                             1654+*    LE V1R5M0 EXTERNAL CONTROL BLOCK SECTION                      *               
1                                                                                                               Page   36            
   Active Usings: PARMS,R10  FTEE,R11  CEECAA,R12  CEEDSA,R13                                                                        
0D-Loc    Object Code      Addr1    Addr2    Stmt  Source Statement                          HLASM R6.0  2012/03/05 13.03            
0                                            1655+*      - any external control block fields should be added         *               
                                             1656+*        in this section.  Extra reserved space was added          *               
                                             1657+*        with the intention of at end of project the excess        *               
                                             1658+*        reserved space will be removed and all external fields    *               
                                             1659+*        will be shifted.                                          *               
                                             1660+********************************************************************               
 00000390                                    1661+CEECAASIGNGPTR        DS  A         Pointer to 'signam' external        01-CEECAA  
                                             1662+*                                   variable in a C application                    
 00000394                                    1663+CEECAASIGNG           DS  F         value of sign of lgamma()           01-CEECAA  
                                             1664+*                                    -1 - negative sign                            
                                             1665+*                                     0 - zero                                     
                                             1666+*                                    +1 - positive sign                            
 00000398                                    1667+CEECAA_FORDBG         DS  A         Ptr to AFHDBHIM -        @N80095A   01-CEECAA  
                                             1668+*                                   FORTRAN hook interface   @N80095A              
 0000039C                                    1669+CEECAAAB_STATUS       DS  X         validity flags           KN80120    01-CEECAA  
                         00000080            1670+CEECAAAB_GR0_VALID    EQU X'80'     CEECAAAB_GR0 is valid    KN80120    01-CEECAA  
                         00000040            1671+CEECAAAB_ICD1_VALID   EQU X'40'     CEECAAAB_ICD1 is valid   KN80120    01-CEECAA  
                         00000020            1672+CEECAAAB_ABCC_VALID   EQU X'20'     CEECAAAB_ABCC is valid   KN80120    01-CEECAA  
                         00000010            1673+CEECAAAB_CRC_VALID    EQU X'10'     CEECAAAB_CRC is valid    KN80120    01-CEECAA  
                         00000008            1674+CEECAAAB_GR15_VALID   EQU X'08'     CEECAAAB_GR15 is valid   KN80120    01-CEECAA  
 0000039D                                    1675+CEECAA_STACKDIRECTION DS  X         Stack Direction                     01-CEECAA  
                         00000000            1676+CEECAASTACK_UP        EQU X'00'     Up                                  01-CEECAA  
                         00000001            1677+CEECAASTACK_DOWN      EQU X'01'     Down (XPLINK)                       01-CEECAA  
 0000039E                                    1678+                      DS  XL2       RESERVED                 KN80120    01-CEECAA  
 000003A0                                    1679+CEECAAAB_GR0          DS  A         Reg 0                    KN80120    01-CEECAA  
 000003A4                                    1680+CEECAAAB_ICD1         DS  A         SDWAICD1                 KN80120    01-CEECAA  
 000003A8                                    1681+CEECAAAB_ABCC         DS  A         SDWAABCC                 KN80120    01-CEECAA  
 000003AC                                    1682+CEECAAAB_CRC          DS  A         SDWACRC                  KN80120    01-CEECAA  
                         000002D4            1683+CEECAAAB_GR15         EQU CEECAARS  reg 15                   KN80120    01-CEECAA  
 000003B0                                    1684+CEECAAAGTS            DS  A         C compiler stk inc       KN00102    01-CEECAA  
 000003B4                                    1685+CEECAA_LER5N1         DS  CL4       reserved for expansion   KCG0088    01-CEECAA  
 000003B8                                    1686+CEECAAHERP            DS  A         A(CEEHERP)               KCG0061    01-CEECAA  
 000003BC                                    1687+CEECAAUSTKBOS         DS  A         Start of user stack seg  PQ04250    01-CEECAA  
 000003C0                                    1688+CEECAAUSTKEOS         DS  A         End of user stack seg    PQ04250    01-CEECAA  
 000003C4                                    1689+CEECAAUSERRTN@        DS  A         A(UserRtn) for pthread     @01A     01-CEECAA  
 000003C8                                    1690+CEECAAUDHOOK          DS  XL8       hook swapping xplink       @DBA     01-CEECAA  
                                             1691+*                     DS  BL8       reserved                   @DBA                
                                             1692+*CEECAAUDHOOKSW        DS  BL4       hook switch                @DBA               
                                             1693+*                      DS  BL4       reserved                   @DBA               
                                             1694+*                      DS  XL6       reserved                   @DBA               
 000003D0                                    1695+CEECAACEL_HPXV_B      DS  A         Address of XPLink compat   @DCC     01-CEECAA  
                                             1696+*                                    vector for Base library   @DCA                
 000003D4                                    1697+CEECAACEL_HPXV_M      DS  A         Address of XPLink compat   @DCA     01-CEECAA  
                                             1698+*                                    vector for Math library   @DCA                
 000003D8                                    1699+CEECAACEL_HPXV_L      DS  A         Address of XPLink          @DCC     01-CEECAA  
                                             1700+*                                    compat vector for         @DCA                
                                             1701+*                                    Locale library            @DCA                
 000003DC                                    1702+CEECAACEL_HPXV_O      DS  A         Address of XPLink          @DDA     01-CEECAA  
                                             1703+*                                    compat vector for         @DDA                
                                             1704+*                                    Open library              @DDA                
 000003E0                                    1705+CEECAACEL4VEC3        DS  A         Address of Vec3 LibVec     @DHA     01-CEECAA  
 000003E4                                    1706+CEECAA_CEEDLLF          DS A        Addr of newest CEEDLLF.  Not   @P6M 01-CEECAA  
                                             1707+*                                   same offset as in 64bit.       @P6M            
 000003E8                                    1708+CEECAA_SAVSTACK       DS  A         Saved Stack pointer used for   @DPA 01-CEECAA  
                                             1709+*                                     OS_NOSTACK linkage           @DPA            
1                                                                                                               Page   37            
   Active Usings: PARMS,R10  FTEE,R11  CEECAA,R12  CEEDSA,R13                                                                        
0D-Loc    Object Code      Addr1    Addr2    Stmt  Source Statement                          HLASM R6.0  2012/03/05 13.03            
0000003EC                                    1710+                      DS  XL4       Reserved                       @DSC 01-CEECAA  
 000003F0                                    1711+                      DS  F         Reserved                       @DTC 01-CEECAA  
 000003F4                                    1712+CEECAA_SAVSTACK_ASYNC DS  A         Zero or address of 4-byte field@DPA 01-CEECAA  
                                             1713+*                                   where the stack pointer can be @DPA            
                                             1714+*                                   saved. When the stack pointer  @DPA            
                                             1715+*                                   is saved here, asynchronous    @DPA            
                                             1716+*                                   signals will be accepted.      @DPA            
                         00000094            1717+CEECELVGTUN EQU  148                Offset to Get user nab service.     01-CEECAA  
 00000000                00000000 00000018   1718 PARMS    DSECT                                                                     
 00000000                                    1719 @ARGC    DS    A                  ADDRESS OF NUMBER OF ARGUMENTS                   
 00000004                                    1720 @ARGVL   DS    A                  ADDRESS OF VECTOR OF LENGTH OF ARGS              
 00000008                                    1721 @ARGV    DS    A                  ADDRESS OF VECTOR OF ARGS                        
 0000000C                                    1722 @ENVL    DS    A                  ADDRESS OF NUMBER OF ENV VARS                    
 00000010                                    1723 @ENVVL   DS    A                  ADDRESS OF VECTOR OF LENGTH OF ENV VA            
 00000014                                    1724 @ENV     DS    A                  ADDRESS OF VECTOR OF ENV VARS                    
                                             1725          regs                                                                      
                         00000000            1726+R0       EQU   0,,,,GR                                                  01-REGS    
                         00000001            1727+R1       EQU   1,,,,GR                                                  01-REGS    
                         00000002            1728+R2       EQU   2,,,,GR                                                  01-REGS    
                         00000003            1729+R3       EQU   3,,,,GR                                                  01-REGS    
                         00000004            1730+R4       EQU   4,,,,GR                                                  01-REGS    
                         00000005            1731+R5       EQU   5,,,,GR                                                  01-REGS    
                         00000006            1732+R6       EQU   6,,,,GR                                                  01-REGS    
                         00000007            1733+R7       EQU   7,,,,GR                                                  01-REGS    
                         00000008            1734+R8       EQU   8,,,,GR                                                  01-REGS    
                         00000009            1735+R9       EQU   9,,,,GR                                                  01-REGS    
                         0000000A            1736+R10      EQU   10,,,,GR                                                 01-REGS    
                         0000000B            1737+R11      EQU   11,,,,GR                                                 01-REGS    
                         0000000C            1738+R12      EQU   12,,,,GR                                                 01-REGS    
                         0000000D            1739+R13      EQU   13,,,,GR                                                 01-REGS    
                         0000000E            1740+R14      EQU   14,,,,GR                                                 01-REGS    
                         0000000F            1741+R15      EQU   15,,,,GR                                                 01-REGS    
                         00000000            1742+R0_64    EQU   0,,,,GR64                                                01-REGS    
                         00000001            1743+R1_64    EQU   1,,,,GR64                                                01-REGS    
                         00000002            1744+R2_64    EQU   2,,,,GR64                                                01-REGS    
                         00000003            1745+R3_64    EQU   3,,,,GR64                                                01-REGS    
                         00000004            1746+R4_64    EQU   4,,,,GR64                                                01-REGS    
                         00000005            1747+R5_64    EQU   5,,,,GR64                                                01-REGS    
                         00000006            1748+R6_64    EQU   6,,,,GR64                                                01-REGS    
                         00000007            1749+R7_64    EQU   7,,,,GR64                                                01-REGS    
                         00000008            1750+R8_64    EQU   8,,,,GR64                                                01-REGS    
                         00000009            1751+R9_64    EQU   9,,,,GR64                                                01-REGS    
                         0000000A            1752+R10_64   EQU   10,,,,GR64                                               01-REGS    
                         0000000B            1753+R11_64   EQU   11,,,,GR64                                               01-REGS    
                         0000000C            1754+R12_64   EQU   12,,,,GR64                                               01-REGS    
                         0000000D            1755+R13_64   EQU   13,,,,GR64                                               01-REGS    
                         0000000E            1756+R14_64   EQU   14,,,,GR64                                               01-REGS    
                         0000000F            1757+R15_64   EQU   15,,,,GR64                                               01-REGS    
                         00000000            1758+R0_32    EQU   0,,,,GR32                                                01-REGS    
                         00000001            1759+R1_32    EQU   1,,,,GR32                                                01-REGS    
                         00000002            1760+R2_32    EQU   2,,,,GR32                                                01-REGS    
                         00000003            1761+R3_32    EQU   3,,,,GR32                                                01-REGS    
                         00000004            1762+R4_32    EQU   4,,,,GR32                                                01-REGS    
                         00000005            1763+R5_32    EQU   5,,,,GR32                                                01-REGS    
                         00000006            1764+R6_32    EQU   6,,,,GR32                                                01-REGS    
1                                                                                                               Page   38            
   Active Usings: PARMS,R10  FTEE,R11  CEECAA,R12  CEEDSA,R13                                                                        
0D-Loc    Object Code      Addr1    Addr2    Stmt  Source Statement                          HLASM R6.0  2012/03/05 13.03            
0                        00000007            1765+R7_32    EQU   7,,,,GR32                                                01-REGS    
                         00000008            1766+R8_32    EQU   8,,,,GR32                                                01-REGS    
                         00000009            1767+R9_32    EQU   9,,,,GR32                                                01-REGS    
                         0000000A            1768+R10_32   EQU   10,,,,GR32                                               01-REGS    
                         0000000B            1769+R11_32   EQU   11,,,,GR32                                               01-REGS    
                         0000000C            1770+R12_32   EQU   12,,,,GR32                                               01-REGS    
                         0000000D            1771+R13_32   EQU   13,,,,GR32                                               01-REGS    
                         0000000E            1772+R14_32   EQU   14,,,,GR32                                               01-REGS    
                         0000000F            1773+R15_32   EQU   15,,,,GR32                                               01-REGS    
                         00000000            1774+AR0      EQU   0,,,,AR                                                  01-REGS    
                         00000001            1775+AR1      EQU   1,,,,AR                                                  01-REGS    
                         00000002            1776+AR2      EQU   2,,,,AR                                                  01-REGS    
                         00000003            1777+AR3      EQU   3,,,,AR                                                  01-REGS    
                         00000004            1778+AR4      EQU   4,,,,AR                                                  01-REGS    
                         00000005            1779+AR5      EQU   5,,,,AR                                                  01-REGS    
                         00000006            1780+AR6      EQU   6,,,,AR                                                  01-REGS    
                         00000007            1781+AR7      EQU   7,,,,AR                                                  01-REGS    
                         00000008            1782+AR8      EQU   8,,,,AR                                                  01-REGS    
                         00000009            1783+AR9      EQU   9,,,,AR                                                  01-REGS    
                         0000000A            1784+AR10     EQU   10,,,,AR                                                 01-REGS    
                         0000000B            1785+AR11     EQU   11,,,,AR                                                 01-REGS    
                         0000000C            1786+AR12     EQU   12,,,,AR                                                 01-REGS    
                         0000000D            1787+AR13     EQU   13,,,,AR                                                 01-REGS    
                         0000000E            1788+AR14     EQU   14,,,,AR                                                 01-REGS    
                         0000000F            1789+AR15     EQU   15,,,,AR                                                 01-REGS    
                                             1790          AGO   .SKIP1                                                              
                                             1791 .SKIP1   ANOP                                                                      
 00000000                                    1792          END   FTEE                                                                
1                               Ordinary Symbol and Literal Cross Reference                                     Page   39            
-Symbol   Length   Value     Id    R Type Asm  Program   Defn References                     HLASM R6.0  2012/03/05 13.03            
0#CMID_HI      1 000020FF FFFFFFFF A   U                 1238                                                                        
 #CMID_LOW                                                                                                                           
               1 00000000 FFFFFFFF A   U                 1237                                                                        
 #WAITID       1 00000002 FFFFFFFF A   U                  977                                                                        
 #WAIT3        1 00000001 FFFFFFFF A   U                  976                                                                        
 @ARGC         4 00000000 FFFFFFFA     A  A              1719  528                                                                   
 @ARGV         4 00000008 FFFFFFFA     A  A              1721  531                                                                   
 @ARGVL        4 00000004 FFFFFFFA     A  A              1720  530                                                                   
 @DUMPRET      4 00000088 FFFFFFFF     A  A               879  611M  629                                                             
 @ENV          4 00000014 FFFFFFFA     A  A              1724                                                                        
 @ENVL         4 0000000C FFFFFFFA     A  A              1722                                                                        
 @ENVVL        4 00000010 FFFFFFFA     A  A              1723                                                                        
 ACK_ALTER#                                                                                                                          
               1 00000004 FFFFFFFF A   U                 1227                                                                        
 ACK_CONTROL#                                                                                                                        
               1 00000003 FFFFFFFF A   U                 1226                                                                        
 ACK_READ#                                                                                                                           
               1 00000001 FFFFFFFF A   U                 1224                                                                        
 ACK_UPDATE#                                                                                                                         
               1 00000002 FFFFFFFF A   U                 1225                                                                        
 ALET          4 000002A4 00000001     A  A               634  635   636                                                             
 AMODE_INITIALIZING                                                                                                                  
               1 00000004 FFFFFFFF A   U                 1171                                                                        
 AR0           1 00000000 FFFFFFFA A   U  AR             1774                                                                        
 AR1           1 00000001 FFFFFFFA A   U  AR             1775                                                                        
 AR10          1 0000000A FFFFFFFA A   U  AR             1784                                                                        
 AR11          1 0000000B FFFFFFFA A   U  AR             1785                                                                        
 AR12          1 0000000C FFFFFFFA A   U  AR             1786                                                                        
 AR13          1 0000000D FFFFFFFA A   U  AR             1787                                                                        
 AR14          1 0000000E FFFFFFFA A   U  AR             1788                                                                        
 AR15          1 0000000F FFFFFFFA A   U  AR             1789                                                                        
 AR2           1 00000002 FFFFFFFA A   U  AR             1776                                                                        
 AR3           1 00000003 FFFFFFFA A   U  AR             1777                                                                        
 AR4           1 00000004 FFFFFFFA A   U  AR             1778                                                                        
 AR5           1 00000005 FFFFFFFA A   U  AR             1779                                                                        
 AR6           1 00000006 FFFFFFFA A   U  AR             1780                                                                        
 AR7           1 00000007 FFFFFFFA A   U  AR             1781                                                                        
 AR8           1 00000008 FFFFFFFA A   U  AR             1782                                                                        
 AR9           1 00000009 FFFFFFFA A   U  AR             1783                                                                        
 BIT24_MODE                                                                                                                          
               1 00000001 FFFFFFFF A   U                 1168                                                                        
 BIT31_MODE                                                                                                                          
               1 00000002 FFFFFFFF A   U                 1169                                                                        
 BIT64_MODE                                                                                                                          
               1 00000003 FFFFFFFF A   U                 1170                                                                        
 BPX_NONSWAP                                                                                                                         
               1 00000002 FFFFFFFF A   U                 1135                                                                        
 BPX_SWAP      1 00000001 FFFFFFFF A   U                 1134                                                                        
 BPXK_PARAMETER                                                                                                                      
               1 00000006 FFFFFFFF A   U                 1115                                                                        
 BPXWDYN_Opt                                                                                                                         
               2 000001E0 00000001     H  H               566  558B                                                                  
 BPX1WRT       4 00000094 FFFFFFFF     A  A               882  511M                                                                  
 BPX1WRV       4 00000098 FFFFFFFF     A  A               883  523M                                                                  
 BUFFERA       4 000000A0 FFFFFFFF     A  A               885                                                                        
1                               Ordinary Symbol and Literal Cross Reference                                     Page   40            
-Symbol   Length   Value     Id    R Type Asm  Program   Defn References                     HLASM R6.0  2012/03/05 13.03            
0BUFL          4 000000CC FFFFFFFF     F  F               918                                                                        
 CALLX         4 000000F0 FFFFFFFF     A  A               925  475   612                                                             
 CC_MAX_MSG_LENGTH                                                                                                                   
               1 000045BA FFFFFFFF A   U                 1240                                                                        
 CC_MAX_MSG_LENGTH_NONSU                                                                                                             
               1 00004574 FFFFFFFF A   U                 1241                                                                        
 CC_MODIFY_BUFFER_LENGTH                                                                                                             
               1 00000080 FFFFFFFF A   U                 1242                                                                        
 CEEBETBL      1 00000000 00000008     T                  743  743                                                                   
 CEECAA        1 00000000 FFFFFFFB     J                 1394  410   412   426   430U                                                
 CEECAA_ALTSTK_ACTIVE                                                                                                                
               1 00000004 FFFFFFFB A   U                 1527                                                                        
 CEECAA_CANCELSAFE                                                                                                                   
               1 00000008 FFFFFFFB A   U                 1595                                                                        
 CEECAA_CEEDLLF                                                                                                                      
               4 000003E4 FFFFFFFB     A  A              1706                                                                        
 CEECAA_CICS_EXT_REG                                                                                                                 
               1 00000020 FFFFFFFB A   U                 1567                                                                        
 CEECAA_CTOC                                                                                                                         
               4 0000034C FFFFFFFB     A  A              1635                                                                        
 CEECAA_DANCHOR                                                                                                                      
               4 00000348 FFFFFFFB     A  A              1634                                                                        
 CEECAA_DCRENT                                                                                                                       
               4 00000344 FFFFFFFB     A  A              1633                                                                        
 CEECAA_EINTR_PUTB                                                                                                                   
               1 00000040 FFFFFFFB A   U                 1615                                                                        
 CEECAA_EINTR_REST                                                                                                                   
               1 00000020 FFFFFFFB A   U                 1617                                                                        
 CEECAA_EINTR_RSOL                                                                                                                   
               1 00000080 FFFFFFFB A   U                 1612                                                                        
 CEECAA_EINTR_SIGG                                                                                                                   
               1 00000010 FFFFFFFB A   U                 1621                                                                        
 CEECAA_ENQ_WAIT_INTERRUPTABLE                                                                                                       
               1 00000002 FFFFFFFB A   U                 1528                                                                        
 CEECAA_FORDBG                                                                                                                       
               4 00000398 FFFFFFFB     A  A              1667                                                                        
 CEECAA_FRZ_UNSAFE                                                                                                                   
               1 00000002 FFFFFFFB A   U                 1605                                                                        
 CEECAA_HCOM_REG14                                                                                                                   
               4 00000360 FFFFFFFB     A  A              1642                                                                        
 CEECAA_HCOM_REG7                                                                                                                    
               4 00000360 FFFFFFFB     A  A              1641                                                                        
 CEECAA_HIGH_IO                                                                                                                      
               1 00000002 FFFFFFFB A   U                 1458                                                                        
 CEECAA_INITTERM_H                                                                                                                   
               1 00000001 FFFFFFFB A   U                 1459                                                                        
 CEECAA_INITTERM_L                                                                                                                   
               1 00000010 FFFFFFFB A   U                 1455                                                                        
 CEECAA_INVAR                                                                                                                        
               2 000002B2 FFFFFFFB     X  X              1536                                                                        
 CEECAA_LER4                                                                                                                         
               8 00000388 FFFFFFFB     C  C              1652                                                                        
 CEECAA_LER5N1                                                                                                                       
               4 000003B4 FFFFFFFB     C  C              1685                                                                        
 CEECAA_LOW_IO                                                                                                                       
1                               Ordinary Symbol and Literal Cross Reference                                     Page   41            
-Symbol   Length   Value     Id    R Type Asm  Program   Defn References                     HLASM R6.0  2012/03/05 13.03            
0              1 00000020 FFFFFFFB A   U                 1454                                                                        
 CEECAA_NOAPPREGS                                                                                                                    
               1 00000001 FFFFFFFB A   U                 1607                                                                        
 CEECAA_PM                                                                                                                           
               1 000002B1 FFFFFFFB     X  X              1535                                                                        
 CEECAA_RTLALLOC                                                                                                                     
               1 00000008 FFFFFFFB A   U                 1466                                                                        
 CEECAA_RTLCICS                                                                                                                      
               1 00000010 FFFFFFFB A   U                 1465                                                                        
 CEECAA_RTLCOUNT                                                                                                                     
               1 00000004 FFFFFFFB A   U                 1467                                                                        
 CEECAA_RTLFUNC                                                                                                                      
               1 00000001 FFFFFFFB A   U                 1469                                                                        
 CEECAA_RTLLOCKS                                                                                                                     
               1 00000002 FFFFFFFB A   U                 1468                                                                        
 CEECAA_RTLXPLI                                                                                                                      
               1 00000020 FFFFFFFB A   U                 1464                                                                        
 CEECAA_SA_RESTART                                                                                                                   
               1 00000040 FFFFFFFB A   U                 1589                                                                        
 CEECAA_SAVSTACK                                                                                                                     
               4 000003E8 FFFFFFFB     A  A              1708                                                                        
 CEECAA_SAVSTACK_ASYNC                                                                                                               
               4 000003F4 FFFFFFFB     A  A              1712                                                                        
 CEECAA_SIGNAL_STATUS                                                                                                                
               4 0000035C FFFFFFFB     A  A              1640                                                                        
 CEECAA_SIGNALS_H                                                                                                                    
               1 00000004 FFFFFFFB A   U                 1457                                                                        
 CEECAA_SIGNALS_L                                                                                                                    
               1 00000040 FFFFFFFB A   U                 1453                                                                        
 CEECAA_SIGPUTBACK                                                                                                                   
               1 00000080 FFFFFFFB A   U                 1588                                                                        
 CEECAA_SIGRESYNCH                                                                                                                   
               1 00000004 FFFFFFFB A   U                 1600                                                                        
 CEECAA_SIGSAFE                                                                                                                      
               1 00000010 FFFFFFFB A   U                 1591                                                                        
 CEECAA_SIGSCTR                                                                                                                      
               4 00000334 FFFFFFFB     F  F              1582                                                                        
 CEECAA_SIGSFLG                                                                                                                      
               4 00000338 FFFFFFFB     X  X              1584                                                                        
 CEECAA_STACKDIRECTION                                                                                                               
               1 0000039D FFFFFFFB     X  X              1675                                                                        
 CEECAA_STACKFLOOR                                                                                                                   
               4 00000364 FFFFFFFB     A  A              1643                                                                        
 CEECAA_SYS_RSNCODE                                                                                                                  
               4 00000380 FFFFFFFB     F  F              1650                                                                        
 CEECAA_SYS_RTNCODE                                                                                                                  
               4 0000037C FFFFFFFB     F  F              1649                                                                        
 CEECAA_TCASRV                                                                                                                       
              36 00000258 FFFFFFFB     C  C              1488                                                                        
 CEECAA_TCASRV_ATTENTION                                                                                                             
               4 00000274 FFFFFFFB     A  A              1496                                                                        
 CEECAA_TCASRV_DELETE                                                                                                                
               4 0000026C FFFFFFFB     A  A              1494                                                                        
 CEECAA_TCASRV_EXCEPTION                                                                                                             
               4 00000270 FFFFFFFB     A  A              1495                                                                        
1                               Ordinary Symbol and Literal Cross Reference                                     Page   42            
-Symbol   Length   Value     Id    R Type Asm  Program   Defn References                     HLASM R6.0  2012/03/05 13.03            
0CEECAA_TCASRV_FREEMAIN                                                                                                              
               4 00000264 FFFFFFFB     A  A              1492                                                                        
 CEECAA_TCASRV_GETMAIN                                                                                                               
               4 00000260 FFFFFFFB     A  A              1491                                                                        
 CEECAA_TCASRV_LOAD                                                                                                                  
               4 00000268 FFFFFFFB     A  A              1493                                                                        
 CEECAA_TCASRV_MESSAGE                                                                                                               
               4 00000278 FFFFFFFB     A  A              1497                                                                        
 CEECAA_TCASRV_USERWORD                                                                                                              
               4 00000258 FFFFFFFB     A  A              1489                                                                        
 CEECAA_TCASRV_WORKAREA                                                                                                              
               4 0000025C FFFFFFFB     A  A              1490                                                                        
 CEECAA_THREAD_INITIAL                                                                                                               
               1 00000010 FFFFFFFB A   U                 1524                                                                        
 CEECAA_TRACE_ACTIVE                                                                                                                 
               1 00000008 FFFFFFFB A   U                 1525                                                                        
 CEECAA_USE_OLD_STK                                                                                                                  
               1 00000040 FFFFFFFB A   U                 1566                                                                        
 CEECAA_USRSTK_ACTIVE                                                                                                                
               1 00000001 FFFFFFFB A   U                 1530                                                                        
 CEECAA_VECTOR                                                                                                                       
               1 00000040 FFFFFFFB A   U                 1522                                                                        
 CEECAAAB_ABCC                                                                                                                       
               4 000003A8 FFFFFFFB     A  A              1681                                                                        
 CEECAAAB_ABCC_VALID                                                                                                                 
               1 00000020 FFFFFFFB A   U                 1672                                                                        
 CEECAAAB_CRC                                                                                                                        
               4 000003AC FFFFFFFB     A  A              1682                                                                        
 CEECAAAB_CRC_VALID                                                                                                                  
               1 00000010 FFFFFFFB A   U                 1673                                                                        
 CEECAAAB_GR0                                                                                                                        
               4 000003A0 FFFFFFFB     A  A              1679                                                                        
 CEECAAAB_GR0_VALID                                                                                                                  
               1 00000080 FFFFFFFB A   U                 1670                                                                        
 CEECAAAB_GR15                                                                                                                       
               4 000002D4 FFFFFFFB     U                 1683                                                                        
 CEECAAAB_GR15_VALID                                                                                                                 
               1 00000008 FFFFFFFB A   U                 1674                                                                        
 CEECAAAB_ICD1                                                                                                                       
               4 000003A4 FFFFFFFB     A  A              1680                                                                        
 CEECAAAB_ICD1_VALID                                                                                                                 
               1 00000040 FFFFFFFB A   U                 1671                                                                        
 CEECAAAB_STATUS                                                                                                                     
               1 0000039C FFFFFFFB     X  X              1669                                                                        
 CEECAAABCODE                                                                                                                        
               4 000002D0 FFFFFFFB     F  F              1544                                                                        
 CEECAAACALL                                                                                                                         
               4 000001C4 FFFFFFFB     X  X              1429                                                                        
 CEECAAAGTS                                                                                                                          
               4 000003B0 FFFFFFFB     A  A              1684                                                                        
 CEECAAALLOC                                                                                                                         
               4 000001A8 FFFFFFFB     X  X              1421                                                                        
 CEECAAATTN                                                                                                                          
               4 00000120 FFFFFFFB     A  A              1412                                                                        
 CEECAABCALL                                                                                                                         
1                               Ordinary Symbol and Literal Cross Reference                                     Page   43            
-Symbol   Length   Value     Id    R Type Asm  Program   Defn References                     HLASM R6.0  2012/03/05 13.03            
0              4 000001C0 FFFFFFFB     X  X              1428                                                                        
 CEECAABIMODAL                                                                                                                       
               1 00000080 FFFFFFFB A   U                 1521                                                                        
 CEECAABOS                                                                                                                           
               4 00000008 FFFFFFFB     A  A              1405                                                                        
 CEECAAC_COMTRACE                                                                                                                    
               1 00000207 FFFFFFFB     X  X              1461                                                                        
 CEECAAC_RTL                                                                                                                         
               4 00000204 FFFFFFFB     F  F              1445                                                                        
 CEECAAC_RTL_1                                                                                                                       
               1 00000204 FFFFFFFB     X  X              1447                                                                        
 CEECAAC_RTL_2                                                                                                                       
               1 00000205 FFFFFFFB     X  X              1449                                                                        
 CEECAAC_RTL_3                                                                                                                       
               1 00000206 FFFFFFFB     X  X              1451                                                                        
 CEECAACD      4 000002D0 FFFFFFFB     X  X              1545                                                                        
 CEECAACEDB                                                                                                                          
               4 00000218 FFFFFFFB     A  A              1475                                                                        
 CEECAACEL_HPXV_B                                                                                                                    
               4 000003D0 FFFFFFFB     A  A              1695                                                                        
 CEECAACEL_HPXV_L                                                                                                                    
               4 000003D8 FFFFFFFB     A  A              1699                                                                        
 CEECAACEL_HPXV_M                                                                                                                    
               4 000003D4 FFFFFFFB     A  A              1697                                                                        
 CEECAACEL_HPXV_O                                                                                                                    
               4 000003DC FFFFFFFB     A  A              1702                                                                        
 CEECAACELV                                                                                                                          
               4 000002B8 FFFFFFFB     A  A              1538                                                                        
 CEECAACEL4VEC3                                                                                                                      
               4 000003E0 FFFFFFFB     A  A              1705                                                                        
 CEECAACFLTINIT                                                                                                                      
               8 000001F8 FFFFFFFB     X  X              1443                                                                        
 CEECAACGENE                                                                                                                         
               4 000001F0 FFFFFFFB     A  A              1441                                                                        
 CEECAACGOTO                                                                                                                         
               4 000001DC FFFFFFFB     X  X              1435                                                                        
 CEECAACICSRSN                                                                                                                       
               4 00000354 FFFFFFFB     A  A              1637                                                                        
 CEECAACIO                                                                                                                           
               4 00000220 FFFFFFFB     A  A              1478                                                                        
 CEECAACPCB                                                                                                                          
               4 00000214 FFFFFFFB     A  A              1474                                                                        
 CEECAACPRMS                                                                                                                         
               4 00000200 FFFFFFFB     A  A              1444                                                                        
 CEECAACRENT                                                                                                                         
               4 000001F4 FFFFFFFB     A  A              1442                                                                        
 CEECAACTHD                                                                                                                          
               4 00000208 FFFFFFFB     A  A              1471                                                                        
 CEECAACTOFSV                                                                                                                        
               4 00000238 FFFFFFFB     F  F              1485                                                                        
 CEECAACURRFECB                                                                                                                      
               4 0000020C FFFFFFFB     A  A              1472                                                                        
 CEECAADBGINIT                                                                                                                       
               1 00000020 FFFFFFFB A   U                 1399                                                                        
 CEECAADDSA                                                                                                                          
1                               Ordinary Symbol and Literal Cross Reference                                     Page   44            
-Symbol   Length   Value     Id    R Type Asm  Program   Defn References                     HLASM R6.0  2012/03/05 13.03            
0              4 000002E0 FFFFFFFB     A  A              1550                                                                        
 CEECAADIMA                                                                                                                          
               4 000001A4 FFFFFFFB     A  A              1418                                                                        
 CEECAADMC                                                                                                                           
               4 000002CC FFFFFFFB     A  A              1543                                                                        
 CEECAADO      4 000001C8 FFFFFFFB     X  X              1430                                                                        
 CEECAAEDB                                                                                                                           
               4 000002F0 FFFFFFFB     A  A              1554                                                                        
 CEECAAEDCHPXV                                                                                                                       
               4 0000036C FFFFFFFB     A  A              1645                                                                        
 CEECAAEDCOV                                                                                                                         
               4 00000234 FFFFFFFB     A  A              1484                                                                        
 CEECAAEDCV                                                                                                                          
               4 00000210 FFFFFFFB     A  A              1473                                                                        
 CEECAAENTRY                                                                                                                         
               4 000001B0 FFFFFFFB     X  X              1423                                                                        
 CEECAAEOS                                                                                                                           
               4 0000000C FFFFFFFB     A  A              1406  410                                                                   
 CEECAAERR                                                                                                                           
               4 000002D8 FFFFFFFB     A  A              1548                                                                        
 CEECAAEXIT                                                                                                                          
               4 000001B4 FFFFFFFB     X  X              1424                                                                        
 CEECAAEYEPTR                                                                                                                        
               4 000002F8 FFFFFFFB     A  A              1559                                                                        
 CEECAAFCBMUTEXOK                                                                                                                    
               2 00000228 FFFFFFFB     X  X              1480                                                                        
 CEECAAFDSETFD                                                                                                                       
               4 00000224 FFFFFFFB     F  F              1479                                                                        
 CEECAAFLAG0                                                                                                                         
               1 00000000 FFFFFFFB     X  X              1395                                                                        
 CEECAAFLAG1                                                                                                                         
               1 0000030C FFFFFFFB     X  X              1564                                                                        
 CEECAAFLAG2                                                                                                                         
               1 000002AF FFFFFFFB     X  X              1520                                                                        
 CEECAAFOR1                                                                                                                          
               4 00000370 FFFFFFFB     A  A              1646                                                                        
 CEECAAFOR2                                                                                                                          
               4 00000374 FFFFFFFB     A  A              1647                                                                        
 CEECAAGETFN                                                                                                                         
               4 00000384 FFFFFFFB     A  A              1651                                                                        
 CEECAAGETLS                                                                                                                         
               4 000002B4 FFFFFFFB     A  A              1537                                                                        
 CEECAAGETS                                                                                                                          
               4 000002BC FFFFFFFB     A  A              1539  412                                                                   
 CEECAAGETSX                                                                                                                         
               4 000002DC FFFFFFFB     A  A              1549                                                                        
 CEECAAGETS1                                                                                                                         
               4 00000300 FFFFFFFB     A  A              1561                                                                        
 CEECAAGOSMR                                                                                                                         
               2 0000032C FFFFFFFB     H  H              1578                                                                        
 CEECAAHERP                                                                                                                          
               4 000003B8 FFFFFFFB     A  A              1686                                                                        
 CEECAAHLLEXIT                                                                                                                       
               4 0000015C FFFFFFFB     A  A              1415                                                                        
 CEECAAHOOK                                                                                                                          
1                               Ordinary Symbol and Literal Cross Reference                                     Page   45            
-Symbol   Length   Value     Id    R Type Asm  Program   Defn References                     HLASM R6.0  2012/03/05 13.03            
0             12 00000198 FFFFFFFB     X  X              1417                                                                        
 CEECAAHOOKS                                                                                                                         
              68 000001A8 FFFFFFFB     C  C              1420                                                                        
 CEECAAHPGETS                                                                                                                        
               4 00000368 FFFFFFFB     A  A              1644                                                                        
 CEECAAHRDWR                                                                                                                         
               1 000002AD FFFFFFFB     X  X              1508                                                                        
 CEECAAHWESA                                                                                                                         
               1 00000004 FFFFFFFB A   U                 1513                                                                        
 CEECAAHWUND                                                                                                                         
               1 00000000 FFFFFFFB A   U                 1509                                                                        
 CEECAAHWUNS                                                                                                                         
               1 00000001 FFFFFFFB A   U                 1510                                                                        
 CEECAAHWXA                                                                                                                          
               1 00000003 FFFFFFFB A   U                 1512                                                                        
 CEECAAHW370                                                                                                                         
               1 00000002 FFFFFFFB A   U                 1511                                                                        
 CEECAAIFFALSE                                                                                                                       
               4 000001D0 FFFFFFFB     X  X              1432                                                                        
 CEECAAIFTRUE                                                                                                                        
               4 000001CC FFFFFFFB     X  X              1431                                                                        
 CEECAALABEL                                                                                                                         
               4 000001BC FFFFFFFB     X  X              1427                                                                        
 CEECAALANGP                                                                                                                         
               1 00000002 FFFFFFFB     X  X              1400                                                                        
 CEECAALBOS                                                                                                                          
               4 000002C0 FFFFFFFB     A  A              1540                                                                        
 CEECAALEOS                                                                                                                          
               4 000002C4 FFFFFFFB     A  A              1541                                                                        
 CEECAALEOV                                                                                                                          
               4 00000330 FFFFFFFB     A  A              1581                                                                        
 CEECAALEVEL                                                                                                                         
               1 000002B0 FFFFFFFB     X  X              1533                                                                        
 CEECAALNAB                                                                                                                          
               4 000002C8 FFFFFFFB     A  A              1542                                                                        
 CEECAALWS                                                                                                                           
               4 00000280 FFFFFFFB     A  A              1499  426                                                                   
 CEECAAMEMBR                                                                                                                         
               4 00000358 FFFFFFFB     A  A              1639                                                                        
 CEECAAMEVMASK                                                                                                                       
               4 000001EC FFFFFFFB     X  X              1440                                                                        
 CEECAAMEXIT                                                                                                                         
               4 000001B8 FFFFFFFB     X  X              1425                                                                        
 CEECAAMULTEVT                                                                                                                       
               4 000001E8 FFFFFFFB     X  X              1438                                                                        
 CEECAAOTHER                                                                                                                         
               4 000001D8 FFFFFFFB     X  X              1434                                                                        
 CEECAAPARTSUM                                                                                                                       
               4 000002E8 FFFFFFFB     F  F              1552                                                                        
 CEECAAPATHS                                                                                                                         
              32 000001BC FFFFFFFB     C  C              1426                                                                        
 CEECAAPCB                                                                                                                           
               4 000002F4 FFFFFFFB     A  A              1555                                                                        
 CEECAAPICICB                                                                                                                        
               4 00000324 FFFFFFFB     A  A              1575                                                                        
1                               Ordinary Symbol and Literal Cross Reference                                     Page   46            
-Symbol   Length   Value     Id    R Type Asm  Program   Defn References                     HLASM R6.0  2012/03/05 13.03            
0CEECAAPRGCK                                                                                                                         
               4 00000308 FFFFFFFB     A  A              1563                                                                        
 CEECAAPTR                                                                                                                           
               4 000002FC FFFFFFFB     A  A              1560                                                                        
 CEECAARCB                                                                                                                           
               4 00000350 FFFFFFFB     A  A              1636                                                                        
 CEECAARS      4 000002D4 FFFFFFFB     X  X              1547 1683                                                                   
 CEECAARSNCODE                                                                                                                       
               4 000002D4 FFFFFFFB     F  F              1546                                                                        
 CEECAARSRV1                                                                                                                         
               4 00000314 FFFFFFFB     A  A              1570                                                                        
 CEECAARSRV2                                                                                                                         
               4 00000328 FFFFFFFB     A  A              1576                                                                        
 CEECAARSVDH1                                                                                                                        
               4 000001E0 FFFFFFFB     X  X              1436                                                                        
 CEECAARSVDH2                                                                                                                        
               4 000001E4 FFFFFFFB     X  X              1437                                                                        
 CEECAASAVR                                                                                                                          
               4 00000284 FFFFFFFB     A  A              1500                                                                        
 CEECAASBSYS                                                                                                                         
               1 000002AE FFFFFFFB     X  X              1514                                                                        
 CEECAASECTSIZ                                                                                                                       
               4 000002E4 FFFFFFFB     F  F              1551                                                                        
 CEECAASHAB                                                                                                                          
               4 00000304 FFFFFFFB     A  A              1562                                                                        
 CEECAASIGNG                                                                                                                         
               4 00000394 FFFFFFFB     F  F              1663                                                                        
 CEECAASIGNGPTR                                                                                                                      
               4 00000390 FFFFFFFB     A  A              1661                                                                        
 CEECAASORT                                                                                                                          
               1 00000080 FFFFFFFB A   U                 1565                                                                        
 CEECAASPCFLAG3                                                                                                                      
               1 0000021F FFFFFFFB     X  X              1477                                                                        
 CEECAASSCIC                                                                                                                         
               1 00000005 FFFFFFFB A   U                 1519                                                                        
 CEECAASSEXPNT                                                                                                                       
               4 000002EC FFFFFFFB     F  F              1553                                                                        
 CEECAASSNON                                                                                                                         
               1 00000002 FFFFFFFB A   U                 1517                                                                        
 CEECAASSTSO                                                                                                                         
               1 00000003 FFFFFFFB A   U                 1518                                                                        
 CEECAASSUND                                                                                                                         
               1 00000000 FFFFFFFB A   U                 1515                                                                        
 CEECAASSUNS                                                                                                                         
               1 00000001 FFFFFFFB A   U                 1516                                                                        
 CEECAASTACK_DOWN                                                                                                                    
               1 00000001 FFFFFFFB A   U                 1677                                                                        
 CEECAASTACK_UP                                                                                                                      
               1 00000000 FFFFFFFB A   U                 1676                                                                        
 CEECAASTATE                                                                                                                         
               4 000001AC FFFFFFFB     X  X              1422                                                                        
 CEECAASYMVS                                                                                                                         
               1 00000003 FFFFFFFB A   U                 1507                                                                        
 CEECAASYSTM                                                                                                                         
               1 000002AC FFFFFFFB     X  X              1503                                                                        
1                               Ordinary Symbol and Literal Cross Reference                                     Page   47            
-Symbol   Length   Value     Id    R Type Asm  Program   Defn References                     HLASM R6.0  2012/03/05 13.03            
0CEECAASYUND                                                                                                                         
               1 00000000 FFFFFFFB A   U                 1504                                                                        
 CEECAASYUNS                                                                                                                         
               1 00000001 FFFFFFFB A   U                 1505                                                                        
 CEECAASYVM                                                                                                                          
               1 00000002 FFFFFFFB A   U                 1506                                                                        
 CEECAATC16                                                                                                                          
               4 0000022C FFFFFFFB     F  F              1482                                                                        
 CEECAATC17                                                                                                                          
               4 00000230 FFFFFFFB     F  F              1483                                                                        
 CEECAATHDID                                                                                                                         
               8 0000033C FFFFFFFB     C  C              1632                                                                        
 CEECAATHFN                                                                                                                          
               1 00000008 FFFFFFFB A   U                 1401                                                                        
 CEECAATHREADHEAPID                                                                                                                  
               4 00000378 FFFFFFFB     A  A              1648                                                                        
 CEECAATIP                                                                                                                           
               1 00000020 FFFFFFFB A   U                 1523                                                                        
 CEECAATORC                                                                                                                          
               4 00000044 FFFFFFFB     F  F              1408                                                                        
 CEECAATOVF                                                                                                                          
               4 00000074 FFFFFFFB     A  A              1410                                                                        
 CEECAATRTSPACE                                                                                                                      
               4 0000023C FFFFFFFB     A  A              1486                                                                        
 CEECAAUDHOOK                                                                                                                        
               8 000003C8 FFFFFFFB     X  X              1690                                                                        
 CEECAAURC                                                                                                                           
               4 00000310 FFFFFFFB     F  F              1569                                                                        
 CEECAAUSERRTN@                                                                                                                      
               4 000003C4 FFFFFFFB     A  A              1689                                                                        
 CEECAAUSTKBOS                                                                                                                       
               4 000003BC FFFFFFFB     A  A              1687                                                                        
 CEECAAUSTKEOS                                                                                                                       
               4 000003C0 FFFFFFFB     A  A              1688                                                                        
 CEECAAWHEN                                                                                                                          
               4 000001D4 FFFFFFFB     X  X              1433                                                                        
 CEECAAXHDL                                                                                                                          
               1 00000002 FFFFFFFB A   U                 1396                                                                        
 CEECELVGTUN                                                                                                                         
               1 00000094 FFFFFFFB A   U                 1717                                                                        
 CEEDSA        1 00000000 FFFFFFFF     J                  787  398M  406   419M  420M  421M  421   422M  425U  431U  827   873   934 
 CEEDSA_STDCEEDSA                                                                                                                    
               1 00000000 FFFFFFFF A   U                  828                                                                        
 CEEDSAAUTO                                                                                                                          
               8 00000080 FFFFFFFF     D  D               825                                                                        
 CEEDSABKC                                                                                                                           
               4 00000004 FFFFFFFF     A  A               794  419M                                                                  
 CEEDSACILC                                                                                                                          
               4 00000068 FFFFFFFF     A  A               817                                                                        
 CEEDSAEND                                                                                                                           
               8 00000080 FFFFFFFF     D  D               826  827                                                                   
 CEEDSAEXIT                                                                                                                          
               1 00000008 FFFFFFFF A   U                  792                                                                        
 CEEDSAFLAGS                                                                                                                         
               2 00000000 FFFFFFFF     X  X               789  421M  421                                                             
1                               Ordinary Symbol and Literal Cross Reference                                     Page   48            
-Symbol   Length   Value     Id    R Type Asm  Program   Defn References                     HLASM R6.0  2012/03/05 13.03            
0CEEDSAFWC                                                                                                                           
               4 00000008 FFFFFFFF     A  A               795  422M                                                                  
 CEEDSAHP      1 00000000 FFFFFFFE     J                  837                                                                        
 CEEDSAHP_ARG_PRE                                                                                                                    
               4 0000083C FFFFFFFE     A  A               867                                                                        
 CEEDSAHP_ARGLIST                                                                                                                    
               1 00000840 FFFFFFFE     X  X               870                                                                        
 CEEDSAHP_BIAS                                                                                                                       
            2048 00000000 FFFFFFFE     X  X               843  844                                                                   
 CEEDSAHP_FIXED                                                                                                                      
               1 00000800 FFFFFFFE     X  X               845  847   849   869                                                       
 CEEDSAHPBIASSZ                                                                                                                      
               1 00000800 FFFFFFFE A   U                  844                                                                        
 CEEDSAHPMBRUSE                                                                                                                      
               4 00000834 FFFFFFFE     F  F               865                                                                        
 CEEDSAHPRENT                                                                                                                        
               4 0000083C FFFFFFFE     A  A               868                                                                        
 CEEDSAHPR10                                                                                                                         
               4 00000818 FFFFFFFE     F  F               858                                                                        
 CEEDSAHPR11                                                                                                                         
               4 0000081C FFFFFFFE     F  F               859                                                                        
 CEEDSAHPR12                                                                                                                         
               4 00000820 FFFFFFFE     F  F               860                                                                        
 CEEDSAHPR13                                                                                                                         
               4 00000824 FFFFFFFE     F  F               861                                                                        
 CEEDSAHPR14                                                                                                                         
               4 00000828 FFFFFFFE     F  F               862                                                                        
 CEEDSAHPR15                                                                                                                         
               4 0000082C FFFFFFFE     F  F               863                                                                        
 CEEDSAHPR4                                                                                                                          
               4 00000800 FFFFFFFE     F  F               850                                                                        
 CEEDSAHPR5                                                                                                                          
               4 00000804 FFFFFFFE     F  F               851                                                                        
 CEEDSAHPR6                                                                                                                          
               4 00000808 FFFFFFFE     F  F               852                                                                        
 CEEDSAHPR7                                                                                                                          
               4 0000080C FFFFFFFE     F  F               853                                                                        
 CEEDSAHPR8                                                                                                                          
               4 00000810 FFFFFFFE     F  F               856                                                                        
 CEEDSAHPR9                                                                                                                          
               4 00000814 FFFFFFFE     F  F               857                                                                        
 CEEDSAHPSZ                                                                                                                          
               1 00000040 FFFFFFFE A   U                  869                                                                        
 CEEDSAHPTRAN                                                                                                                        
               4 00000838 FFFFFFFE     A  A               866                                                                        
 CEEDSAHP4TO15                                                                                                                       
               4 00000800 FFFFFFFE     F  F               846                                                                        
 CEEDSAHP4TO7                                                                                                                        
               4 00000800 FFFFFFFE     F  F               848                                                                        
 CEEDSAHP8TO15                                                                                                                       
               4 00000810 FFFFFFFE     F  F               854  855                                                                   
 CEEDSALNGC                                                                                                                          
               1 00001000 FFFFFFFF A   U                  790                                                                        
 CEEDSALNGP                                                                                                                          
               1 00000800 FFFFFFFF A   U                  791                                                                        
1                               Ordinary Symbol and Literal Cross Reference                                     Page   49            
-Symbol   Length   Value     Id    R Type Asm  Program   Defn References                     HLASM R6.0  2012/03/05 13.03            
0CEEDSALWS                                                                                                                           
               4 00000048 FFFFFFFF     A  A               811  426M                                                                  
 CEEDSAMEMD                                                                                                                          
               2 00000002 FFFFFFFF     X  X               793                                                                        
 CEEDSAMODE                                                                                                                          
               4 0000006C FFFFFFFF     A  A               818                                                                        
 CEEDSANAB                                                                                                                           
               4 0000004C FFFFFFFF     A  A               812  406   420M                                                            
 CEEDSAPNAB                                                                                                                          
               4 00000050 FFFFFFFF     A  A               813                                                                        
 CEEDSARENT                                                                                                                          
               4 00000064 FFFFFFFF     A  A               816                                                                        
 CEEDSARMR                                                                                                                           
               4 00000078 FFFFFFFF     A  A               821                                                                        
 CEEDSAR0      4 00000014 FFFFFFFF     F  F               798                                                                        
 CEEDSAR1      4 00000018 FFFFFFFF     F  F               799                                                                        
 CEEDSAR10                                                                                                                           
               4 0000003C FFFFFFFF     F  F               808                                                                        
 CEEDSAR11                                                                                                                           
               4 00000040 FFFFFFFF     F  F               809                                                                        
 CEEDSAR12                                                                                                                           
               4 00000044 FFFFFFFF     F  F               810                                                                        
 CEEDSAR14                                                                                                                           
               4 0000000C FFFFFFFF     F  F               796  398M                                                                  
 CEEDSAR15                                                                                                                           
               4 00000010 FFFFFFFF     F  F               797                                                                        
 CEEDSAR2      4 0000001C FFFFFFFF     F  F               800                                                                        
 CEEDSAR3      4 00000020 FFFFFFFF     F  F               801                                                                        
 CEEDSAR4      4 00000024 FFFFFFFF     F  F               802                                                                        
 CEEDSAR5      4 00000028 FFFFFFFF     F  F               803                                                                        
 CEEDSAR6      4 0000002C FFFFFFFF     F  F               804                                                                        
 CEEDSAR7      4 00000030 FFFFFFFF     F  F               805                                                                        
 CEEDSAR8      4 00000034 FFFFFFFF     F  F               806                                                                        
 CEEDSAR9      4 00000038 FFFFFFFF     F  F               807                                                                        
 CEEDSASZ      8 00000080 FFFFFFFF A   U                  827                                                                        
 CEEDSATRAN                                                                                                                          
               4 00000064 FFFFFFFF     A  A               815                                                                        
 CEEINPL       8 00000548 00000001     D  D               733  416   735                                                             
 CEEINPLSTST                                                                                                                         
               4 00000550 00000001     F  F               736  735                                                                   
 CEEINPL0003                                                                                                                         
               4 00000050 00000001     A  A               416  399                                                                   
 CEEINT        1 00000000 00000002     T                  417  417                                                                   
 CEEINT0003                                                                                                                          
               4 00000054 00000001     V  V               417  400                                                                   
 CEEMAIN       1 00000598 00000003     J                  466  467   468                                                             
 CEESTART      1 00000000 00000007     T                  753  742   759                                                             
 CEETERM_BLOCK                                                                                                                       
               4 000000E0 FFFFFFFF     F  F               924  456M  457M  458   459M  461M  462M  463                               
 CEETIMES      4 00000580 00000001     F  F               771  761                                                                   
 CEETREC       1 00000000 00000006     T                  655  655                                                                   
 CEEX0003      1 00000058 00000001     U                  418  411B  415B                                                            
 CEEY0003      1 000002B8 00000001 A   U                  391  392   407   408   408                                                 
 CEEZ0003      1 00000014 00000001     U                  397  389B                                                                  
 CEE3DMP       4 000002AC 00000001     V  V               639  613                                                                   
1                               Ordinary Symbol and Literal Cross Reference                                     Page   50            
-Symbol   Length   Value     Id    R Type Asm  Program   Defn References                     HLASM R6.0  2012/03/05 13.03            
0CEE3DMP       1 00000000 00000005     T                  639  639                                                                   
 CEE3INF       4 000002A8 00000001     V  V               637  476                                                                   
 CEE3INF       1 00000000 00000004     T                  637  637                                                                   
 CEL_LEVEL_IDENTIFIER                                                                                                                
               1 00000018 FFFFFFFB A   U                 1534                                                                        
 CID_GET_USERID#                                                                                                                     
               1 00000002 FFFFFFFF A   U                 1217                                                                        
 CID_GET_UUID#                                                                                                                       
               1 00000001 FFFFFFFF A   U                 1216                                                                        
 CONSOLE_MODIFY                                                                                                                      
               1 00000001 FFFFFFFF A   U                 1243                                                                        
 CONSOLE_STOP                                                                                                                        
               1 00000002 FFFFFFFF A   U                 1244                                                                        
 COUNT         4 0000009C FFFFFFFF     F  F               884                                                                        
 CPRIO_ABSOLUTE                                                                                                                      
               1 00000001 FFFFFFFF A   U                 1050                                                                        
 CPRIO_RELATIVE                                                                                                                      
               1 00000002 FFFFFFFF A   U                 1051                                                                        
 DASHDASH      1 00000080 FFFFFFFF A   U                  933  543                                                                   
 DFLT_ARG_MAX                                                                                                                        
               1 00100000 FFFFFFFF A   U                  938                                                                        
 DFLT_CHILD_MAX                                                                                                                      
               1 00000006 FFFFFFFF A   U                  939                                                                        
 DFLT_CLK_TCK                                                                                                                        
               1 00000064 FFFFFFFF A   U                  941                                                                        
 DFLT_JOB_CONTROL                                                                                                                    
               1 00000001 FFFFFFFF A   U                  948                                                                        
 DFLT_NGROUPS_MAX                                                                                                                    
               1 00001FFF FFFFFFFF A   U                  943                                                                        
 DFLT_OPEN_MAX                                                                                                                       
               1 00000010 FFFFFFFF A   U                  945                                                                        
 DFLT_PASSWDLEN_MAX                                                                                                                  
               1 00000008 FFFFFFFF A   U                  953                                                                        
 DFLT_PASSWDPHRLEN_MAX                                                                                                               
               1 00000064 FFFFFFFF A   U                  954                                                                        
 DFLT_SAVED_IDS                                                                                                                      
               1 00000001 FFFFFFFF A   U                  949                                                                        
 DFLT_THREAD_TASKS_MAX_NP                                                                                                            
               1 00000032 FFFFFFFF A   U                  951                                                                        
 DFLT_TZNAME_MAX                                                                                                                     
               1 00000009 FFFFFFFF A   U                  947                                                                        
 DFLT_USERIDLEN_MAX                                                                                                                  
               1 00000008 FFFFFFFF A   U                  952                                                                        
 DFLT_VERSION                                                                                                                        
               1 00030961 FFFFFFFF A   U                  950                                                                        
 DFLT_2_CHAR_TERM                                                                                                                    
               1 00000001 FFFFFFFF A   U                  955                                                                        
 DFP_CLEANUP_EXIT_REG                                                                                                                
               1 00000005 FFFFFFFF A   U                 1114                                                                        
 DIRECTEDLOADMODULEENTRYPT                                                                                                           
               4 00000014 FFFFFFFD     A  A              1341                                                                        
 DIRECTEDLOADMODULEENTRYPT64                                                                                                         
               8 00000010 FFFFFFFD     A  AD             1338 1339                                                                   
 DIRECTEDLOADMODULELENGTH                                                                                                            
               4 00000004 FFFFFFFD     F  F              1331                                                                        
1                               Ordinary Symbol and Literal Cross Reference                                     Page   51            
-Symbol   Length   Value     Id    R Type Asm  Program   Defn References                     HLASM R6.0  2012/03/05 13.03            
0DIRECTEDLOADMODULELENGTH64                                                                                                          
               8 00000000 FFFFFFFD     F  FD             1328 1329                                                                   
 DIRECTEDLOADMODULESTART                                                                                                             
               4 0000000C FFFFFFFD     A  A              1336                                                                        
 DIRECTEDLOADMODULESTART64                                                                                                           
               8 00000008 FFFFFFFD     A  AD             1333 1334                                                                   
 DIRECTEDLOADRETURNEDPARMS                                                                                                           
               1 00000000 FFFFFFFD     J                 1327                                                                        
 DSASIZE       1 000002B1 FFFFFFFF A   U                  934  391                                                                   
 DUBABENDCALLS                                                                                                                       
               1 00000040 FFFFFFFF A   U                 1034                                                                        
 DUBFAILNOTREADY                                                                                                                     
               1 00000100 FFFFFFFF A   U                 1038                                                                        
 DUBJOBPERM                                                                                                                          
               1 00000010 FFFFFFFF A   U                 1031                                                                        
 DUBNOJSTUNDUB                                                                                                                       
               1 00000020 FFFFFFFF A   U                 1032                                                                        
 DUBNOSIGNALS                                                                                                                        
               1 00000008 FFFFFFFF A   U                 1030                                                                        
 DUBPROCESS                                                                                                                          
               1 00000001 FFFFFFFF A   U                 1027                                                                        
 DUBPROCESSDEFER                                                                                                                     
               1 00000004 FFFFFFFF A   U                 1029                                                                        
 DUBTASKACEE                                                                                                                         
               1 00000002 FFFFFFFF A   U                 1028                                                                        
 DUBTHREAD                                                                                                                           
               1 00000000 FFFFFFFF A   U                 1026                                                                        
 DUBUNIQUEACEE                                                                                                                       
               1 00000080 FFFFFFFF A   U                 1037                                                                        
 DUMP          2 00000266 00000001     H  H               610                                                                        
 DUMPOPTS    255 00000312 00000001     C  C               644  623                                                                   
 DYN_Opt_Next_Arg                                                                                                                    
               2 0000020C 00000001     H  H               579  571B  573B                                                            
 DYN_Opt_Save                                                                                                                        
               2 000001EA 00000001     H  H               569                                                                        
 DYN_Opts      4 00000080 FFFFFFFF     F  F               877  525M  567   575M  585M                                                
 DYN_Opts_Len                                                                                                                        
               4 00000084 FFFFFFFF     F  F               878  526M  577M  586M                                                      
 ENQWAIT_PROCESS                                                                                                                     
               1 00000001 FFFFFFFF A   U                 1108                                                                        
 ENV           4 000000B4 FFFFFFFF     F  F               912  486                                                                   
 ENV_DEREGISTERBLOCK                                                                                                                 
               1 00000003 FFFFFFFF A   U                 1177                                                                        
 ENV_DEREGISTERNOTIFY                                                                                                                
               1 00000006 FFFFFFFF A   U                 1180                                                                        
 ENV_DEREGISTERPERM                                                                                                                  
               1 00000004 FFFFFFFF A   U                 1178                                                                        
 ENV_REGISTERBLOCK                                                                                                                   
               1 00000001 FFFFFFFF A   U                 1175                                                                        
 ENV_REGISTERJOB                                                                                                                     
               1 00000001 FFFFFFFF A   U                 1181                                                                        
 ENV_REGISTERNOTIFY                                                                                                                  
               1 00000005 FFFFFFFF A   U                 1179                                                                        
 ENV_REGISTERPERMP                                                                                                                   
               1 00000002 FFFFFFFF A   U                 1176                                                                        
1                               Ordinary Symbol and Literal Cross Reference                                     Page   52            
-Symbol   Length   Value     Id    R Type Asm  Program   Defn References                     HLASM R6.0  2012/03/05 13.03            
0ENV_REGISTERPROC                                                                                                                    
               1 00000002 FFFFFFFF A   U                 1182                                                                        
 ENV_STOR_SERVICE                                                                                                                    
               1 00000007 FFFFFFFF A   U                 1116                                                                        
 ENV_TOGGLE_SEC                                                                                                                      
               1 00000004 FFFFFFFF A   U                 1113                                                                        
 FC            4 000000C0 FFFFFFFF     F  F               917  492   625                                                             
 FREEZE_EXIT                                                                                                                         
               1 00000008 FFFFFFFF A   U                 1012                                                                        
 FREEZE_EXIT_REG                                                                                                                     
               1 00000002 FFFFFFFF A   U                 1110                                                                        
 FREEZE_THIS_THREAD                                                                                                                  
               1 00000006 FFFFFFFF A   U                 1010                                                                        
 FTEE          1 00000000 00000001     J                  380  381   382   383   393   428   429U  469   471   762  1792             
 FTEE_PPA      4 00000524 00000001     F  F               675  393                                                                   
 GO            2 000000DA 00000001     H  H               472  432B                                                                  
 GOBACK        2 0000007E 00000001     H  H               433  591B  596B  609B                                                      
 GPID          4 000000BC FFFFFFFF     F  F               916  490                                                                   
 IHB0008B      4 0000009C 00000001     F  F               448  443B                                                                  
 IHB0008F      1 00000098 00000001     B  B               444  449                                                                   
 IOV           1 00000000 FFFFFFFC     J                 1375                                                                        
 IOV_ALET      4 000002A4 00000001     U                  635                                                                        
 IOV_BASE      4 00000000 FFFFFFFC     A  A              1378                                                                        
 IOV_BUFFER_ALET                                                                                                                     
               4 000002A4 00000001     U                  636                                                                        
 IOV_COUNT                                                                                                                           
               4 00000168 FFFFFFFF     F  F               926                                                                        
 IOV_ENTRY                                                                                                                           
               4 00000000 FFFFFFFC     F  F              1376 1381                                                                   
 IOV_LEN       4 00000004 FFFFFFFC     F  F              1379                                                                        
 IOV_MAX       1 00000078 FFFFFFFC A   U                 1382                                                                        
 IOV_STRUC                                                                                                                           
               8 00000170 FFFFFFFF     D  D               927  929                                                                   
 IOV_STRUC_L                                                                                                                         
               1 00000140 FFFFFFFF A   U                  929  930                                                                   
 IOV_STRUC_N                                                                                                                         
               1 00000028 FFFFFFFF A   U                  930                                                                        
 IOV#LENGTH                                                                                                                          
               1 00000008 FFFFFFFC A   U                 1381                                                                        
 IOV@          4 0000008C FFFFFFFF     A  A               880  434   498M  498                                                       
 IOVL          4 00000090 FFFFFFFF     F  F               881  436   499M  499                                                       
 LD2_0019      2 0000012C 00000001     H  H               505  508                                                                   
 LD2_0022      2 00000144 00000001     H  H               517  520                                                                   
 LEPTRLEN      1 00000004 FFFFFFFE A   U                  841                                                                        
 LE2_0019      8 0000012C 00000001     C  C               506  508                                                                   
 LE2_0022      8 00000144 00000001     C  C               518  520                                                                   
 LOAD2_0019                                                                                                                          
               2 00000134 00000001     H  H               507  504B                                                                  
 LOAD2_0022                                                                                                                          
               2 0000014C 00000001     H  H               519  516B                                                                  
 LOD_DIRECTED                                                                                                                        
               1 20000000 FFFFFFFF A   U                 1325                                                                        
 LOD_ERROR_ST_EXLINK                                                                                                                 
               1 80000000 FFFFFFFF A   U                 1318                                                                        
 LOD_IGNORE_STICKY                                                                                                                   
1                               Ordinary Symbol and Literal Cross Reference                                     Page   53            
-Symbol   Length   Value     Id    R Type Asm  Program   Defn References                     HLASM R6.0  2012/03/05 13.03            
0              1 40000000 FFFFFFFF A   U                 1319                                                                        
 LOOP          2 0000018E 00000001     H  H               538  563B                                                                  
 MAP_FIXED                                                                                                                           
               1 00000004 FFFFFFFF A   U                 1062                                                                        
 MAP_MEGA      1 00000008 FFFFFFFF A   U                 1063                                                                        
 MAP_PRIVATE                                                                                                                         
               1 00000001 FFFFFFFF A   U                 1060                                                                        
 MAP_SHARED                                                                                                                          
               1 00000002 FFFFFFFF A   U                 1061                                                                        
 MEMBER        4 000000B8 FFFFFFFF     F  F               914  488                                                                   
 MODIFIER      4 000000D4 FFFFFFFF     F  F               920  590M  590                                                             
 MS_ASYNC      1 00000002 FFFFFFFF A   U                 1066                                                                        
 MS_INVALIDATE                                                                                                                       
               1 00000004 FFFFFFFF A   U                 1067                                                                        
 MS_SYNC       1 00000001 FFFFFFFF A   U                 1065                                                                        
 MSC_DISABLED                                                                                                                        
               1 00000000 FFFFFFFF A   U                 1146                                                                        
 MSC_ENABLE                                                                                                                          
               1 00000001 FFFFFFFF A   U                 1142                                                                        
 MSC_ENABLED                                                                                                                         
               1 00000001 FFFFFFFF A   U                 1147                                                                        
 MSC_ENABLED_COND                                                                                                                    
               1 00000002 FFFFFFFF A   U                 1149                                                                        
 MSC_QUERY                                                                                                                           
               1 00000000 FFFFFFFF A   U                 1141                                                                        
 MUST_STAY_CLEAN                                                                                                                     
               1 0000000D FFFFFFFF A   U                 1128                                                                        
 MVS_USERID                                                                                                                          
               1 00000003 FFFFFFFF A   U                 1112                                                                        
 NextLOOP      2 000001D4 00000001     H  H               560  541B  549B  553B  556B  578B  587B                                    
 NextOpt       2 000001C0 00000001     H  H               554  559B                                                                  
 NICE_ZERO                                                                                                                           
               1 00000014 FFFFFFFF A   U                 1044                                                                        
 NL            1 000002C1 00000001     C  C               642                                                                        
 NoFiles       2 000001E0 00000001     H  H               564  529B  534B                                                            
 NOFREE        2 000000B0 00000001     H  H               454  435B  437B                                                            
 NoMoreArgs                                                                                                                          
               2 00000240 00000001     H  H               592  581B                                                                  
 NotOpt        2 000001B0 00000001     H  H               547  544B                                                                  
 NOTUNIX       2 0000024E 00000001     H  H               597  497B                                                                  
 OPTION        1 000002B0 FFFFFFFF     X  X               932  527M  543                                                             
 Options       2 000001B8 00000001     H  H               551  546B                                                                  
 OSENV_GET                                                                                                                           
               1 00000001 FFFFFFFD A   U                 1349                                                                        
 OSENV_PERSIST                                                                                                                       
               1 00000008 FFFFFFFD A   U                 1352                                                                        
 OSENV_SECURITY                                                                                                                      
               1 00000002 FFFFFFFD A   U                 1356                                                                        
 OSENV_SET                                                                                                                           
               1 00000002 FFFFFFFD A   U                 1350                                                                        
 OSENV_UNPERSIST                                                                                                                     
               1 00000010 FFFFFFFD A   U                 1353                                                                        
 OSENV_UNSET                                                                                                                         
               1 00000004 FFFFFFFD A   U                 1351                                                                        
 OSENV_WLM                                                                                                                           
1                               Ordinary Symbol and Literal Cross Reference                                     Page   54            
-Symbol   Length   Value     Id    R Type Asm  Program   Defn References                     HLASM R6.0  2012/03/05 13.03            
0              1 00000001 FFFFFFFD A   U                 1355                                                                        
 OSMF_VER_HOM1110                                                                                                                    
               1 00000001 FFFFFFFF A   U                 1191                                                                        
 OSMF_VER_HOM1120                                                                                                                    
               1 00000002 FFFFFFFF A   U                 1192                                                                        
 OSMF_VER_HOM1130                                                                                                                    
               1 00000003 FFFFFFFF A   U                 1193                                                                        
 P_ALL         1 00000002 FFFFFFFF A   U                  997                                                                        
 P_PGID        1 00000001 FFFFFFFF A   U                  995                                                                        
 P_PID         1 00000000 FFFFFFFF A   U                  993                                                                        
 PAF_ADD_PID#                                                                                                                        
               1 00000001 FFFFFFFF A   U                 1220                                                                        
 PAF_DELETE_PID#                                                                                                                     
               1 00000002 FFFFFFFF A   U                 1221                                                                        
 PARMS         1 00000000 FFFFFFFA     J                 1718  474U                                                                  
 PC#ADDFILE                                                                                                                          
               1 80000007 FFFFFFFF A   U                 1279                                                                        
 PC#BRLMSRVR                                                                                                                         
               1 C0000011 FFFFFFFF A   U                 1294                                                                        
 PC#DELETEFILE                                                                                                                       
               1 80000008 FFFFFFFF A   U                 1280                                                                        
 PC#DIRGETHOST                                                                                                                       
               1 C0000014 FFFFFFFF A   U                 1297                                                                        
 PC#ERRORTEXT                                                                                                                        
               1 C000000B FFFFFFFF A   U                 1289                                                                        
 PC#ETACTION                                                                                                                         
               1 00000001 FFFFFFFF A   U                 1306                                                                        
 PC#ETDESC                                                                                                                           
               1 00000000 FFFFFFFF A   U                 1305                                                                        
 PC#ETERRNO                                                                                                                          
               1 00000001 FFFFFFFF A   U                 1310                                                                        
 PC#ETMODNAME                                                                                                                        
               1 00000002 FFFFFFFF A   U                 1307                                                                        
 PC#ETREASON                                                                                                                         
               1 00000000 FFFFFFFF A   U                 1309                                                                        
 PC#GETVNODETOKEN                                                                                                                    
               1 80000017 FFFFFFFF A   U                 1301                                                                        
 PC#HFSSTATS                                                                                                                         
               1 C0000010 FFFFFFFF A   U                 1293                                                                        
 PC#ISSRCADDR                                                                                                                        
               1 C0000018 FFFFFFFF A   U                 1303                                                                        
 PC#PfsRecycle                                                                                                                       
               1 8000000C FFFFFFFF A   U                 1284                                                                        
 PC#PfsRestart                                                                                                                       
               1 8000000D FFFFFFFF A   U                 1285                                                                        
 PC#PURGECACHE                                                                                                                       
               1 8000000A FFFFFFFF A   U                 1281                                                                        
 PC#RECYCLEDONE                                                                                                                      
               1 C0000016 FFFFFFFF A   U                 1299                                                                        
 PC#REFRESHCACHE                                                                                                                     
               1 80000009 FFFFFFFF A   U                 1282                                                                        
 PC#SETIBMASYIO                                                                                                                      
               1 C0000006 FFFFFFFF A   U                 1287                                                                        
 PC#SETIBMOPTCMD                                                                                                                     
               1 C0000005 FFFFFFFF A   U                 1288                                                                        
1                               Ordinary Symbol and Literal Cross Reference                                     Page   55            
-Symbol   Length   Value     Id    R Type Asm  Program   Defn References                     HLASM R6.0  2012/03/05 13.03            
0PC#SFSDIAG                                                                                                                          
               1 80000012 FFFFFFFF A   U                 1295                                                                        
 PC#SHUTDOWNFILESYS                                                                                                                  
               1 8000000B FFFFFFFF A   U                 1283                                                                        
 PC#SHUTTINGDOWNFS                                                                                                                   
               1 C0000015 FFFFFFFF A   U                 1298                                                                        
 PC#SYSNAMES                                                                                                                         
               1 C000000E FFFFFFFF A   U                 1291                                                                        
 PC#TDNAMES                                                                                                                          
               1 C000000F FFFFFFFF A   U                 1292                                                                        
 PC#TYPEFILEOWNER                                                                                                                    
               1 00000002 FFFFFFFF A   U                 1313                                                                        
 PC#TYPEFILESYS                                                                                                                      
               1 00000001 FFFFFFFF A   U                 1312                                                                        
 PC#TYPEOMVS                                                                                                                         
               1 00000003 FFFFFFFF A   U                 1314                                                                        
 PC#USERSIGNAL                                                                                                                       
               1 C0000013 FFFFFFFF A   U                 1296                                                                        
 PIDXFER_NO                                                                                                                          
               1 00000002 FFFFFFFF A   U                 1188                                                                        
 PIDXFER_QUERY                                                                                                                       
               1 0000000B FFFFFFFF A   U                 1124                                                                        
 PIDXFER_YES                                                                                                                         
               1 00000001 FFFFFFFF A   U                 1187                                                                        
 PPANL0035                                                                                                                           
               2 00000542 00000001     R  A               731  676                                                                   
 PPA10035      4 00000524 00000001     F  F               674                                                                        
 PPA2M0035                                                                                                                           
               4 0000057C 00000001     A  A               762  734   741                                                             
 PPA2S0035                                                                                                                           
               4 00000570 00000001     A  A               759                                                                        
 PPA20035      4 0000056C 00000001     F  F               754  695   761                                                             
 PRIO_PGRP                                                                                                                           
               1 00000002 FFFFFFFF A   U                 1047                                                                        
 PRIO_PROCESS                                                                                                                        
               1 00000001 FFFFFFFF A   U                 1046                                                                        
 PRIO_USER                                                                                                                           
               1 00000003 FFFFFFFF A   U                 1048                                                                        
 PROT_EXEC                                                                                                                           
               1 00000008 FFFFFFFF A   U                 1057                                                                        
 PROT_NONE                                                                                                                           
               1 00000004 FFFFFFFF A   U                 1056                                                                        
 PROT_READ                                                                                                                           
               1 00000001 FFFFFFFF A   U                 1054                                                                        
 PROT_WRITE                                                                                                                          
               1 00000002 FFFFFFFF A   U                 1055                                                                        
 PTEXITTHREAD                                                                                                                        
               1 00000000 FFFFFFFF A   U                 1000                                                                        
 PTFAILIFLASTTHREAD                                                                                                                  
               1 00000002 FFFFFFFF A   U                 1002                                                                        
 PTGETNEWTHREAD                                                                                                                      
               1 00000001 FFFFFFFF A   U                 1001                                                                        
 PTHREAD_INTR_ASYNCHRONOUS#                                                                                                          
               1 00000001 FFFFFFFF A   U                 1020                                                                        
 PTHREAD_INTR_CONTROLLED#                                                                                                            
1                               Ordinary Symbol and Literal Cross Reference                                     Page   56            
-Symbol   Length   Value     Id    R Type Asm  Program   Defn References                     HLASM R6.0  2012/03/05 13.03            
0              1 00000000 FFFFFFFF A   U                 1019                                                                        
 PTHREAD_INTR_DISABLE#                                                                                                               
               1 00000001 FFFFFFFF A   U                 1018                                                                        
 PTHREAD_INTR_ENABLE#                                                                                                                
               1 00000000 FFFFFFFF A   U                 1017                                                                        
 PTHREAD_QUERY                                                                                                                       
               1 00000003 FFFFFFFF A   U                 1007                                                                        
 QDB_DUB_AS_PROCESS                                                                                                                  
               1 00000010 FFFFFFFF A   U                 1099                                                                        
 QDB_DUB_AS_THREAD                                                                                                                   
               1 00000020 FFFFFFFF A   U                 1103                                                                        
 QDB_DUB_MAY_FAIL                                                                                                                    
               1 00000004 FFFFFFFF A   U                 1092                                                                        
 QDB_DUB_OKAY                                                                                                                        
               1 00000008 FFFFFFFF A   U                 1097                                                                        
 QDB_DUBBED                                                                                                                          
               1 00000002 FFFFFFFF A   U                 1089                                                                        
 QDB_DUBBED_FIRST                                                                                                                    
               1 00000001 FFFFFFFF A   U                 1086                                                                        
 QUERY_MODE                                                                                                                          
               1 0000000C FFFFFFFF A   U                 1126                                                                        
 QUICK_FREEZE_EXIT_REG                                                                                                               
               1 00000008 FFFFFFFF A   U                 1118                                                                        
 QUIESCE_FORCE                                                                                                                       
               1 00000002 FFFFFFFF A   U                 1005                                                                        
 QUIESCE_FREEZE                                                                                                                      
               1 00000004 FFFFFFFF A   U                 1008                                                                        
 QUIESCE_QUERY                                                                                                                       
               1 00000003 FFFFFFFF A   U                 1006                                                                        
 QUIESCE_SRB                                                                                                                         
               1 00000009 FFFFFFFF A   U                 1013                                                                        
 QUIESCE_TERM                                                                                                                        
               1 00000001 FFFFFFFF A   U                 1004                                                                        
 QUIESCE_UNFREEZE                                                                                                                    
               1 00000005 FFFFFFFF A   U                 1009                                                                        
 REASON_CODE                                                                                                                         
               4 000000DC FFFFFFFF     A  A               922                                                                        
 RETCODE       4 000000A8 FFFFFFFF     A  A               887                                                                        
 RETURN_CODE                                                                                                                         
               4 000000D0 FFFFFFFF     F  F               919  457   589M  589   595M                                                
 RETURN_VALUE                                                                                                                        
               4 000000D8 FFFFFFFF     A  A               921                                                                        
 RETVAL        4 000000A4 FFFFFFFF     A  A               886                                                                        
 RET0          2 00000230 00000001     H  H               588                                                                        
 Ret20         2 00000244 00000001     H  H               594  568B  593B                                                            
 RLIM_INFINITY                                                                                                                       
               1 7FFFFFFF FFFFFFFF A   U                 1080                                                                        
 RLIMIT_AS                                                                                                                           
               1 00000005 FFFFFFFF A   U                 1077                                                                        
 RLIMIT_CORE                                                                                                                         
               1 00000004 FFFFFFFF A   U                 1073                                                                        
 RLIMIT_CPU                                                                                                                          
               1 00000000 FFFFFFFF A   U                 1074                                                                        
 RLIMIT_FSIZE                                                                                                                        
               1 00000001 FFFFFFFF A   U                 1075                                                                        
1                               Ordinary Symbol and Literal Cross Reference                                     Page   57            
-Symbol   Length   Value     Id    R Type Asm  Program   Defn References                     HLASM R6.0  2012/03/05 13.03            
0RLIMIT_MEMLIMIT                                                                                                                     
               1 00000007 FFFFFFFF A   U                 1078                                                                        
 RLIMIT_NOFILE                                                                                                                       
               1 00000006 FFFFFFFF A   U                 1076                                                                        
 RSNCODE       4 000000AC FFFFFFFF     A  A               888                                                                        
 RUSAGE_CHILDREN                                                                                                                     
               1 FFFFFFFF FFFFFFFF A   U                 1083                                                                        
 RUSAGE_SELF                                                                                                                         
               1 00000000 FFFFFFFF A   U                 1082                                                                        
 R0            1 00000000 FFFFFFFA A   U  GR             1726                                                                        
 R0_32         1 00000000 FFFFFFFA A   U  GR32           1758  436M  511   523   524M  524   525   526   527   567M                  
 R0_64         1 00000000 FFFFFFFA A   U  GR64           1742                                                                        
 R1            1 00000001 FFFFFFFA A   U  GR             1727                                                                        
 R1_32         1 00000001 FFFFFFFA A   U  GR32           1759  434M  473   475M  612M                                                
 R1_64         1 00000001 FFFFFFFA A   U  GR64           1743                                                                        
 R10           1 0000000A FFFFFFFA A   U  GR             1736                                                                        
 R10_32        1 0000000A FFFFFFFA A   U  GR32           1768  473M  474U                                                            
 R10_64        1 0000000A FFFFFFFA A   U  GR64           1752                                                                        
 R11           1 0000000B FFFFFFFA A   U  GR             1737                                                                        
 R11_32        1 0000000B FFFFFFFA A   U  GR32           1769  428M  429U                                                            
 R11_64        1 0000000B FFFFFFFA A   U  GR64           1753                                                                        
 R12           1 0000000C FFFFFFFA A   U  GR             1738                                                                        
 R12_32        1 0000000C FFFFFFFA A   U  GR32           1770  430U                                                                  
 R12_64        1 0000000C FFFFFFFA A   U  GR64           1754                                                                        
 R13           1 0000000D FFFFFFFA A   U  GR             1739                                                                        
 R13_32        1 0000000D FFFFFFFA A   U  GR32           1771  431U                                                                  
 R13_64        1 0000000D FFFFFFFA A   U  GR64           1755                                                                        
 R14           1 0000000E FFFFFFFA A   U  GR             1740                                                                        
 R14_32        1 0000000E FFFFFFFA A   U  GR32           1772  611   629M  630B                                                      
 R14_64        1 0000000E FFFFFFFA A   U  GR64           1756                                                                        
 R15           1 0000000F FFFFFFFA A   U  GR             1741                                                                        
 R15_32        1 0000000F FFFFFFFA A   U  GR32           1773  476M  613M                                                            
 R15_64        1 0000000F FFFFFFFA A   U  GR64           1757                                                                        
 R2            1 00000002 FFFFFFFA A   U  GR             1728                                                                        
 R2_32         1 00000002 FFFFFFFA A   U  GR32           1760                                                                        
 R2_64         1 00000002 FFFFFFFA A   U  GR64           1744                                                                        
 R3            1 00000003 FFFFFFFA A   U  GR             1729                                                                        
 R3_32         1 00000003 FFFFFFFA A   U  GR32           1761  528M  532M  532   533   537M  563M  580   587M                        
 R3_64         1 00000003 FFFFFFFA A   U  GR64           1745                                                                        
 R4            1 00000004 FFFFFFFA A   U  GR             1730                                                                        
 R4_32         1 00000004 FFFFFFFA A   U  GR32           1762  530M  535M  535   539   561M  561   582M  582   584   585             
 R4_64         1 00000004 FFFFFFFA A   U  GR64           1746                                                                        
 R5            1 00000005 FFFFFFFA A   U  GR             1731                                                                        
 R5_32         1 00000005 FFFFFFFA A   U  GR32           1763  531M  536M  536   542   562M  562   583M  583                         
 R5_64         1 00000005 FFFFFFFA A   U  GR64           1747                                                                        
 R6            1 00000006 FFFFFFFA A   U  GR             1732                                                                        
 R6_32         1 00000006 FFFFFFFA A   U  GR32           1764  539M  540M  540   552   559M  570   576M  577   584M  586             
 R6_64         1 00000006 FFFFFFFA A   U  GR64           1748                                                                        
 R7            1 00000007 FFFFFFFA A   U  GR             1733                                                                        
 R7_32         1 00000007 FFFFFFFA A   U  GR32           1765  542M  545   548   555   557   572   574M  574   575                   
 R7_64         1 00000007 FFFFFFFA A   U  GR64           1749                                                                        
 R8            1 00000008 FFFFFFFA A   U  GR             1734                                                                        
 R8_32         1 00000008 FFFFFFFA A   U  GR32           1766                                                                        
 R8_64         1 00000008 FFFFFFFA A   U  GR64           1750                                                                        
 R9            1 00000009 FFFFFFFA A   U  GR             1735                                                                        
1                               Ordinary Symbol and Literal Cross Reference                                     Page   58            
-Symbol   Length   Value     Id    R Type Asm  Program   Defn References                     HLASM R6.0  2012/03/05 13.03            
0R9_32         1 00000009 FFFFFFFA A   U  GR32           1767                                                                        
 R9_64         1 00000009 FFFFFFFA A   U  GR64           1751                                                                        
 SC_ARG_MAX                                                                                                                          
               1 00000001 FFFFFFFF A   U                  958                                                                        
 SC_CHILD_MAX                                                                                                                        
               1 00000002 FFFFFFFF A   U                  959                                                                        
 SC_CLK_TCK                                                                                                                          
               1 00000003 FFFFFFFF A   U                  960                                                                        
 SC_JOB_CONTROL                                                                                                                      
               1 00000004 FFFFFFFF A   U                  961                                                                        
 SC_MMAP_MEM_MAX_NP                                                                                                                  
               1 0000000E FFFFFFFF A   U                  970                                                                        
 SC_NGROUPS_MAX                                                                                                                      
               1 00000005 FFFFFFFF A   U                  962                                                                        
 SC_OPEN_MAX                                                                                                                         
               1 00000006 FFFFFFFF A   U                  963                                                                        
 SC_PAGE_SIZE                                                                                                                        
               1 00000010 FFFFFFFF A   U                  973                                                                        
 SC_PAGESIZE                                                                                                                         
               1 00000010 FFFFFFFF A   U                  972                                                                        
 SC_SAVED_IDS                                                                                                                        
               1 00000007 FFFFFFFF A   U                  964                                                                        
 SC_THREAD_TASKS_MAX_NP                                                                                                              
               1 0000000B FFFFFFFF A   U                  967                                                                        
 SC_THREADS_MAX_NP                                                                                                                   
               1 0000000D FFFFFFFF A   U                  969                                                                        
 SC_TTY_GROUP                                                                                                                        
               1 0000000F FFFFFFFF A   U                  971                                                                        
 SC_TZNAME_MAX                                                                                                                       
               1 00000009 FFFFFFFF A   U                  965                                                                        
 SC_VERSION                                                                                                                          
               1 0000000A FFFFFFFF A   U                  966                                                                        
 SC_2_CHAR_TERM                                                                                                                      
               1 0000000C FFFFFFFF A   U                  968                                                                        
 SECURITY_CERTAUTH#                                                                                                                  
               1 00000004 FFFFFFFF A   U                 1210                                                                        
 SECURITY_CERTDEREG#                                                                                                                 
               1 00000003 FFFFFFFF A   U                 1209                                                                        
 SECURITY_CERTIFICATE#                                                                                                               
               1 00000002 FFFFFFFF A   U                 1213                                                                        
 SECURITY_CERTREG#                                                                                                                   
               1 00000002 FFFFFFFF A   U                 1208                                                                        
 SECURITY_CREATE#                                                                                                                    
               1 00000001 FFFFFFFF A   U                 1207                                                                        
 SECURITY_USERID#                                                                                                                    
               1 00000001 FFFFFFFF A   U                 1212                                                                        
 SHUTDOWN_REG                                                                                                                        
               1 00000009 FFFFFFFF A   U                 1120                                                                        
 SLK_DESTROY                                                                                                                         
               1 00000008 FFFFFFFF A   U                 1266                                                                        
 SLK_ERRORCHECK                                                                                                                      
               1 00000002 FFFFFFFF A   U                 1270                                                                        
 SLK_EXCLUSIVE                                                                                                                       
               1 00000001 FFFFFFFF A   U                 1273                                                                        
 SLK_INIT      1 00000004 FFFFFFFF A   U                 1265                                                                        
1                               Ordinary Symbol and Literal Cross Reference                                     Page   59            
-Symbol   Length   Value     Id    R Type Asm  Program   Defn References                     HLASM R6.0  2012/03/05 13.03            
0SLK_NORMAL                                                                                                                          
               1 00000001 FFFFFFFF A   U                 1269                                                                        
 SLK_OBTAIN                                                                                                                          
               1 00000001 FFFFFFFF A   U                 1263                                                                        
 SLK_OBTAIN_COND                                                                                                                     
               1 00000002 FFFFFFFF A   U                 1264                                                                        
 SLK_RECURSIVE                                                                                                                       
               1 00000004 FFFFFFFF A   U                 1271                                                                        
 SLK_RELEASE                                                                                                                         
               1 00000010 FFFFFFFF A   U                 1267                                                                        
 SLK_SHARED                                                                                                                          
               1 00000002 FFFFFFFF A   U                 1274                                                                        
 SPAWN_FDCLOSED                                                                                                                      
               1 FFFFFFFF FFFFFFFF A   U                 1071                                                                        
 SRV_DEL_ENC                                                                                                                         
               1 00000040 FFFFFFFF A   U                 1257                                                                        
 SRV_DISCONNECT                                                                                                                      
               1 00000080 FFFFFFFF A   U                 1258                                                                        
 SRV_DISCONNECT_COND                                                                                                                 
               1 00000100 FFFFFFFF A   U                 1259                                                                        
 SRV_END_WRK                                                                                                                         
               1 00000020 FFFFFFFF A   U                 1256                                                                        
 SRV_GET_WRK                                                                                                                         
               1 00000008 FFFFFFFF A   U                 1254                                                                        
 SRV_PUT_NEWWRK                                                                                                                      
               1 00000001 FFFFFFFF A   U                 1251                                                                        
 SRV_PUT_SUBWRK                                                                                                                      
               1 00000002 FFFFFFFF A   U                 1252                                                                        
 SRV_QUEUEMGR                                                                                                                        
               1 00000002 FFFFFFFF A   U                 1247                                                                        
 SRV_REFRESH_WRK                                                                                                                     
               1 00000010 FFFFFFFF A   U                 1255                                                                        
 SRV_SERVERMGR                                                                                                                       
               1 00000004 FFFFFFFF A   U                 1248                                                                        
 SRV_SERVERMGRDYNAMIC                                                                                                                
               1 00000008 FFFFFFFF A   U                 1249                                                                        
 SRV_TRANSFER_WRK                                                                                                                    
               1 00000004 FFFFFFFF A   U                 1253                                                                        
 SRV_WORKMGR                                                                                                                         
               1 00000001 FFFFFFFF A   U                 1246                                                                        
 STDERR        4 000002A0 00000001     F  F               633                                                                        
 STDERR_FILENO                                                                                                                       
               1 00000002 FFFFFFFF A   U                 1024                                                                        
 STDIN         4 00000298 00000001     F  F               631                                                                        
 STDIN_FILENO                                                                                                                        
               1 00000000 FFFFFFFF A   U                 1022                                                                        
 STDOUT        4 0000029C 00000001     F  F               632                                                                        
 STDOUT_FILENO                                                                                                                       
               1 00000001 FFFFFFFF A   U                 1023                                                                        
 STL_MAX_TASKS                                                                                                                       
               1 00000001 FFFFFFFF A   U                 1040                                                                        
 STL_MAX_THREADS                                                                                                                     
               1 00000002 FFFFFFFF A   U                 1041                                                                        
 STL_SET_BOTH                                                                                                                        
               1 00000003 FFFFFFFF A   U                 1042                                                                        
1                               Ordinary Symbol and Literal Cross Reference                                     Page   60            
-Symbol   Length   Value     Id    R Type Asm  Program   Defn References                     HLASM R6.0  2012/03/05 13.03            
0SW_SIGDLV_DISABLE#                                                                                                                  
               1 00000002 FFFFFFFD A   U                 1346                                                                        
 SW_SIGDLV_ENABLE#                                                                                                                   
               1 00000001 FFFFFFFD A   U                 1345                                                                        
 SYS           4 000000B0 FFFFFFFF     F  F               889  484   496                                                             
 TAB           1 000002C0 00000001     C  C               641                                                                        
 THDQ_FREEZE                                                                                                                         
               1 00000002 FFFFFFFD A   U                 1359                                                                        
 THDQ_GET_STATE                                                                                                                      
               1 00000001 FFFFFFFD A   U                 1364                                                                        
 THDQ_UNFREEZE_ALL                                                                                                                   
               1 00000008 FFFFFFFD A   U                 1362                                                                        
 TITLE        80 000002C2 00000001     C  C               643  621                                                                   
 TLS_CREATE_THREAD_SEC#                                                                                                              
               1 00000001 FFFFFFFF A   U                 1196                                                                        
 TLS_DAEMON_THREAD_SEC#                                                                                                              
               1 00000005 FFFFFFFF A   U                 1200                                                                        
 TLS_DELETE_THREAD_SEC#                                                                                                              
               1 00000002 FFFFFFFF A   U                 1197                                                                        
 TLS_IDENTITY_CERT#                                                                                                                  
               1 00000004 FFFFFFFF A   U                 1203                                                                        
 TLS_IDENTITY_UID#                                                                                                                   
               1 00000002 FFFFFFFF A   U                 1202                                                                        
 TLS_IDENTITY_USERID#                                                                                                                
               1 00000001 FFFFFFFF A   U                 1201                                                                        
 TLS_TASK_ACEE_USP#                                                                                                                  
               1 00000004 FFFFFFFF A   U                 1199                                                                        
 TLS_TASK_ACEE#                                                                                                                      
               1 00000003 FFFFFFFF A   U                 1198                                                                        
 TOHEX        16 000002B0 00000001     C  C               640                                                                        
 TOUPPER       1 00000411 00000001     R  A               645  645   646   648   650                                                 
 WCONTINUED                                                                                                                          
               1 00000004 FFFFFFFF A   U                  982                                                                        
 WD_ACTIVATE                                                                                                                         
               1 00000001 FFFFFFFF A   U                 1156                                                                        
 WD_INACTIVATE                                                                                                                       
               1 00000002 FFFFFFFF A   U                 1157                                                                        
 WD_IS_ACTIVE                                                                                                                        
               1 00000001 FFFFFFFF A   U                 1163                                                                        
 WD_IS_INACTIVE                                                                                                                      
               1 00000000 FFFFFFFF A   U                 1164                                                                        
 WD_OUERY      1 00000000 FFFFFFFF A   U                 1155                                                                        
 WD_RESET      1 00000003 FFFFFFFF A   U                 1158                                                                        
 WD_SCOPE_AS                                                                                                                         
               1 00000001 FFFFFFFF A   U                 1160                                                                        
 WD_SCOPE_THD                                                                                                                        
               1 00000002 FFFFFFFF A   U                 1161                                                                        
 WEXITED       1 00000008 FFFFFFFF A   U                  984                                                                        
 WNOHANG       1 00000001 FFFFFFFF A   U                  980                                                                        
 WNOWAIT       1 00000020 FFFFFFFF A   U                  988                                                                        
 WRITE_DOWN                                                                                                                          
               1 0000000A FFFFFFFF A   U                 1122                                                                        
 WSTOPPED      1 00000010 FFFFFFFF A   U                  986                                                                        
 WUNTRACED                                                                                                                           
               1 00000002 FFFFFFFF A   U                  981                                                                        
1                               Ordinary Symbol and Literal Cross Reference                                     Page   61            
-Symbol   Length   Value     Id    R Type Asm  Program   Defn References                     HLASM R6.0  2012/03/05 13.03            
0=A(0)         4 00000518 00000001     A                  654  456                                                                   
 =F'20'        4 00000520 00000001     F                  656  595                                                                   
 =V(CEETREC)                                                                                                                         
               4 0000051C 00000001     V                  655  464                                                                   
1                                          Macro and Copy Code Source Summary                                   Page   62            
- Con Source                                        Volume    Members                        HLASM R6.0  2012/03/05 13.03            
0     PRIMARY INPUT                                           B        BAL      BAS      BC       BCT      BE       BH               
                                                              BL       BM       BNE      BNH      BNL      BNM      BNO              
                                                              BNP      BNZ      BO       BP       BXH      BXLE     BZ               
   L1 /home/tsh009/maclib                                     REGS                                                                   
   L5 CEE.SCEEMAC                                   I17RS3    CEECAA   CEEDNUT  CEEDSA   CEEENTRY CEEPPA   CEETERM                   
   L6 SYS1.MACLIB                                   I17RS2    ABEND    BPXYCONS BPXYIOV  CALL     IEABRC   IEABRCX                   
                                                              IHBINNRR IHBOPLTX LOAD     STORAGE  SYSSTATE                           
1                                          Macro and Copy Code Cross Reference                                  Page   63            
-Macro     Con  Called By        Defn  References                                            HLASM R6.0  2012/03/05 13.03            
0ABEND      L6  PRIMARY INPUT       -  598                                                                                           
 B              CEEENTRY          108  387, 394                                                                                      
                STORAGE                441                                                                                           
 BAL                              276                                                                                                
 BAS            LOAD              303  503, 515                                                                                      
 BC             PRIMARY INPUT     168  388, 395, 442                                                                                 
 BCT                              195                                                                                                
 BE                               112                                                                                                
 BH                               120                                                                                                
 BL                               116                                                                                                
 BM                               124                                                                                                
 BNE                              128                                                                                                
 BNH                              132                                                                                                
 BNL                              136                                                                                                
 BNM                              140                                                                                                
 BNO                              144                                                                                                
 BNP                              148                                                                                                
 BNZ                              152                                                                                                
 BO                               156                                                                                                
 BP                               160                                                                                                
 BPXYCONS   L6  PRIMARY INPUT       -  935                                                                                           
 BPXYIOV    L6  PRIMARY INPUT       -  1372                                                                                          
 BXH                              249                                                                                                
 BXLE                             222                                                                                                
 BZ                               164                                                                                                
 CALL       L6  PRIMARY INPUT       -  477, 614                                                                                      
 CEECAA     L5  PRIMARY INPUT       -  1385                                                                                          
 CEEDNUT    L5  CEEDSA              -  838                                                                                           
                CEECAA                 1390                                                                                          
 CEEDSA     L5  PRIMARY INPUT       -  781                                                                                           
 CEEENTRY   L5  PRIMARY INPUT       -  379                                                                                           
 CEEPPA     L5  PRIMARY INPUT       -  657                                                                                           
 CEETERM    L5  PRIMARY INPUT       -  455, 923                                                                                      
 IEABRC     L6  IEABRCX             -  13C                                                                                           
 IEABRCX    L6  PRIMARY INPUT       -  13, 351                                                                                       
 IHBINNRR   L6  IHBOPLTX            -  482, 619                                                                                      
                ABEND                  601                                                                                           
 IHBOPLTX   L6  CALL                -  480, 617                                                                                      
 LOAD       L6  PRIMARY INPUT       -  500, 512                                                                                      
 REGS       L1  PRIMARY INPUT       -  1725                                                                                          
 STORAGE    L6  PRIMARY INPUT       -  438                                                                                           
 SYSSTATE   L6  STORAGE             -  439                                                                                           
                CALL                   478, 615                                                                                      
                IHBOPLTX               481, 618                                                                                      
                IHBINNRR               483, 602, 620                                                                                 
                LOAD                   501, 513                                                                                      
                ABEND                  599                                                                                           
1                                                Dsect Cross Reference                                          Page   64            
-Dsect     Length      Id       Defn                                                         HLASM R6.0  2012/03/05 13.03            
0CEECAA   000003F8  FFFFFFFB    1394                                                                                                 
 CEEDSA   000002B1  FFFFFFFF     787                                                                                                 
 CEEDSAHP 00000840  FFFFFFFE     837                                                                                                 
 DIRECTEDLOADRETURNEDPARMS                                                                                                           
          00000018  FFFFFFFD    1327                                                                                                 
 IOV      00000008  FFFFFFFC    1375                                                                                                 
 PARMS    00000018  FFFFFFFA    1718                                                                                                 
1                                                      Using Map                                                Page   65            
-                                                                                            HLASM R6.0  2012/03/05 13.03            
   Stmt  -----Location----- Action ----------------Using----------------- Reg Max     Last Label and Using Text                      
           Count      Id           Type          Value    Range     Id        Disp    Stmt                                           
0   384  00000000  00000001 PUSH                                                                                                     
    385  00000000  00000001 DROP                                           **                                                        
    386  00000000  00000001 USING  ORDINARY    00000000 00001000 00000001  15 00054    400 *,15                                      
    401  00000020  00000001 DROP                                           15              15                                        
    424  0000006C  00000001 POP                                                                                                      
    425  0000006C  00000001 USING  ORDINARY    00000000 00001000 FFFFFFFF  13 00048    426 CEEDSA,13                                 
    429  0000007A  00000001 USING  ORDINARY    00000000 00001000 00000001  11 00520    623 FTEE,R11_32                               
    430  0000007A  00000001 USING  ORDINARY    00000000 00001000 FFFFFFFB  12 00000        CEECAA,R12_32                             
    431  0000007A  00000001 USING  ORDINARY    00000000 00001000 FFFFFFFF  13 002B0    629 CEEDSA,R13_32                             
    474  000000DC  00000001 USING  ORDINARY    00000000 00001000 FFFFFFFA  10 00008    531 PARMS,R10_32                              
1                                   General Purpose Register Cross Reference                                    Page   66            
- Register  References (M=modified, B=branch, U=USING, D=DROP, N=index)                      HLASM R6.0  2012/03/05 13.03            
0    0(0)     398   407M  408M  409M  410   420   436M  484M  485   486M  487   488M  489   490M  491   492M  493   508M  511   520M 
              523   524M  524   525   526   527   567M  605M  606M  607   621M  622   623M  624   625M  626                          
     1(1)     398   403   406M  409   414M  419   420   421   421   422   423   427M  434M  458M  459   460M  460   461   463M  473  
              475M  485   487   489   491   493   494   509M  509   521M  521   603M  607M  612M  622   624   626   627              
     2(2)     398   399M  403M  427                                                                                                  
     3(3)     398   453M  528M  532M  532   533   537M  563M  580   587M                                                             
     4(4)     398   453M  530M  535M  535   539   561M  561   582M  582   584   585                                                  
     5(5)     398   531M  536M  536   542   562M  562   583M  583                                                                    
     6(6)     398   539M  540M  540   552   559M  570   576M  577   584M  586                                                        
     7(7)     398   542M  545   548   555   557   572   574M  574   575                                                              
     8(8)     398                                                                                                                    
     9(9)     398                                                                                                                    
    10(A)     398   473M  474U                                                                                                       
    11(B)     398   428M  429U                                                                                                       
    12(C)     398   404   410   412   426   430U                                                                                     
    13(D)     398   406   419   422   423M  425U  431U                                                                               
    14(E)     398   402M  404M  405   413M  450M  451M  451N  452M  452N  453   453M  465M  495M  611   628M  629M  630B             
    15(F)     386U  396   398   400M  401D  402B  412M  413B  414   449M  464M  465B  476M  495B  504M  508   516M  520   604M  613M 
              628B                                                                                                                   
1                                  Diagnostic Cross Reference and Assembler Summary                             Page   67            
-                                                                                            HLASM R6.0  2012/03/05 13.03            
0     No Statements Flagged in this Assembly                                                                                         
 HIGH LEVEL ASSEMBLER, 5696-234, RELEASE 6.0, PTF UK67595                                                                            
0SYSTEM: z/OS 01.12.00              JOBNAME: TSH0099     STEPNAME: STEP1      PROCSTEP: (NOPROC)                                     
0Data Sets Allocated for this Assembly                                                                                               
  Con DDname   Data Set Name                                Volume  Member                                                           
   P1 SYSIN    /home/tsh009/utilities-1/ftee.s                                                                                       
   L1 SYSLIB   /home/tsh009/maclib                                                                                                   
   L2          /home/tsh009/utilities-1                                                                                              
   L3          ASM.SASMMAC2                                 I17RS1                                                                   
   L4          ASM.SASMMAC1                                 I17RS1                                                                   
   L5          CEE.SCEEMAC                                  I17RS3                                                                   
   L6          SYS1.MACLIB                                  I17RS2                                                                   
   L7          SYS1.MODGEN                                  I17RS1                                                                   
      SYSADATA /home/tsh009/utilities-1/ftee.ad                                                                                      
      SYSLIN   /home/tsh009/utilities-1/ftee.o                                                                                       
      SYSPRINT /home/tsh009/utilities-1/ftee.listing                                                                                 
      SYSTERM  /dev/fd2                                                                                                              
                                                                                                                                     
 Input/Output Exit Statistics                                                                                                        
 Exit Type  Name      Calls  ---Records---  Diagnostic                                                                               
                             Added Deleted  Messages                                                                                 
 LIBRARY    FLOWASM    7432      0       0        0                                                                                  
 LISTING    FLOWASM    3437      0       0        0                                                                                  
 SOURCE     FLOWASM     314      0       0        0                                                                                  
                                                                                                                                     
 1889696K allocated to Buffer Pool       Storage required    1144K                                                                   
     312 Primary Input Records Read         7393 Library Records Read                  0 Work File Reads                             
       0 ASMAOPT Records Read               3435 Primary Print Records Written         0 Work File Writes                            
      37 Object Records Written             3859 ADATA Records Written                                                               
0Assembly Start Time: 13.03.24 Stop Time: 13.03.24 Processor Time: 00.00.00.1806                                                     
 Return Code 000                                                                                                                     
