1                                         High Level Assembler Option Summary                   (PTF UK67595)   Page    1            
-                                                                                            HLASM R6.0  2012/03/05 10.22            
0  No Overriding ASMAOPT Parameters                                                                                                  
   Overriding Parameters-  OBJECT,LIST(MAX),TERM,ASA,ADATA,ADATA                                                                     
   Process Statements-     ALIGN,COMPAT(MACROCASE,NOCASE),DXREF,FLAG(ALIGN,CONT,RECORD)                                              
                           NOFOLD,NOINFO,PC(ON,DATA,GEN,MCALL)                                                                       
                           RA2,NORLD,MXREF,RXREF,USING(MAP,WARN(9))                                                                  
                                                                                                                                     
                                                                                                                                     
   Options for this Assembly                                                                                                         
03   ADATA                                                                                                                           
 5   ALIGN                                                                                                                           
 3   ASA                                                                                                                             
     BATCH                                                                                                                           
     CODEPAGE(047C)                                                                                                                  
 5   COMPAT(MACROCASE)                                                                                                               
   NODBCS                                                                                                                            
   NODECK                                                                                                                            
 5   DXREF                                                                                                                           
     ESD                                                                                                                             
   NOEXIT                                                                                                                            
 5   FLAG(0,ALIGN,CONT,EXLITW,NOIMPLEN,NOPAGE0,PUSH,RECORD,NOSUBSTR,USING0)                                                          
 5 NOFOLD                                                                                                                            
   NOGOFF                                                                                                                            
 5 NOINFO                                                                                                                            
     LANGUAGE(EN)                                                                                                                    
   NOLIBMAC                                                                                                                          
     LINECOUNT(60)                                                                                                                   
 3   LIST(MAX)                                                                                                                       
     MACHINE(,NOLIST)                                                                                                                
 5   MXREF(SOURCE)                                                                                                                   
 3   OBJECT                                                                                                                          
     OPTABLE(UNI,NOLIST)                                                                                                             
 5   PCONTROL(DATA,GEN,MCALL,ON)                                                                                                     
   NOPESTOP                                                                                                                          
   NOPROFILE                                                                                                                         
 5   RA2                                                                                                                             
   NORENT                                                                                                                            
 5 NORLD                                                                                                                             
 5   RXREF                                                                                                                           
     SECTALGN(8)                                                                                                                     
     SIZE(MAX)                                                                                                                       
   NOSUPRWARN                                                                                                                        
     SYSPARM()                                                                                                                       
 3   TERM(WIDE)                                                                                                                      
   NOTEST                                                                                                                            
     THREAD                                                                                                                          
   NOTRANSLATE                                                                                                                       
     TYPECHECK(MAGNITUDE,REGISTER)                                                                                                   
 5   USING(NOLIMIT,MAP,WARN(9))                                                                                                      
   NOWORKFILE                                                                                                                        
     XREF(SHORT,UNREFS)                                                                                                              
                                                                                                                                     
   Standard   DD Names- SYSLIN   SYSLIB   SYSIN    SYSPRINT SYSPUNCH SYSUT1   SYSTERM  SYSADATA ASMAOPT                              
   Overriding DD Names- SYS00014 SYS00004 SYS00012 SYS00013                   SYS00011 SYS00015                                      
1                                              External Symbol Dictionary                                       Page    2            
-Symbol   Type   Id     Address  Length   Owner Id Flags Alias-of                            HLASM R6.0  2012/03/05 10.22            
0          PC 00000001 00000000 00000000             00                                                                              
 ISGQUERY  SD 00000002 00000000 000003C8             07                                                                              
 CEESTART  ER 00000003                                                                                                               
1                                                                                                               Page    3            
   Active Usings: None                                                                                                               
0  Loc    Object Code      Addr1    Addr2    Stmt  Source Statement                          HLASM R6.0  2012/03/05 10.22            
0                                               1 *PROCESS ALIGN,COMPAT(MACROCASE,NOCASE),DXREF,FLAG(ALIGN,CONT,RECORD)              
                                                2 *PROCESS NOFOLD,NOINFO,PC(ON,DATA,GEN,MCALL)                                       
                                                3 *PROCESS RA2,NORLD,MXREF,RXREF,USING(MAP,WARN(9))                                  
                                                4 *WARNING - THIS PROGRAM REQUIRES THE HIGH-LEVEL ASSEMBLER                          
                                                5 *          AS WELL AS LE/370                                                       
                                                6 *          THIS PROGRAM IS RE-ENTRANT.                                             
                                                7          PUSH  PRINT                                                               
                                                8          PRINT NOGEN                                                               
                                                9          IEABRCX DEFINE                                                            
                                               10+         PUSH  PRINT,NOPRINT                                            01-IEABRCX 
                                               11+         PRINT OFF,NOPRINT                                              01-IEABRCX 
                                               12+***********************************************************************            
                                               13+*                                                                     *            
                                               14+*01* MACRO-NAME = IEABRC                                              *            
                                               15+*                                                                     *            
                                               16+*01* DESCRIPTIVE-NAME = RELATIVE BRANCH MACROS                        *            
                                               17+*                                                                     *            
                                               18+*01*  COPYRIGHT =                                                     *            
                                               19+*       LICENSED MATERIALS - PROPERTY OF IBM                          *            
                                               20+*       5694-A01 COPYRIGHT IBM CORP. 2000, 2008                       *            
                                               21+*                                                                     *            
                                               22+*01* STATUS = HBB7750                                                 *            
                                               23+*                                                                     *            
                                               24+*01* EXTERNAL CLASSIFICATION: PI                                      *            
                                               25+*01* END OF EXTERNAL CLASSIFICATION:                                  *            
                                               26+*                                                                     *            
                                               27+*01* FUNCTION = Allow use of OS/390 macros within an assembler        *            
                                               28+*       routine that uses relative branching                          *            
                                               29+*       It defines macros to intercept and change various             *            
                                               30+*       base-displacement branch instructions to their                *            
                                               31+*       relative branch equivalents.                                  *            
                                               32+*                                                                     *            
                                               33+*       Specify SYSSTATE ARCHLVL=x where x is a supported value       *            
                                               34+*       other than 0, when using IEABRC. This lets macro expansions   *            
                                               35+*       take advantage of the knowledge of the availability of        *            
                                               36+*       relative branching.                                           *            
                                               37+*                                                                     *            
                                               38+*02* METHOD OF INVOCATION                                             *            
                                               39+*       COPY  IEABRC                                                  *            
                                               40+*       placed prior to any base/displacement branch that needs       *            
                                               41+*       to be converted to a relative branch.                         *            
                                               42+*                                                                     *            
                                               43+*       This will automatically "enable" the conversion.              *            
                                               44+*                                                                     *            
                                               45+*       It is now recommended that instead of this approach you       *            
                                               46+*       invoke IEABRCX DEFINE as that will allow you to take          *            
                                               47+*       better advantage of the IEABRCX DISABLE | ENABLE functions.   *            
                                               48+*                                                                     *            
                                               49+*02* NOTES:                                                           *            
                                               50+*       Branch condition instructions are converted to                *            
                                               51+*       relative branch condition instructions except when:           *            
                                               52+*       - The branch target ends with ")" and                         *            
                                               53+*         a "(" in 2nd or subsequent characters of the branch         *            
                                               54+*         target is not preceded by "+" or "-".                       *            
                                               55+*       For example,                                                  *            
1                                                                                                               Page    4            
   Active Usings: None                                                                                                               
0  Loc    Object Code      Addr1    Addr2    Stmt  Source Statement                          HLASM R6.0  2012/03/05 10.22            
0                                              56+*         B   X(15)          -- remains base/displacement branch      *            
                                               57+*         B   X+(15)         -- converted to relative branch          *            
                                               58+*         B   X+Y            -- converted to relative branch          *            
                                               59+*                                                                     *            
                                               60+*01* MODULE-TYPE = MACRO                                              *            
                                               61+*                                                                     *            
                                               62+*02* PROCESSOR = HLASM                                                *            
                                               63+*                                                                     *            
                                               64+*01* MACROS = NONE                                                    *            
                                               65+*                                                                     *            
                                               66+*01* PARAMETERS:                                                      *            
                                               67+*        Same as used within assembler instructions                   *            
                                               68+*                                                                     *            
                                               69+*01* CHANGE-ACTIVITY =                                                *            
                                               70+*                                                                     *            
                                               71+*   $L0=64BITSUP HBB7703  980106  PD00XB: 64-BIT ROUTINES             *            
                                               72+*   $L1=ME10226  HBB7750  070501  PD00XB: Enable/Disable              *            
                                               73+*                                                                     *            
                                               74+*01* MNOTES = NONE                                                    *            
                                               75+*                                                                     *            
                                               76+*01* COMPONENT = SC1C5 (SUPERVISOR CONTROL)                           *            
                                               77+*                                                                     *            
                                               78+*01*  DISTRIBUTION-LIBRARY = AMACLIB                                  *            
                                               79+*                                                                     *            
                                               80+***********************************************************************            
                                               81+B_       OPSYN B                                                        01-IEABRCX 
                                               82+BAL_     OPSYN BAL                                                      01-IEABRCX 
                                               83+BAS_     OPSYN BAS                                                      01-IEABRCX 
                                               84+BC_      OPSYN BC                                                       01-IEABRCX 
                                               85+BCT_     OPSYN BCT                                                      01-IEABRCX 
                                               86+BE_      OPSYN BE                                                       01-IEABRCX 
                                               87+BH_      OPSYN BH                                                       01-IEABRCX 
                                               88+BL_      OPSYN BL                                                       01-IEABRCX 
                                               89+BM_      OPSYN BM                                                       01-IEABRCX 
                                               90+BNE_     OPSYN BNE                                                      01-IEABRCX 
                                               91+BNH_     OPSYN BNH                                                      01-IEABRCX 
                                               92+BNL_     OPSYN BNL                                                      01-IEABRCX 
                                               93+BNM_     OPSYN BNM                                                      01-IEABRCX 
                                               94+BNO_     OPSYN BNO                                                      01-IEABRCX 
                                               95+BNP_     OPSYN BNP                                                      01-IEABRCX 
                                               96+BNZ_     OPSYN BNZ                                                      01-IEABRCX 
                                               97+BO_      OPSYN BO                                                       01-IEABRCX 
                                               98+BP_      OPSYN BP                                                       01-IEABRCX 
                                               99+BXH_     OPSYN BXH                                                      01-IEABRCX 
                                              100+BXLE_    OPSYN BXLE                                                     01-IEABRCX 
                                              101+BZ_      OPSYN BZ                                                       01-IEABRCX 
                                              102+*                                                                                  
                                              103          MACRO                                                          02350000   
                                              104 &NAME    B     &WHERE                                                   02400000   
                                              105 &NAME    BC    15,&WHERE                                                02450000   
                                              106          MEND                                                           02500000   
                                              107          MACRO                                                          02550000   
                                              108 &NAME    BE    &WHERE                                                   02600000   
                                              109 &NAME    BC    8,&WHERE                                                 02650000   
                                              110          MEND                                                           02700000   
1                                                                                                               Page    5            
   Active Usings: None                                                                                                               
0  Loc    Object Code      Addr1    Addr2    Stmt  Source Statement                          HLASM R6.0  2012/03/05 10.22            
0                                             111          MACRO                                                          02750000   
                                              112 &NAME    BL    &WHERE                                                   02800000   
                                              113 &NAME    BC    4,&WHERE                                                 02850000   
                                              114          MEND                                                           02900000   
                                              115          MACRO                                                          02950000   
                                              116 &NAME    BH    &WHERE                                                   03000000   
                                              117 &NAME    BC    2,&WHERE                                                 03050000   
                                              118          MEND                                                           03100000   
                                              119          MACRO                                                          03150000   
                                              120 &NAME    BM    &WHERE                                                   03200000   
                                              121 &NAME    BC    4,&WHERE                                                 03250000   
                                              122          MEND                                                           03300000   
                                              123          MACRO                                                          03350000   
                                              124 &NAME    BNE   &WHERE                                                   03400000   
                                              125 &NAME    BC    7,&WHERE                                                 03450000   
                                              126          MEND                                                           03500000   
                                              127          MACRO                                                          03550000   
                                              128 &NAME    BNH   &WHERE                                                   03600000   
                                              129 &NAME    BC    13,&WHERE                                                03650000   
                                              130          MEND                                                           03700000   
                                              131          MACRO                                                          03750000   
                                              132 &NAME    BNL   &WHERE                                                   03800000   
                                              133 &NAME    BC    11,&WHERE                                                03850000   
                                              134          MEND                                                           03900000   
                                              135          MACRO                                                          03950000   
                                              136 &NAME    BNM   &WHERE                                                   04000000   
                                              137 &NAME    BC    11,&WHERE                                                04050000   
                                              138          MEND                                                           04100000   
                                              139          MACRO                                                          04150000   
                                              140 &NAME    BNO   &WHERE                                                   04200000   
                                              141 &NAME    BC    14,&WHERE                                                04250000   
                                              142          MEND                                                           04300000   
                                              143          MACRO                                                          04350000   
                                              144 &NAME    BNP   &WHERE                                                   04400000   
                                              145 &NAME    BC    13,&WHERE                                                04450000   
                                              146          MEND                                                           04500000   
                                              147          MACRO                                                          04550000   
                                              148 &NAME    BNZ   &WHERE                                                   04600000   
                                              149 &NAME    BC    7,&WHERE                                                 04650000   
                                              150          MEND                                                           04700000   
                                              151          MACRO                                                          04750000   
                                              152 &NAME    BO    &WHERE                                                   04800000   
                                              153 &NAME    BC    1,&WHERE                                                 04850000   
                                              154          MEND                                                           04900000   
                                              155          MACRO                                                          04950000   
                                              156 &NAME    BP    &WHERE                                                   05000000   
                                              157 &NAME    BC    2,&WHERE                                                 05050000   
                                              158          MEND                                                           05100000   
                                              159          MACRO                                                          05150000   
                                              160 &NAME    BZ    &WHERE                                                   05200000   
                                              161 &NAME    BC    8,&WHERE                                                 05250000   
                                              162          MEND                                                           05300000   
                                              163          MACRO                                                          05350000   
                                              164 &NAME    BC    &COND,&WHERE                                             05400000   
                                              165          LCLA  &I,&X                                                    05450000   
1                                                                                                               Page    6            
   Active Usings: None                                                                                                               
0  Loc    Object Code      Addr1    Addr2    Stmt  Source Statement                          HLASM R6.0  2012/03/05 10.22            
0                                             166          LCLC  &C                                                       05500000   
                                              167 &I       SETA  2                                                        05550000   
                                              168 &X       SETA  K'&WHERE                                                 05600000   
                                              169 &C       SETC  '&WHERE'(&X,1)                                           05650000   
                                              170          AIF   ('&C.' NE ')').NEW                                       05700000   
                                              171 .LOOP    ANOP                                                           05750000   
                                              172          AIF   (&I GE &X).NEW                                           05800000   
                                              173          AIF   ('&WHERE'(&I,1) NE '(').NEXT                             05850000   
                                              174          AIF   ('&WHERE'(&I-1,1) EQ '+').NEXT                           05900000   
                                              175          AIF   ('&WHERE'(&I-1,1) NE '-').OLD                            05950000   
                                              176 .NEXT    ANOP                                                           06000000   
                                              177 &I       SETA  &I+1                                                     06050000   
                                              178          AGO   .LOOP                                                    06100000   
                                              179 .NEW     ANOP                                                           06150000   
                                              180 &C       SETC  '  (&SYSMAC(1))'                                         06166600   
                                              181          AIF   ('&C' NE '  (OPEN CODE)').OC                             06183200   
                                              182 &C       SETC  ' '                                                      06199800   
                                              183 .OC      ANOP                                                           06216400   
                                              184 &NAME    BRC   &COND,&WHERE&C                                           06233000   
                                              185          MEXIT                                                          06250000   
                                              186 .OLD     ANOP                                                           06300000   
                                              187 &NAME    BC_   &COND,&WHERE                                             06350000   
                                              188          MEND                                                           06400000   
                                              189+*                                                                                  
                                              190          MACRO                                                          06500000   
                                              191 &NAME    BCT   &REG,&WHERE                                              06550000   
                                              192          LCLA  &I,&X                                                    06600000   
                                              193          LCLC  &C                                                       06650000   
                                              194 &I       SETA  2                                                        06700000   
                                              195 &X       SETA  K'&WHERE                                                 06750000   
                                              196 &C       SETC  '&WHERE'(&X,1)                                           06800000   
                                              197          AIF   ('&C.' NE ')').NEW                                       06850000   
                                              198 .LOOP    ANOP                                                           06900000   
                                              199          AIF   (&I GE &X).NEW                                           06950000   
                                              200          AIF   ('&WHERE'(&I,1) NE '(').NEXT                             07000000   
                                              201          AIF   ('&WHERE'(&I-1,1) EQ '+').NEXT                           07050000   
                                              202          AIF   ('&WHERE'(&I-1,1) NE '-').OLD                            07100000   
                                              203 .NEXT    ANOP                                                           07150000   
                                              204 &I       SETA  &I+1                                                     07200000   
                                              205          AGO   .LOOP                                                    07250000   
                                              206 .NEW     ANOP                                                           07300000   
                                              207 &C       SETC  '  (&SYSMAC(1))'                                         07316600   
                                              208          AIF   ('&C' NE '  (OPEN CODE)').OC                             07333200   
                                              209 &C       SETC  ' '                                                      07349800   
                                              210 .OC      ANOP                                                           07366400   
                                              211 &NAME    BRCT  &REG,&WHERE&C                                            07383000   
                                              212          MEXIT                                                          07400000   
                                              213 .OLD     ANOP                                                           07450000   
                                              214 &NAME    BCT_  &REG,&WHERE                                              07500000   
                                              215          MEND                                                           07550000   
                                              216+*                                                                                  
                                              217          MACRO                                                          07650000   
                                              218 &NAME    BXLE  &REG,&REG2,&WHERE                                        07700000   
                                              219          LCLA  &I,&X                                                    07750000   
                                              220          LCLC  &C                                                       07800000   
1                                                                                                               Page    7            
   Active Usings: None                                                                                                               
0  Loc    Object Code      Addr1    Addr2    Stmt  Source Statement                          HLASM R6.0  2012/03/05 10.22            
0                                             221 &I       SETA  2                                                        07850000   
                                              222 &X       SETA  K'&WHERE                                                 07900000   
                                              223 &C       SETC  '&WHERE'(&X,1)                                           07950000   
                                              224          AIF   ('&C.' NE ')').NEW                                       08000000   
                                              225 .LOOP    ANOP                                                           08050000   
                                              226          AIF   (&I GE &X).NEW                                           08100000   
                                              227          AIF   ('&WHERE'(&I,1) NE '(').NEXT                             08150000   
                                              228          AIF   ('&WHERE'(&I-1,1) EQ '+').NEXT                           08200000   
                                              229          AIF   ('&WHERE'(&I-1,1) NE '-').OLD                            08250000   
                                              230 .NEXT    ANOP                                                           08300000   
                                              231 &I       SETA  &I+1                                                     08350000   
                                              232          AGO   .LOOP                                                    08400000   
                                              233 .NEW     ANOP                                                           08450000   
                                              234 &C       SETC  '  (&SYSMAC(1))'                                         08466600   
                                              235          AIF   ('&C' NE '  (OPEN CODE)').OC                             08483200   
                                              236 &C       SETC  ' '                                                      08499800   
                                              237 .OC      ANOP                                                           08516400   
                                              238 &NAME    BRXLE &REG,&REG2,&WHERE&C                                      08533000   
                                              239          MEXIT                                                          08550000   
                                              240 .OLD     ANOP                                                           08600000   
                                              241 &NAME    BXLE_ &REG,&REG2,&WHERE                                        08650000   
                                              242          MEND                                                           08700000   
                                              243+*                                                                                  
                                              244          MACRO                                                          08800000   
                                              245 &NAME    BXH   &REG,&REG2,&WHERE                                        08850000   
                                              246          LCLA  &I,&X                                                    08900000   
                                              247          LCLC  &C                                                       08950000   
                                              248 &I       SETA  2                                                        09000000   
                                              249 &X       SETA  K'&WHERE                                                 09050000   
                                              250 &C       SETC  '&WHERE'(&X,1)                                           09100000   
                                              251          AIF   ('&C.' NE ')').NEW                                       09150000   
                                              252 .LOOP    ANOP                                                           09200000   
                                              253          AIF   (&I GE &X).NEW                                           09250000   
                                              254          AIF   ('&WHERE'(&I,1) NE '(').NEXT                             09300000   
                                              255          AIF   ('&WHERE'(&I-1,1) EQ '+').NEXT                           09350000   
                                              256          AIF   ('&WHERE'(&I-1,1) NE '-').OLD                            09400000   
                                              257 .NEXT    ANOP                                                           09450000   
                                              258 &I       SETA  &I+1                                                     09500000   
                                              259          AGO   .LOOP                                                    09550000   
                                              260 .NEW     ANOP                                                           09600000   
                                              261 &C       SETC  '  (&SYSMAC(1))'                                         09616600   
                                              262          AIF   ('&C' NE '  (OPEN CODE)').OC                             09633200   
                                              263 &C       SETC  ' '                                                      09649800   
                                              264 .OC      ANOP                                                           09666400   
                                              265 &NAME    BRXH  &REG,&REG2,&WHERE&C                                      09683000   
                                              266          MEXIT                                                          09700000   
                                              267 .OLD     ANOP                                                           09750000   
                                              268 &NAME    BXH_  &REG,&REG2,&WHERE                                        09800000   
                                              269          MEND                                                           09850000   
                                              270+*                                                                                  
                                              271          MACRO                                                          09950000   
                                              272 &NAME    BAL   &REG,&WHERE                                              10000000   
                                              273          LCLA  &I,&X                                                    10050000   
                                              274          LCLC  &C                                                       10100000   
                                              275 &I       SETA  2                                                        10150000   
1                                                                                                               Page    8            
   Active Usings: None                                                                                                               
0  Loc    Object Code      Addr1    Addr2    Stmt  Source Statement                          HLASM R6.0  2012/03/05 10.22            
0                                             276 &X       SETA  K'&WHERE                                                 10200000   
                                              277 &C       SETC  '&WHERE'(&X,1)                                           10250000   
                                              278          AIF   ('&C.' NE ')').NEW                                       10300000   
                                              279 .LOOP    ANOP                                                           10350000   
                                              280          AIF   (&I GE &X).NEW                                           10400000   
                                              281          AIF   ('&WHERE'(&I,1) NE '(').NEXT                             10450000   
                                              282          AIF   ('&WHERE'(&I-1,1) EQ '+').NEXT                           10500000   
                                              283          AIF   ('&WHERE'(&I-1,1) NE '-').OLD                            10550000   
                                              284 .NEXT    ANOP                                                           10600000   
                                              285 &I       SETA  &I+1                                                     10650000   
                                              286          AGO   .LOOP                                                    10700000   
                                              287 .NEW     ANOP                                                           10750000   
                                              288 &C       SETC  '  (&SYSMAC(1))'                                         10766600   
                                              289          AIF   ('&C' NE '  (OPEN CODE)').OC                             10783200   
                                              290 &C       SETC  ' '                                                      10799800   
                                              291 .OC      ANOP                                                           10816400   
                                              292 &NAME    BRAS  &REG,&WHERE&C                                            10833000   
                                              293          MEXIT                                                          10850000   
                                              294 .OLD     ANOP                                                           10900000   
                                              295 &NAME    BAL_  &REG,&WHERE                                              10950000   
                                              296          MEND                                                           11000000   
                                              297+*                                                                                  
                                              298          MACRO                                                          11100000   
                                              299 &NAME    BAS   &REG,&WHERE                                              11150000   
                                              300          LCLA  &I,&X                                                    11200000   
                                              301          LCLC  &C                                                       11250000   
                                              302 &I       SETA  2                                                        11300000   
                                              303 &X       SETA  K'&WHERE                                                 11350000   
                                              304 &C       SETC  '&WHERE'(&X,1)                                           11400000   
                                              305          AIF   ('&C.' NE ')').NEW                                       11450000   
                                              306 .LOOP    ANOP                                                           11500000   
                                              307          AIF   (&I GE &X).NEW                                           11550000   
                                              308          AIF   ('&WHERE'(&I,1) NE '(').NEXT                             11600000   
                                              309          AIF   ('&WHERE'(&I-1,1) EQ '+').NEXT                           11650000   
                                              310          AIF   ('&WHERE'(&I-1,1) NE '-').OLD                            11700000   
                                              311 .NEXT    ANOP                                                           11750000   
                                              312 &I       SETA  &I+1                                                     11800000   
                                              313          AGO   .LOOP                                                    11850000   
                                              314 .NEW     ANOP                                                           11900000   
                                              315 &C       SETC  '  (&SYSMAC(1))'                                         11916600   
                                              316          AIF   ('&C' NE '  (OPEN CODE)').OC                             11933200   
                                              317 &C       SETC  ' '                                                      11949800   
                                              318 .OC      ANOP                                                           11966400   
                                              319 &NAME    BRAS  &REG,&WHERE&C                                            11983000   
                                              320          MEXIT                                                          12000000   
                                              321 .OLD     ANOP                                                           12050000   
                                              322 &NAME    BAS_  &REG,&WHERE                                              12100000   
                                              323          MEND                                                           12150000   
                                              324+_B_      OPSYN B                                                        01-IEABRCX 
                                              325+_BAL_    OPSYN BAL                                                      01-IEABRCX 
                                              326+_BAS_    OPSYN BAS                                                      01-IEABRCX 
                                              327+_BC_     OPSYN BC                                                       01-IEABRCX 
                                              328+_BCT_    OPSYN BCT                                                      01-IEABRCX 
                                              329+_BE_     OPSYN BE                                                       01-IEABRCX 
                                              330+_BH_     OPSYN BH                                                       01-IEABRCX 
1                                                                                                               Page    9            
   Active Usings: None                                                                                                               
0  Loc    Object Code      Addr1    Addr2    Stmt  Source Statement                          HLASM R6.0  2012/03/05 10.22            
0                                             331+_BL_     OPSYN BL                                                       01-IEABRCX 
                                              332+_BM_     OPSYN BM                                                       01-IEABRCX 
                                              333+_BNE_    OPSYN BNE                                                      01-IEABRCX 
                                              334+_BNH_    OPSYN BNH                                                      01-IEABRCX 
                                              335+_BNL_    OPSYN BNL                                                      01-IEABRCX 
                                              336+_BNM_    OPSYN BNM                                                      01-IEABRCX 
                                              337+_BNO_    OPSYN BNO                                                      01-IEABRCX 
                                              338+_BNP_    OPSYN BNP                                                      01-IEABRCX 
                                              339+_BNZ_    OPSYN BNZ                                                      01-IEABRCX 
                                              340+_BO_     OPSYN BO                                                       01-IEABRCX 
                                              341+_BP_     OPSYN BP                                                       01-IEABRCX 
                                              342+_BXH_    OPSYN BXH                                                      01-IEABRCX 
                                              343+_BXLE_   OPSYN BXLE                                                     01-IEABRCX 
                                              344+_BZ_     OPSYN BZ                                                       01-IEABRCX 
                                              345+         POP   PRINT,NOPRINT                                            01-IEABRCX 
                                              346          IEABRCX ENABLE                                                            
                                              347+         PUSH  PRINT,NOPRINT                                            01-IEABRCX 
                                              348+         PRINT OFF,NOPRINT                                              01-IEABRCX 
                                              349+B        OPSYN _B_                                                      01-IEABRCX 
                                              350+BAL      OPSYN _BAL_                                                    01-IEABRCX 
                                              351+BAS      OPSYN _BAS_                                                    01-IEABRCX 
                                              352+BC       OPSYN _BC_                                                     01-IEABRCX 
                                              353+BCT      OPSYN _BCT_                                                    01-IEABRCX 
                                              354+BE       OPSYN _BE_                                                     01-IEABRCX 
                                              355+BH       OPSYN _BH_                                                     01-IEABRCX 
                                              356+BL       OPSYN _BL_                                                     01-IEABRCX 
                                              357+BM       OPSYN _BM_                                                     01-IEABRCX 
                                              358+BNE      OPSYN _BNE_                                                    01-IEABRCX 
                                              359+BNH      OPSYN _BNH_                                                    01-IEABRCX 
                                              360+BNL      OPSYN _BNL_                                                    01-IEABRCX 
                                              361+BNM      OPSYN _BNM_                                                    01-IEABRCX 
                                              362+BNO      OPSYN _BNO_                                                    01-IEABRCX 
                                              363+BNP      OPSYN _BNP_                                                    01-IEABRCX 
                                              364+BNZ      OPSYN _BNZ_                                                    01-IEABRCX 
                                              365+BO       OPSYN _BO_                                                     01-IEABRCX 
                                              366+BP       OPSYN _BP_                                                     01-IEABRCX 
                                              367+BXH      OPSYN _BXH_                                                    01-IEABRCX 
                                              368+BXLE     OPSYN _BXLE_                                                   01-IEABRCX 
                                              369+BZ       OPSYN _BZ_                                                     01-IEABRCX 
                                              370+         POP   PRINT,NOPRINT                                            01-IEABRCX 
                                              371 _BALR    OPSYN BALR                                                                
                                              372 BALR     OPSYN BASR                                                                
                                              373          POP   PRINT                                                               
                                              374          YREGS                                                                     
0                        00000000             376+R0       EQU   0                                                        01-YREGS   
                         00000001             377+R1       EQU   1                                                        01-YREGS   
                         00000002             378+R2       EQU   2                                                        01-YREGS   
                         00000003             379+R3       EQU   3                                                        01-YREGS   
                         00000004             380+R4       EQU   4                                                        01-YREGS   
                         00000005             381+R5       EQU   5                                                        01-YREGS   
                         00000006             382+R6       EQU   6                                                        01-YREGS   
                         00000007             383+R7       EQU   7                                                        01-YREGS   
                         00000008             384+R8       EQU   8                                                        01-YREGS   
                         00000009             385+R9       EQU   9                                                        01-YREGS   
1                                                                                                               Page   10            
   Active Usings: None                                                                                                               
0  Loc    Object Code      Addr1    Addr2    Stmt  Source Statement                          HLASM R6.0  2012/03/05 10.22            
0                        0000000A             386+R10      EQU   10                                                       01-YREGS   
                         0000000B             387+R11      EQU   11                                                       01-YREGS   
                         0000000C             388+R12      EQU   12                                                       01-YREGS   
                         0000000D             389+R13      EQU   13                                                       01-YREGS   
                         0000000E             390+R14      EQU   14                                                       01-YREGS   
                         0000000F             391+R15      EQU   15                                                       01-YREGS   
0                                             393 ISGQUERY CEEENTRY PPA=ISGQUERY_PPA,                                    X           
                                                                 MAIN=NO,                                                X           
                                                                 AUTO=DSASIZE,                                           X           
                                                                 BASE=R11                                                            
 00000000                00000000 000003C8    394+ISGQUERY CSECT                                                         X01-CEEENTRY
                                                 +               ,                                                                   
                                              395+ISGQUERY RMODE ANY                                                @D2A  01-CEEENTRY
                                              396+ISGQUERY AMODE ANY                                                @D2A  01-CEEENTRY
                                              397+           ENTRY ISGQUERY                                               01-CEEENTRY
                                              398+         PUSH  USING                                                    01-CEEENTRY
                                              399+         DROP  ,                                                  @02A  01-CEEENTRY
                     R:F 00000000             400+         USING *,15                                                     01-CEEENTRY
                                              401+         B     CEEZ0004                                                 01-CEEENTRY
                                              402+         BC    15,CEEZ0004                                              02-00000105
 00000000 A7F4 000A               00000014    403+         BRC   15,CEEZ0004  (B)                                         03-00000184
 00000004 00C3C5C5                            404+         DC    X'00C3C5C5'                                              01-CEEENTRY
                         000139B8             405+CEEY0004    EQU ((DSASIZE+7)/8)*8 . Size of automatic storage.    @P1A  01-CEEENTRY
 00000008 000139B8                            406+         DC    A(CEEY0004)        . Size of automatic storage.    @P1C  01-CEEENTRY
 0000000C 00000378                            407+         DC    A(ISGQUERY_PPA-ISGQUERY)                                X01-CEEENTRY
                                                 +                                  . Address of PPA for this program                
                                              408+         B     1(,15)                                                   01-CEEENTRY
                                              409+         BC    15,1(,15)                                                02-00000105
 00000010 47F0 F001               00000001    410+         BC_   15,1(,15)                                                03-00000187
                         00000014             411+CEEZ0004    EQU *                                                       01-CEEENTRY
 00000014 90EC D00C               0000000C    412+         STM   14,12,CEEDSAR14-CEEDSA(13)                               01-CEEENTRY
 00000018 5810 D04C               0000004C    413+         L     1,CEEDSANAB-CEEDSA(,13)  Get the current NAB             01-CEEENTRY
 0000001C A502 0001               00000001    414+         IILH  0,CEEY0004/65536        Load high half of AUTO size@P1A  01-CEEENTRY
 00000020 A503 39B8               000039B8    415+         IILL  0,CEEY0004-(CEEY0004/65536*65536)       and low    @P1A  01-CEEENTRY
 00000024 1E01                                416+         ALR   0,1                     Compute new value.               01-CEEENTRY
 00000026 5500 C00C               0000000C    417+         CL    0,CEECAAEOS-CEECAA(,12)  Compare with EOS.               01-CEEENTRY
 0000002A A7D4 0006               00000036    418+         JNH   CEEX0004                                           @P1C  01-CEEENTRY
 0000002E 58F0 C2BC               000002BC    419+         L     15,CEECAAGETS-CEECAA(,12) Get address overflow routine   01-CEEENTRY
 00000032 0DEF                                420+         BALR  14,15                   Get another stack segment.       01-CEEENTRY
 00000034 181F                                421+         LR    1,15                                                     01-CEEENTRY
                         00000036             422+CEEX0004    EQU *                                                       01-CEEENTRY
 00000036 50D0 1004               00000004    423+         ST    13,CEEDSABKC-CEEDSA(,1)  Set back chain.                 01-CEEENTRY
 0000003A 5000 104C               0000004C    424+         ST    0,CEEDSANAB-CEEDSA(,1)   Set new NAB value               01-CEEENTRY
 0000003E D701 1000 1000 00000000 00000000    425+         XC    CEEDSAFLAGS-CEEDSA(,1),CEEDSAFLAGS-CEEDSA(1) . Clear     01-CEEENTRY
 00000044 5010 D008               00000008    426+         ST    1,CEEDSAFWC-CEEDSA(,13)  Set forward chain.              01-CEEENTRY
 00000048 18D1                                427+         LR    13,1                    Set save area address            01-CEEENTRY
                                              428+         POP   USING                   Clear any temporary usings @P1M  01-CEEENTRY
                     R:D 00000000             429+         USING CEEDSA,13               Addresability to SF     V1R2M0   01-CEEENTRY
 0000004A D203 D048 C280 00000048 00000280    430+         MVC   CEEDSALWS,CEECAALWS-CEECAA(12) Get LWS addr     V1R2M0   01-CEEENTRY
 00000050 581D 0004               00000004    431+         L     1,4(13)                 get previous save.               01-CEEENTRY
 00000054 5810 1018               00000018    432+         L     1,24(,1)                restore original R1              01-CEEENTRY
 00000058 C0B0 FFFF FFD4          00000000    433+         LARL  R11,ISGQUERY             Load EP into 1st base reg @P1C  01-CEEENTRY
                     R:B 00000000             434+         USING ISGQUERY,R11                                       @P1M  01-CEEENTRY
                     R:C 00000000             435          USING CEECAA,R12                                                          
1                                                                                                               Page   11            
   Active Usings: ISGQUERY,R11  CEECAA,R12  CEEDSA,R13                                                                               
0  Loc    Object Code      Addr1    Addr2    Stmt  Source Statement                          HLASM R6.0  2012/03/05 10.22            
0                    R:D 00000000             436          USING CEEDSA,R13                                                          
                                              437 *        DROP  R11                                                                 
 0000005E A7F4 000D               00000078    438          J     GO                                                                  
 00000062                                     439 GOBACK   DS    0H                                                                  
                                              440          CEETERM RC=RETURN_CODE,                                       X           
                                                                 MODIFIER=MODIFIER                                                   
 00000062 58F0 D0B0               000000B0    441+         L   15,RETURN_CODE  . Load Return code.                        01-CEETERM 
 00000066 5800 D0B4               000000B4    442+         L   0,MODIFIER     . Load modifier                             01-CEETERM 
 0000006A 58DD 0004               00000004    443+         L   13,4(13)             Get previous save area                01-CEETERM 
 0000006E 58E0 D00C               0000000C    444+         L   14,12(,13)           Reload return address                 01-CEETERM 
 00000072 981C D018               00000018    445+         LM  1,12,24(13)          Restore reg 1 through 12              01-CEETERM 
 00000076 07FE                                446+         BR  14                   Return to caller                      01-CEETERM 
 00000078                                     447 GO       DS    0H                                                                  
 00000078 C0A0 0000 0150          00000318    448          LARL  R10,LTORG                                                           
                     R:A 00000318             449          USING LTORG,R10                                                           
 0000007E D203 D0B0 A040 000000B0 00000358    450          MVC   RETURN_CODE,=F'20' ERROR                                            
 00000084 D203 D0B4 A044 000000B4 0000035C    451          MVC   MODIFIER,=F'1'     NO PARMS                                         
 0000008A 1291                                452          LTR   R9,R1                                                               
 0000008C A784 FFEB               00000062    453          JZ    GOBACK                                                              
 00000090 D203 D0B4 A048 000000B4 00000360    454          MVC   MODIFIER,=F'2'     TOO FEW PARMS                                    
 00000096 E380 9000 0012          00000000    455          LT    R8,0(,R9)          POINTER TO QNAME                                 
 0000009C A7D4 FFE3               00000062    456          JNP   GOBACK                                                              
 000000A0 D203 D0B4 A048 000000B4 00000360    457          MVC   MODIFIER,=F'2'     TOO FEW PARMS                                    
 000000A6 E370 9004 0012          00000004    458          LT    R7,4(,R9)          POINTER TO RNAME                                 
 000000AC A7D4 FFDB               00000062    459          JNP   GOBACK                                                              
 000000B0 D203 D0B4 A048 000000B4 00000360    460          MVC   MODIFIER,=F'2'     TOO FEW PARMS                                    
 000000B6 E360 9008 0012          00000008    461          LT    R6,8(,R9)          POINTER TO RNAME LENGTH                          
 000000BC A7D4 FFD3               00000062    462          JNP   GOBACK                                                              
 000000C0 D203 D0B4 A048 000000B4 00000360    463          MVC   MODIFIER,=F'2'     TOO FEW PARMS                                    
 000000C6 E350 900C 0012          0000000C    464          LT    R5,12(,R9)         POINTER TO ISGQUERY AREA                         
 000000CC A7D4 FFCB               00000062    465          JNP   GOBACK                                                              
 000000D0 D203 D0B4 A04C 000000B4 00000364    466          MVC   MODIFIER,=F'3'     TOO MANY PARMS                                   
 000000D6 E340 9010 0012          00000010    467          LT    R4,16(,R9)         POINTER TO POINTER TO RETURN AREA                
 000000DC A7B4 FFC3               00000062    468          JNM   GOBACK                                                              
 000000E0 5840 4000               00000000    469          L     R4,0(,R4)          DEREFERENCE POINTER                              
 000000E4 5040 D084               00000084    470          ST    R4,@RETURN                                                          
 000000E8 5A40 4000               00000000    471          A     R4,0(,R4)          ADD IN STORAGE_LENGTH                            
 000000EC 5040 D088               00000088    472          ST    R4,@END            SAVE                                             
                     R:5 00000000             473          USING GQDSECT,R5                                                          
 000000F0 4120 D08C               0000008C    474          LA    R2,RNAMELEN                                                         
                                              475          ISGQUERY REQINFO=QSCAN,                                       X           
                                                                 RETCODE=RETURN_CODE,                                    X           
                                                                 RSNCODE=MODIFIER,                                       X           
                                                                 ANSAREA=ISGANS,                                         X           
                                                                 ANSDETAIL=FULL2,                                        X           
                                                                 ANSLEN=ALISGANS,                                        X           
                                                                 QNAME=(8),                                              X           
                                                                 QNAMEMATCH=PATTERN, SPECIFIC                            X           
                                                                 SCANACTION=START, RESUME, QUIT                          X           
                                                                 RNAMEMATCH=PATTERN, SPECIFIC                            X           
                                                                 RNAME=(7),                                              X           
                                                                 RNAMELEN=(6),                                           X           
                                                                 RESUMETOKEN=TOKEN,                                      X           
                                                                 SCOPE=ANY,                                              X           
                                                                 SEARCH=BY_FILTER,                                       X           
1                                                                                                               Page   12            
   Active Usings: GQDSECT,R5  LTORG,R10  ISGQUERY,R11  CEECAA,R12  CEEDSA,R13                                                        
0  Loc    Object Code      Addr1    Addr2    Stmt  Source Statement                          HLASM R6.0  2012/03/05 10.22            
0                                                                MF=(E,(5),COMPLETE)                                                 
                                              476+*                    MACDATE -02/27/08-<2>                                         
                                              477+                    SPLEVEL  TEST                                       01-ISGQUERY
                                              478+                    SYSSTATE TEST                                       01-ISGQUERY
 000000F4                                     479+M00M0010 DS    0H                             ISGQUERY-2                01-ISGQUERY
                                              480+              PUSH  PRINT                                               01-ISGQUERY
                                              481+                    PRINT ON                                            01-ISGQUERY
 000000F4 4110 5000               00000000    482+         LA    1,0(,5)            ++ LOCATE ARG PARMS                   01-ISGQUERY
 000000F8 D78F 1000 1000 00000000 00000000    483+         XC    0(144,1),0(1)      ++ INITIALIZE                         01-ISGQUERY
 000000FE 9201 1000      00000000             484+         MVI   0(1),1             ++ INPUT XVERSION XL1                 01-ISGQUERY
 00000102 9202 1001      00000001             485+         MVI   1(1),2             ++ INPUT XREQINFO                     01-ISGQUERY
 00000106 9201 1003      00000003             486+         MVI   3(1),1             ++ INPUT XSCANACTION                  01-ISGQUERY
 0000010A 96A1 1004      00000004             487+         OI    4(1),B'10100001'   ++ INPUT BL1                          01-ISGQUERY
 0000010E 9601 1005      00000005             488+         OI    5(1),B'00000001'   ++ INPUT BL1                          01-ISGQUERY
 00000112 9601 1006      00000006             489+         OI    6(1),B'00000001'   ++ INPUT BL1                          01-ISGQUERY
 00000116 D207 1018 8000 00000018 00000000    490+         MVC   24(8,1),0(8)       ++ INPUT XQNAME                       01-ISGQUERY
 0000011C 5070 1034               00000034    491+         ST    7,4+48(,1)         ++ INPUT XRNAME                       01-ISGQUERY
 00000120 41E0 D138               00000138    492+         LA    14,ISGANS          ++ OUTPUT XANSAREA                    01-ISGQUERY
 00000124 50E0 1044               00000044    493+         ST    14,4+64(,1)        ++ OUTPUT XANSAREA                    01-ISGQUERY
 00000128 41E0 D090               00000090    494+         LA    14,TOKEN           ++ OUTPUT XRESUMETOKEN                01-ISGQUERY
 0000012C 50E0 1054               00000054    495+         ST    14,4+80(,1)        ++ OUTPUT XRESUMETOKEN                01-ISGQUERY
 00000130 D203 106C A000 0000006C 00000318    496+         MVC   108(4,1),ALISGANS  ++ INPUT XANSLEN                      01-ISGQUERY
 00000136 D201 107C A054 0000007C 0000036C    497+         MVC   124(2,1),=AL2(32767) ++ INPUT XREQUESTERLIMIT            01-ISGQUERY
 0000013C D200 1080 6000 00000080 00000000    498+         MVC   128(1,1),0(6)      ++ INPUT XRNAMELEN                    01-ISGQUERY
 00000142 9203 1081      00000081             499+         MVI   129(1),3           ++ INPUT XANSDETAIL                   01-ISGQUERY
 00000146 9201 1082      00000082             500+         MVI   130(1),1           ++ INPUT XSEARCH                      01-ISGQUERY
 0000014A 58E0 0010               00000010    501+         L     14,16(0,0)              GET CVT ADDRESS                  01-ISGQUERY
 0000014E 58EE 0304               00000304    502+         L     14,772(14,0)            GET SFT ADDRESS                  01-ISGQUERY
 00000152 58EE 0070               00000070    503+         L     14,4*029-4(14,0)        GET LX/EX FOR SERVICE RTN        01-ISGQUERY
 00000156 B218 E000      00000000             504+         PC    0(14)                   PC TO ISGQPC                     01-ISGQUERY
 0000015A 50F0 D0B0               000000B0    505+         ST    15,RETURN_CODE     ++ SET RETURN CODE                    01-ISGQUERY
 0000015E 5000 D0B4               000000B4    506+         ST    0,MODIFIER         ++ SET REASON CODE                    01-ISGQUERY
                                              507+         POP   PRINT                                                    01-ISGQUERY
                                              508+*                                            ISGQUERY-2                            
0                                             510 *              GATHERFROM=SYSPLEX,                                                 
 00000162 5830 D084               00000084    511          L     R3,@RETURN                                                          
 00000166 4130 3008               00000008    512          LA    R3,8(,R3)          GO PAST HEADER                                   
 0000016A                                     513 LOOP0    DS    0H                                                                  
 0000016A 50F0 D080               00000080    514          ST    R15,QUERY_RC                                                        
 0000016E A7FE 0008               00000008    515          CHI   R15,8                                                               
 00000172 A7B4 FF78               00000062    516          JNL   GOBACK                                                              
 00000176 12FF                                517          LTR   R15,R15                                                             
 00000178 A784 0026               000001C4    518          JZ    NOWARN                                                              
                                              519 *                                                                                  
                                              520 * WARNING ISSUED. SEE IF I WANT TO HANDLE IT                                       
 0000017C E300 D0B6 0095          000000B6    521          LLH   R0,MODIFIER+2                                                       
 00000182 A70E 0405               00000405    522          CHI   R0,X'0405'         ANSWER AREA FULL                                 
 00000186 A784 001F               000001C4    523          JE    NOWARN                                                              
 0000018A                                     524 QUERY_QUIT DS  0H                                                                  
                                              525          ISGQUERY REQINFO=QSCAN,                                       X           
                                                                 SCANACTION=QUIT,                                        X           
                                                                 RESUMETOKEN=TOKEN,                                      X           
                                                                 RETCODE=RETURN_CODX,                                    X           
                                                                 RSNCODE=MODIFIEX,                                       X           
1                                                                                                               Page   13            
   Active Usings: GQDSECT,R5  LTORG,R10  ISGQUERY,R11  CEECAA,R12  CEEDSA,R13                                                        
0  Loc    Object Code      Addr1    Addr2    Stmt  Source Statement                          HLASM R6.0  2012/03/05 10.22            
0                                                                MF=(E,(5))                                                          
                                              526+*                    MACDATE -02/27/08-<2>                                         
 0000018A                                     527+M00M0013 DS    0H                             ISGQUERY-2                01-ISGQUERY
                                              528+              PUSH  PRINT                                               01-ISGQUERY
                                              529+                    PRINT ON                                            01-ISGQUERY
 0000018A 4110 5000               00000000    530+         LA    1,0(,5)            ++ LOCATE ARG PARMS                   01-ISGQUERY
 0000018E D78F 1000 1000 00000000 00000000    531+         XC    0(144,1),0(1)      ++ INITIALIZE                         01-ISGQUERY
 00000194 9201 1000      00000000             532+         MVI   0(1),1             ++ INPUT XVERSION XL1                 01-ISGQUERY
 00000198 9202 1001      00000001             533+         MVI   1(1),2             ++ INPUT XREQINFO                     01-ISGQUERY
 0000019C 9203 1003      00000003             534+         MVI   3(1),3             ++ INPUT XSCANACTION                  01-ISGQUERY
 000001A0 41E0 D090               00000090    535+         LA    14,TOKEN           ++ INOUT XRESUMETOKEN                 01-ISGQUERY
 000001A4 50E0 1054               00000054    536+         ST    14,4+80(,1)        ++ INOUT XRESUMETOKEN                 01-ISGQUERY
 000001A8 58E0 0010               00000010    537+         L     14,16(0,0)              GET CVT ADDRESS                  01-ISGQUERY
 000001AC 58EE 0304               00000304    538+         L     14,772(14,0)            GET SFT ADDRESS                  01-ISGQUERY
 000001B0 58EE 0070               00000070    539+         L     14,4*029-4(14,0)        GET LX/EX FOR SERVICE RTN        01-ISGQUERY
 000001B4 B218 E000      00000000             540+         PC    0(14)                   PC TO ISGQPC                     01-ISGQUERY
 000001B8 50F0 D0B8               000000B8    541+         ST    15,RETURN_CODX     ++ SET RETURN CODE                    01-ISGQUERY
 000001BC 5000 D0BC               000000BC    542+         ST    0,MODIFIEX         ++ SET REASON CODE                    01-ISGQUERY
                                              543+         POP   PRINT                                                    01-ISGQUERY
                                              544+*                                            ISGQUERY-2                            
0000001C0 A7F4 FF51               00000062    546          J     GOBACK                                                              
 000001C4                                     547 NOWARN   DS    0H                                                                  
 000001C4 5850 900C               0000000C    548          L     R5,12(,R9)         POINTER TO ISGQUERY AREA                         
 000001C8 4140 D138               00000138    549          LA    R4,ISGANS                                                           
                     R:4 00000000             550          USING ISGYQUAAHDR,R4                                                      
 000001CC 5850 4014               00000014    551          L     R5,ISGYQUAAHDRFIRSTRECORD31                                         
                     R:5 00000000             552          USING ISGYQUAARS,R5                                                       
 000001D0                                     553 LOOP1    DS    0H                 QNAME LOOP                                       
                                              554 *        L     R7,ISGYQUAARSRNAME31                       &RNAME                   
 000001D0 E380 5044 0095          00000044    555          LLH   R8,ISGYQUAARSRNAMELEN                                               
 000001D6 5860 5014               00000014    556          L     R6,ISGYQUAARSFIRSTRQ31 &REQUEST DATA                                
                     R:6 00000000             557          USING ISGYQUAARQ,R6                                                       
 000001DA                                     558 LOOP2    DS    0H                 RNAME LOOP                                       
 000001DA 5870 6014               00000014    559          L     R7,ISGYQUAARQRQX31 &REQUESTOR EXTENTION                             
                     R:7 00000000             560          USING ISGYQUAARQX,R7                                                      
                                              561 * PROCESS REQUEST DATA                                                             
                     R:3 00000000             562          USING RETURN_STRUC,R3                                                     
 000001DE 5080 3010               00000010    563          ST    R8,RTN_RLEN                                                         
 000001E2 5820 501C               0000001C    564          L     R2,ISGYQUAARSRNAME31                                                
 000001E6 1818                                565          LR    R1,R8                                                               
 000001E8 0610                                566          BCTR  R1,0                                                                
 000001EA 4410 B200               00000200    567          EX    R1,CP_RNAME                                                         
 000001EE 9180 6002      00000002             568          TM    ISGYQUAARQFLAGS1,ISGYQUAARQCONTROL                                  
 000001F2 A714 000A               00000206    569          JO    SHARED                                                              
 000001F6 D207 301C A008 0000001C 00000320    570          MVC   RTN_EXCSHR,=CL8'EXCL'                                               
 000001FC A7F4 0008               0000020C    571          J     CONT1                                                               
 00000200 D200 303A 2000 0000003A 00000000    572 CP_RNAME MVC   RTN_RNAME(0),0(R2)                                                  
 00000206                                     573 SHARED   DS    0H                                                                  
 00000206 D207 301C A010 0000001C 00000328    574          MVC   RTN_EXCSHR,=CL8'SHARED'                                             
 0000020C                                     575 CONT1    DS    0H                                                                  
 0000020C D207 3000 5020 00000000 00000020    576          MVC   RTN_QNAME,ISGYQUAARSQNAME                                           
 00000212 D207 3008 7020 00000008 00000020    577          MVC   RTN_JOBNAME,ISGYQUAARQXJOBNAME                                      
 00000218 D207 3014 7028 00000014 00000028    578          MVC   RTN_SYSNAME,ISGYQUAARQXSYSNAME                                      
 0000021E D207 302C A018 0000002C 00000330    579          MVC   RTN_SCOPE,=CL8'STEP'                                                
1                                                                                                               Page   14            
   Active Usings: RETURN_STRUC,R3  ISGYQUAAHDR,R4  ISGYQUAARS,R5  ISGYQUAARQ,R6  ISGYQUAARQX,R7  LTORG,R10  ISGQUERY,R11             
   CEECAA,R12  CEEDSA,R13                                                                                                            
   Loc    Object Code      Addr1    Addr2    Stmt  Source Statement                          HLASM R6.0  2012/03/05 10.22            
000000224 9501 5046      00000046             580          CLI   ISGYQUAARSSCOPE,ISGYQUAA_KSTEP                                      
 00000228 A784 0016               00000254    581          JE    CONT3                                                               
 0000022C D207 302C A020 0000002C 00000338    582          MVC   RTN_SCOPE,=CL8'SYSTEM'                                              
 00000232 9502 5046      00000046             583          CLI   ISGYQUAARSSCOPE,ISGYQUAA_KSYSTEM                                    
 00000236 A784 000F               00000254    584          JE    CONT3                                                               
 0000023A D207 302C A028 0000002C 00000340    585          MVC   RTN_SCOPE,=CL8'SYSPLEX'                                             
 00000240 9503 5046      00000046             586          CLI   ISGYQUAARSSCOPE,ISGYQUAA_KSYSPLEX                                   
 00000244 A784 0008               00000254    587          JE    CONT3                                                               
 00000248 D206 302D A056 0000002D 0000036E    588          MVC   RTN_SCOPE+1(7),=CL7'ERROR'                                          
 0000024E D200 302C 5046 0000002C 00000046    589          MVC   RTN_SCOPE(1),ISGYQUAARSSCOPE                                        
 00000254                                     590 CONT3    DS    0H                                                                  
 00000254 9108 6002      00000002             591          TM    ISGYQUAARQFLAGS1,ISGYQUAARQOWNER                                    
 00000258 A714 000B               0000026E    592          JO    OWNER                                                               
 0000025C 9104 6002      00000002             593          TM    ISGYQUAARQFLAGS1,ISGYQUAARQMATU                                     
 00000260 A714 0007               0000026E    594          JO    OWNER                                                               
 00000264 D207 3024 A030 00000024 00000348    595          MVC   RTN_STATUS,=CL8'WAIT'                                               
 0000026A A7F4 0005               00000274    596          J     CONT2                                                               
 0000026E                                     597 OWNER    DS    0H                                                                  
 0000026E D207 3024 A038 00000024 00000350    598          MVC   RTN_STATUS,=CL8'OWNED'                                              
 00000274                                     599 CONT2    DS    0H                                                                  
 00000274 D201 3038 7006 00000038 00000006    600          MVC   RTN_ASID,ISGYQUAARQXASID                                            
 0000027A D203 3034 6004 00000034 00000004    601          MVC   RTN_TCB,ISGYQUAARQTCB                                               
 00000280 D203 D0B0 A050 000000B0 00000368    602          MVC   RETURN_CODE,=F'24'                                                  
 00000286 D203 D0B4 A044 000000B4 0000035C    603          MVC   MODIFIER,=F'1'                                                      
 0000028C 4130 3139               00000139    604          LA    R3,RTN_NEXT                                                         
 00000290 5530 D088               00000088    605          CL    R3,@END                                                             
 00000294 A7B4 FF7B               0000018A    606          JNL   QUERY_QUIT                                                          
                                              607          DROP  R7                                                                  
 00000298 E360 600C 0012          0000000C    608          LT    R6,ISGYQUAARQNEXT31                                                 
 0000029E A774 FF9E               000001DA    609          JNZ   LOOP2              GOT ANOTHER IF != NULL                           
                                              610          DROP  R6                                                                  
 000002A2 E350 500C 0012          0000000C    611          LT    R5,ISGYQUAARSNEXT31 NEXT QNAME                                      
 000002A8 A774 FF94               000001D0    612          JNZ   LOOP1              LOOP IF != NULL                                  
                                              613          DROP  R5                                                                  
 000002AC 5840 D084               00000084    614          L     R4,@RETURN                                                          
 000002B0 5030 4004               00000004    615          ST    R3,4(,R4)          STORE END ADDRESS                                
 000002B4 D703 D0B0 D0B0 000000B0 000000B0    616          XC    RETURN_CODE,RETURN_CODE                                             
 000002BA D703 D0B4 D0B4 000000B4 000000B4    617          XC    MODIFIER,MODIFIER                                                   
 000002C0 E3F0 D080 0012          00000080    618          LT    R15,QUERY_RC                                                        
 000002C6 A784 FECE               00000062    619          JZ    GOBACK                                                              
 000002CA 5850 900C               0000000C    620          L     R5,12(,R9)         POINTER TO ISGQUERY AREA                         
                                              621          ISGQUERY REQINFO=QSCAN,                                       X           
                                                                 SCANACTION=RESUME,                                      X           
                                                                 ANSAREA=ISGANS,                                         X           
                                                                 ANSLEN=ALISGANS,                                        X           
                                                                 RESUMETOKEN=TOKEN,                                      X           
                                                                 RETCODE=RETURN_CODE,                                    X           
                                                                 RSNCODE=MODIFIER,                                       X           
                                                                 MF=(E,(5))                                                          
                                              622+*                    MACDATE -02/27/08-<2>                                         
 000002CE                                     623+M00M0014 DS    0H                             ISGQUERY-2                01-ISGQUERY
                                              624+              PUSH  PRINT                                               01-ISGQUERY
                                              625+                    PRINT ON                                            01-ISGQUERY
 000002CE 4110 5000               00000000    626+         LA    1,0(,5)            ++ LOCATE ARG PARMS                   01-ISGQUERY
 000002D2 D78F 1000 1000 00000000 00000000    627+         XC    0(144,1),0(1)      ++ INITIALIZE                         01-ISGQUERY
1                                                                                                               Page   15            
   Active Usings: RETURN_STRUC,R3  ISGYQUAAHDR,R4  LTORG,R10  ISGQUERY,R11  CEECAA,R12  CEEDSA,R13                                   
0  Loc    Object Code      Addr1    Addr2    Stmt  Source Statement                          HLASM R6.0  2012/03/05 10.22            
0000002D8 9201 1000      00000000             628+         MVI   0(1),1             ++ INPUT XVERSION XL1                 01-ISGQUERY
 000002DC 9202 1001      00000001             629+         MVI   1(1),2             ++ INPUT XREQINFO                     01-ISGQUERY
 000002E0 9202 1003      00000003             630+         MVI   3(1),2             ++ INPUT XSCANACTION                  01-ISGQUERY
 000002E4 41E0 D138               00000138    631+         LA    14,ISGANS          ++ OUTPUT XANSAREA                    01-ISGQUERY
 000002E8 50E0 1044               00000044    632+         ST    14,4+64(,1)        ++ OUTPUT XANSAREA                    01-ISGQUERY
 000002EC 41E0 D090               00000090    633+         LA    14,TOKEN           ++ INOUT XRESUMETOKEN                 01-ISGQUERY
 000002F0 50E0 1054               00000054    634+         ST    14,4+80(,1)        ++ INOUT XRESUMETOKEN                 01-ISGQUERY
 000002F4 D203 106C A000 0000006C 00000318    635+         MVC   108(4,1),ALISGANS  ++ INPUT XANSLEN                      01-ISGQUERY
 000002FA 58E0 0010               00000010    636+         L     14,16(0,0)              GET CVT ADDRESS                  01-ISGQUERY
 000002FE 58EE 0304               00000304    637+         L     14,772(14,0)            GET SFT ADDRESS                  01-ISGQUERY
 00000302 58EE 0070               00000070    638+         L     14,4*029-4(14,0)        GET LX/EX FOR SERVICE RTN        01-ISGQUERY
 00000306 B218 E000      00000000             639+         PC    0(14)                   PC TO ISGQPC                     01-ISGQUERY
 0000030A 50F0 D0B0               000000B0    640+         ST    15,RETURN_CODE     ++ SET RETURN CODE                    01-ISGQUERY
 0000030E 5000 D0B4               000000B4    641+         ST    0,MODIFIER         ++ SET REASON CODE                    01-ISGQUERY
                                              642+         POP   PRINT                                                    01-ISGQUERY
                                              643+*                                            ISGQUERY-2                            
000000312 A7F4 FF2C               0000016A    645          J     LOOP0                                                               
 00000318                                     646 LTORG    DS    0D                                                                  
 00000318 00013880                            647 ALISGANS DC    A(LISGANS)                                                          
                                              648 *TITLE    DC    CL80'ISGQUERY DUMP'                                                
                                              649 *OPTIONS  DC    CL255'BLOCKS,STORAGE,REGST(256),GENOPTS'                           
 00000320                                     650          LTORG *                                                                   
 00000320 C5E7C3D340404040                    651                =CL8'EXCL'                                                          
 00000328 E2C8C1D9C5C44040                    652                =CL8'SHARED'                                                        
 00000330 E2E3C5D740404040                    653                =CL8'STEP'                                                          
 00000338 E2E8E2E3C5D44040                    654                =CL8'SYSTEM'                                                        
 00000340 E2E8E2D7D3C5E740                    655                =CL8'SYSPLEX'                                                       
 00000348 E6C1C9E340404040                    656                =CL8'WAIT'                                                          
 00000350 D6E6D5C5C4404040                    657                =CL8'OWNED'                                                         
 00000358 00000014                            658                =F'20'                                                              
 0000035C 00000001                            659                =F'1'                                                               
 00000360 00000002                            660                =F'2'                                                               
 00000364 00000003                            661                =F'3'                                                               
 00000368 00000018                            662                =F'24'                                                              
 0000036C 7FFF                                663                =AL2(32767)                                                         
 0000036E C5D9D9D6D94040                      664                =CL7'ERROR'                                                         
                                              665 ISGQUERY_PPA CEEPPA LIBRARY=NO,                                        X           
                                                                 PPA2=YES,                                               X           
                                                                 EXTPROC=YES,                                            X           
                                                                 TSTAMP=YES,                                             X           
                                                                 PEP=YES,                                                X           
                                                                 INSTOP=NO,                                              X           
                                                                 EXITDSA=NO,                                             X           
                                                                 OWNEXM=YES,                                             X           
                                                                 EPNAME=ISGQUERY,                                        X           
                                                                 VER=1,                                                  X           
                                                                 REL=1,                                                  X           
                                                                 MOD=0,                                                  X           
                                                                 DSA=YES                                                             
                                              666+*/******************************************************************/              
                                              667+*/*                                                                */              
                                              668+*/* Licensed Materials - Property of IBM                           */              
                                              669+*/*                                                                */              
                                              670+*/* 5694-A01 5688-198                                              */              
1                                                                                                               Page   16            
   Active Usings: RETURN_STRUC,R3  ISGYQUAAHDR,R4  LTORG,R10  ISGQUERY,R11  CEECAA,R12  CEEDSA,R13                                   
0  Loc    Object Code      Addr1    Addr2    Stmt  Source Statement                          HLASM R6.0  2012/03/05 10.22            
0                                             671+*/*                                                                */              
                                              672+*/* Copyright IBM Corp. 1991, 2009                                 */              
                                              673+*/*                                                                */              
                                              674+*/* Status = HLE7760                                               */              
                                              675+*/*                                                                */              
                                              676+*/******************************************************************/              
                                              677+*                                                                                  
                                              678+**********************************************************************             
                                              679+*        P R O G R A M  P R O L O G  A R E A 1   ( P P A 1)          *             
                                              680+**********************************************************************             
                                              681+*                                                                                  
 00000378                                     682+PPA10015    DS    0F                                                    01-CEEPPA  
 00000378                                     683+ISGQUERY_PPA DS 0F                                                      01-CEEPPA  
 00000378 1E                                  684+         DC    AL1(PPANL0015-*) Offset to the entry name length         01-CEEPPA  
 00000379 CE                                  685+         DC    X'CE'            LE/370  Indicator.                      01-CEEPPA  
 0000037A A0                                  686+         DC    B'10100000'                             . PPA flags      01-CEEPPA  
                                              687+*                     Bit 0   0 = Internal Procedure                               
                                              688+*                             1 = External Procedure                               
                                              689+*                     Bit 1   0 = Primary Entry Point                              
                                              690+*                             1 = Secondary Entry Point                            
                                              691+*                     Bit 2   0 = Block doesn't have a DSA                         
                                              692+*                             1 = Block has a DSA                                  
                                              693+*                     Bit 3   0 = compiled object                                  
                                              694+*                             1 = library object                                   
                                              695+*                     Bit 4   0 = sampling interrupts to library                   
                                              696+*                             1 = sampling interrupts to code                      
                                              697+*                     Bit 5   0 = not an exit DSA                                  
                                              698+*                             1 = Exit DSA                                         
                                              699+*                     Bit 6   0 = own exception model                              
                                              700+*                             1 = inherited (callers) exception model              
                                              701+*                     Bit 7       Reserved                                         
 0000037B 00                                  702+         DC    X'00'            Member flags                            01-CEEPPA  
 0000037C 000003A0                            703+         DC    A(PPA20015)      Addr of Compile Unit Block (PPA2)       01-CEEPPA  
 00000380 00000000                            704+         DC    A(0)             Blk Debug Info                          01-CEEPPA  
 00000384 00000000                            705+         DC    A(0)             Data Descriptors for this entry point   01-CEEPPA  
 00000388 00000000                            706+         DC    A(0)             GPR save bit mask      X'10'      @D2A  01-CEEPPA  
 0000038C 00000000                            707+         DC    A(0)             Member PPA1 word       X'14'      @D2A  01-CEEPPA  
 00000390 00000000                            708+         DC    A(0)                             Offset X'18'      @D2A  01-CEEPPA  
                                              709+* Language Environment flags (16bits)           Offset X'1C'      @D2A             
 00000394 00                                  710+         DC    B'00000000'                                        @D2A  01-CEEPPA  
                                              711+*                 Bit 0-1 00 = Old code entry performs full save  @D2A             
                                              712+*                         01 = Old code performs partial save     @D2A             
                                              713+*                         10 = Old code performs partial save+R12 @D2A             
                                              714+*                 Bit 2   0  = Allow asynchronous exceptions      @D2A             
                                              715+*                         1  = Defer asynchronous exceptions      @D2A             
                                              716+*                 Bit 3   0  = Word 0 of SA not initialized       @D2A             
                                              717+*                         1  = Word 0 of SA initialized           @D2A             
                                              718+*                 Bit 4   0  = Code is nonexternal glue           @D2A             
                                              719+*                         1  = Code is external glue              @D2A             
                                              720+*                 Bit 5   0  = Real return addr saved in SA at    @D2A             
                                              721+*                              offset '0C'X                       @D2A             
                                              722+*                         1  = Real return addr saved in linkage  @D2A             
                                              723+*                              area                               @D2A             
                                              724+*                 Bit 6   0  = Storage argument area start        @D2A             
                                              725+*                              indeterminate                      @D2A             
1                                                                                                               Page   17            
   Active Usings: RETURN_STRUC,R3  ISGYQUAAHDR,R4  LTORG,R10  ISGQUERY,R11  CEECAA,R12  CEEDSA,R13                                   
0  Loc    Object Code      Addr1    Addr2    Stmt  Source Statement                          HLASM R6.0  2012/03/05 10.22            
0                                             726+*                         1  = Storage argument area start valid  @D2A             
                                              727+*                 Bit 7   0  = R12 must contain CAA address upon  @D2A             
                                              728+*                              old code entry                     @D2A             
                                              729+*                         1  = R12 not defined upon old code entry@D2A             
 00000395 00                                  730+         DC    B'00000000'                                        @D2A  01-CEEPPA  
                                              731+*                 Bit 8   0  = Not vararg routine                 @D2A             
                                              732+*                         1  = Vararg routine                     @D2A             
                                              733+*                 Bit 9   0  = Asynchronous interrupts unsupported@D2A             
                                              734+*                         1  = Asynchronous interrupts supported  @D2A             
                                              735+*                 Bit 10  0  = No module service level            @D2A             
                                              736+*                         1  = Module service level applied       @D2A             
                                              737+*                 Bit 11-15  = Reserved                           @D2A             
 00000396                                     738+         DS    0H                                                       01-CEEPPA  
 00000396 0008                                739+PPANL0015 DC   AL2(8)        .  Length of Entry Point Name              01-CEEPPA  
 00000398 C9E2C7D8E4C5D9E8                    740+         DC    CL8'ISGQUERY' .  Entry Point Name                        01-CEEPPA  
 000003A0                                     741+         DS    0H                                                       01-CEEPPA  
                                              742+*                                                                                  
                                              743+**********************************************************************             
                                              744+*        P R O G R A M  P R O L O G  A R E A 2   ( P P A 2)          *             
                                              745+**********************************************************************             
                                              746+*                                                                                  
                                              747+         EXTRN CEESTART                                                 01-CEEPPA  
 000003A0                                     748+PPA20015    DS    0F                                                    01-CEEPPA  
 000003A0 0F                                  749+         DC    AL1(15)          Member ID                               01-CEEPPA  
 000003A1 00                                  750+         DC    AL1(0)           Sub ID                                  01-CEEPPA  
 000003A2 00                                  751+         DC    AL1(0)           Member defined                          01-CEEPPA  
 000003A3 01                                  752+         DC    AL1(1)           Level of PPAx control blocks            01-CEEPPA  
 000003A4 00000000                            753+PPA2S0015   DC    A(CEESTART)      A(CEESTART for this load module)     01-CEEPPA  
 000003A8 00000000                            754+         DC    A(0)             A(Compile Debug Information (CDI) )     01-CEEPPA  
 000003AC 00000014                            755+         DC    A(CEETIMES-PPA20015)   A(Offset to time stamp)           01-CEEPPA  
 000003B0 00000000                            756+PPA2M0015   DC    A(ISGQUERY)    . A(first entry point in comp. unit)   01-CEEPPA  
                                              757+*                                                                                  
                                              758+**********************************************************************             
                                              759+*                 T I M E    S T A M P                               *             
                                              760+**********************************************************************             
                                              761+*                                                                                  
                                              762+*        Time Stamp                                                                
                                              763+*,Time Stamp = 2012/03/05 10:22:00                                      01-CEEPPA  
                                              764+*,Version 1 Release 1 Modification 0                                    01-CEEPPA  
 000003B4                                     765+CEETIMES DS    0F                                                       01-CEEPPA  
 000003B4 F2F0F1F2                            766+         DC    CL4'2012'          Year                                  01-CEEPPA  
 000003B8 F0F3                                767+         DC    CL2'03'            Month                                 01-CEEPPA  
 000003BA F0F5                                768+         DC    CL2'05'            Day                                   01-CEEPPA  
 000003BC F1F0                                769+         DC    CL2'10'            Hours                                 01-CEEPPA  
 000003BE F2F2                                770+         DC    CL2'22'            Minutes                               01-CEEPPA  
 000003C0 F0F0                                771+         DC    CL2'00'            Seconds                               01-CEEPPA  
 000003C2 F140                                772+         DC    CL2'1'             Version                               01-CEEPPA  
 000003C4 F140                                773+         DC    CL2'1'             Release                               01-CEEPPA  
 000003C6 F040                                774+         DC    CL2'0'             Modification                          01-CEEPPA  
                                              775          CEEDSA                                                                    
                                              776+*                                                                                  
                                              777+**********************************************************************             
                                              778+*   D Y N A M I C   S T O R A G E   A R E A    ( D S A )             *             
                                              779+**********************************************************************             
                                              780+*                                                                                  
1                                                                                                               Page   18            
   Active Usings: RETURN_STRUC,R3  ISGYQUAAHDR,R4  LTORG,R10  ISGQUERY,R11  CEECAA,R12  CEEDSA,R13                                   
0D-Loc    Object Code      Addr1    Addr2    Stmt  Source Statement                          HLASM R6.0  2012/03/05 10.22            
000000000                00000000 000139B8    781+CEEDSA   DSECT 0D         Default DSECT NAME for SECTYPE=ALL            01-CEEDSA  
                                              782+*                                                                                  
 00000000                                     783+CEEDSAFLAGS DS XL2                  DSA flags                           01-CEEDSA  
                         00001000             784+CEEDSALNGC EQU X'1000'                C library DSA                     01-CEEDSA  
                         00000800             785+CEEDSALNGP EQU X'0800'                PL/I library DSA                  01-CEEDSA  
                         00000008             786+CEEDSAEXIT EQU X'0008'                An Exit DSA                       01-CEEDSA  
 00000002                                     787+CEEDSAMEMD DS  XL2                  Member defined                      01-CEEDSA  
 00000004                                     788+CEEDSABKC DS   A                    Addr of DSA of caller               01-CEEDSA  
 00000008                                     789+CEEDSAFWC DS   A                    Addr of DSA of last called rtn      01-CEEDSA  
 0000000C                                     790+CEEDSAR14 DS   F                    Save area for register 14           01-CEEDSA  
 00000010                                     791+CEEDSAR15 DS   F                    Save area for register 15           01-CEEDSA  
 00000014                                     792+CEEDSAR0 DS    F                    Save area for register 0            01-CEEDSA  
 00000018                                     793+CEEDSAR1 DS    F                    Save area for register 1            01-CEEDSA  
 0000001C                                     794+CEEDSAR2 DS    F                    Save area for register 2            01-CEEDSA  
 00000020                                     795+CEEDSAR3 DS    F                    Save area for register 3            01-CEEDSA  
 00000024                                     796+CEEDSAR4 DS    F                    Save area for register 4            01-CEEDSA  
 00000028                                     797+CEEDSAR5 DS    F                    Save area for register 5            01-CEEDSA  
 0000002C                                     798+CEEDSAR6 DS    F                    Save area for register 6            01-CEEDSA  
 00000030                                     799+CEEDSAR7 DS    F                    Save area for register 7            01-CEEDSA  
 00000034                                     800+CEEDSAR8 DS    F                    Save area for register 8            01-CEEDSA  
 00000038                                     801+CEEDSAR9 DS    F                    Save area for register 9            01-CEEDSA  
 0000003C                                     802+CEEDSAR10 DS   F                    Save area for register 10           01-CEEDSA  
 00000040                                     803+CEEDSAR11 DS   F                    Save area for register 11           01-CEEDSA  
 00000044                                     804+CEEDSAR12 DS   F                    Save area for register 12           01-CEEDSA  
 00000048                                     805+CEEDSALWS DS   A                    Addr of PL/I Language Working Space 01-CEEDSA  
 0000004C                                     806+CEEDSANAB DS   A                    Addr of next available byte         01-CEEDSA  
 00000050                                     807+CEEDSAPNAB DS  A                    Addr of end-of-prolog NAB           01-CEEDSA  
 00000054                                     808+           DS  4F                                                       01-CEEDSA  
 00000064                                     809+CEEDSATRAN DS  0A                   HPL TxArea or                       01-CEEDSA  
 00000064                                     810+CEEDSARENT DS  A                    Program reentry address-IPAT        01-CEEDSA  
 00000068                                     811+CEEDSACILC DS  A                    C to Fortran ILC save area          01-CEEDSA  
 0000006C                                     812+CEEDSAMODE DS  A                    Return address of module that       01-CEEDSA  
                                              813+*                                   caused the last mode switch                    
 00000070                                     814+           DS  2F                                                       01-CEEDSA  
 00000078                                     815+CEEDSARMR  DS  A                    Addr of language specific           01-CEEDSA  
                                              816+*                                   exception handler                              
                                              817+*                                                                                  
 0000007C                                     818+           DS  F                    Reserved                            01-CEEDSA  
 00000080                                     819+CEEDSAAUTO DS  0D                   Automatic storage starts here       01-CEEDSA  
 00000080                                     820+CEEDSAEND  DS  0D                   End of DSA                          01-CEEDSA  
                         00000080             821+CEEDSASZ EQU   CEEDSAEND-CEEDSA     Size of DSA                         01-CEEDSA  
                         00000000             822+CEEDSA_STDCEEDSA  EQU   X'0000'     flag values of standard CEE DSA     01-CEEDSA  
                                              823+*                                                                                  
                                              824+*                                                                                  
                                              825+*                                                                                  
                                              826+*                                                                                  
                                              827+**********************************************************************             
                                              828+*   X P L I N K   D Y N A M I C   S T O R A G E   A R E A            *             
                                              829+**********************************************************************             
                                              830+*                                                                                  
 00000000                00000000 00000840    831+CEEDSAHP DSECT 0D         Default DSECT NAME for SECTYPE=ALL            01-CEEDSA  
                                              832+         CEEDNUT          Set the global values                         01-CEEDSA  
                                              833+***********************************************************************            
                                              834+***********************************************************************            
                         00000004             835+LEPTRLEN EQU    4                                                       02-CEEDNUT 
1                                                                                                               Page   19            
   Active Usings: RETURN_STRUC,R3  ISGYQUAAHDR,R4  LTORG,R10  ISGQUERY,R11  CEECAA,R12  CEEDSA,R13                                   
0D-Loc    Object Code      Addr1    Addr2    Stmt  Source Statement                          HLASM R6.0  2012/03/05 10.22            
0                                             836+*                                                                                  
 00000000                                     837+CEEDSAHP_BIAS  DS XL2048             BIAS -- DO NOT USE                 01-CEEDSA  
                         00000800             838+CEEDSAHPBIASSZ EQU *-CEEDSAHP_BIAS   Size of Down Stack Bias            01-CEEDSA  
 00000800                                     839+CEEDSAHP_FIXED DS 0X                 Start of fixed part                01-CEEDSA  
 00000800                                     840+CEEDSAHP4TO15 DS 12F                 Save area for regs 4-15            01-CEEDSA  
 00000830                00000830 00000800    841+            ORG CEEDSAHP_FIXED                                          01-CEEDSA  
 00000800                                     842+CEEDSAHP4TO7  DS 4F                  Save area for regs 4-7             01-CEEDSA  
 00000810                00000810 00000800    843+            ORG CEEDSAHP_FIXED                                          01-CEEDSA  
 00000800                                     844+CEEDSAHPR4  DS F                     Save area for register 4           01-CEEDSA  
 00000804                                     845+CEEDSAHPR5  DS F                     Save area for register 5           01-CEEDSA  
 00000808                                     846+CEEDSAHPR6  DS F                     Save area for register 6           01-CEEDSA  
 0000080C                                     847+CEEDSAHPR7  DS F                     Save area for register 7           01-CEEDSA  
 00000810                                     848+CEEDSAHP8TO15 DS 8F                  Save area for regs 8-15            01-CEEDSA  
 00000830                00000830 00000810    849+            ORG CEEDSAHP8TO15                                           01-CEEDSA  
 00000810                                     850+CEEDSAHPR8  DS F                     Save area for register 8           01-CEEDSA  
 00000814                                     851+CEEDSAHPR9  DS F                     Save area for register 9           01-CEEDSA  
 00000818                                     852+CEEDSAHPR10 DS F                     Save area for register 10          01-CEEDSA  
 0000081C                                     853+CEEDSAHPR11 DS F                     Save area for register 11          01-CEEDSA  
 00000820                                     854+CEEDSAHPR12 DS F                     Save area for register 12          01-CEEDSA  
 00000824                                     855+CEEDSAHPR13 DS F                     Save area for register 13          01-CEEDSA  
 00000828                                     856+CEEDSAHPR14 DS F                     Save area for register 14          01-CEEDSA  
 0000082C                                     857+CEEDSAHPR15 DS F                     Save area for register 15          01-CEEDSA  
 00000830                                     858+            DS F                     Reserved for LE use                01-CEEDSA  
 00000834                                     859+CEEDSAHPMBRUSE DS F                  Reserved for LE Member use         01-CEEDSA  
 00000838                                     860+CEEDSAHPTRAN DS A                    Addr of transition area            01-CEEDSA  
 0000083C                                     861+CEEDSAHP_ARG_PRE DS 0A               Argument prefix area               01-CEEDSA  
 0000083C                                     862+CEEDSAHPRENT     DS A                or Program reentry addr-IPAT       01-CEEDSA  
                         00000040             863+CEEDSAHPSZ  EQU *-CEEDSAHP_FIXED     Size of fixed DSA                  01-CEEDSA  
 00000840                                     864+CEEDSAHP_ARGLIST DS 0X               Start of Vary length arg list      01-CEEDSA  
                                              865+*                                                                                  
                                              866+*                                                                                  
 00000080                00000000 000139B8    867+CEEDSA   DSECT  ,                                                       01-CEEDSA  
                                              868 * DYNAMIC AREA IS DEFINED HERE.                                                    
                                              869 * THIS IS WITHIN A DSECT, SO NO DATA IS REALLY INITIALIZED                         
 00000080                                     870 QUERY_RC DS    F                                                                   
 00000084                                     871 @RETURN  DS    A                                                                   
 00000088                                     872 @END     DS    A                                                                   
 0000008C                                     873 RNAMELEN DS    F                                                                   
 00000090                                     874 TOKEN    DS    F                                                                   
 00000094                                     875 SYS      DS    F                                                                   
                                              876 * BIT MEANING                                                                      
                                              877 *    0                                                                             
                                              878 *    CURRENTLY EXECUTING IN THE CICS ENVIRONMENT                                   
                                              879 *    1                                                                             
                                              880 *    CURRENTLY EXECUTING IN A CICS_PIPI ENVIRONMENT                                
                                              881 *    2-3                                                                           
                                              882 *    RESERVED FOR OTHER SPECIFIC CICS ENVIRONMENTS                                 
                                              883 *    4                                                                             
                                              884 *    CURRENTLY EXECUTING IN A TSO ENVIRONMENT                                      
                                              885 *    5                                                                             
                                              886 *    CURRENTLY EXECUTING IN A BATCH ENVIRONMENT                                    
                                              887 *    6                                                                             
                                              888 *    CURRENTLY EXECUTING IN A Z/OS UNIX ENVIRONMENT                                
                                              889 *    7-28                                                                          
                                              890 *    RESERVED FOR FUTURE USE                                                       
1                                                                                                               Page   20            
   Active Usings: RETURN_STRUC,R3  ISGYQUAAHDR,R4  LTORG,R10  ISGQUERY,R11  CEECAA,R12  CEEDSA,R13                                   
0D-Loc    Object Code      Addr1    Addr2    Stmt  Source Statement                          HLASM R6.0  2012/03/05 10.22            
0                                             891 *    29                                                                            
                                              892 *    CURRENTLY EXECUTING ON Z/VSE(TM)                                              
                                              893 *    30                                                                            
                                              894 *    CURRENTLY EXECUTING ON Z/OS                                                   
                                              895 *    31                                                                            
                                              896 *    PREVIOUSLY INDICATED AS EXECUTING ON Z/OS.E                                   
                                              897 *                                                                                  
 00000098                                     898 ENV      DS    F                                                                   
                                              899 *                                                                                  
 0000009C                                     900 MEMBER   DS    F                                                                   
                                              901 *                                                                                  
 000000A0                                     902 GPID     DS    F                                                                   
 000000A4                                     903 FC       DS    3F                                                                  
 000000B0                                     904 RETURN_CODE DS F                                                                   
 000000B4                                     905 MODIFIER DS    F                                                                   
 000000B8                                     906 RETURN_CODX DS F                                                                   
 000000BC                                     907 MODIFIEX DS    F                                                                   
 000000C0                                     908 CALLX    DS    30A                                                                 
 00000138                                     909 ISGANS   DS    0D                                                                  
 00000138                                     910          DS    20000F                                                              
                         00013880             911 LISGANS  EQU   *-ISGANS                                                            
                         000139B8             912 DSASIZE  EQU   *-CEEDSA                                                            
                                              913          CEECAA                                                                    
                                              914+***********************************************************************            
                                              915+*  C O M M O N   A N C H O R   A R E A   ( C A A )                    *            
                                              916+***********************************************************************            
                                              917+*                                                                                  
                                              918+         CEEDNUT  ,                                                     01-CEECAA  
                                              919+***********************************************************************            
                                              920+***********************************************************************            
                                              921+*                                                                                  
 00000000                00000000 000003F8    922+CEECAA   DSECT    ,                 CAA mapping                         01-CEECAA  
 00000000                                     923+CEECAAFLAG0 DS    X                 CAA Flags                           01-CEECAA  
                         00000002             924+CEECAAXHDL  EQU   X'02'              Bypass exception handling          01-CEECAA  
                                              925+*           EQU   X'FD'              Reserved                                      
 00000001                                     926+            DS    X                 Reserved                            01-CEECAA  
                         00000020             927+CEECAADBGINIT EQU X'20'              Debugger is initialized            01-CEECAA  
 00000002                                     928+CEECAALANGP DS    X                 PL/I compatibility flags            01-CEECAA  
                         00000008             929+CEECAATHFN  EQU   X'08'              If set, NO PL/I FINISH             01-CEECAA  
                                              930+*                                    on-unit active                                
                                              931+*           EQU   X'F7'               Reserved                                     
 00000003                                     932+            DS    XL5               Reserved                            01-CEECAA  
 00000008                                     933+CEECAABOS   DS    A                 Start of current storage segment    01-CEECAA  
 0000000C                                     934+CEECAAEOS   DS    A                 End of current storage segment      01-CEECAA  
 00000010                                     935+            DS    XL52              Reserved                            01-CEECAA  
 00000044                                     936+CEECAATORC  DS    F                 Thread level return code            01-CEECAA  
 00000048                                     937+            DS    XL44              Reserved                 @CM0419C   01-CEECAA  
 00000074                                     938+CEECAATOVF  DS    A                 Stack overflow routine   @CM0419A   01-CEECAA  
 00000078                                     939+            DS    XL168             Reserved                 @CM0419A   01-CEECAA  
 00000120                                     940+CEECAAATTN  DS    A                 Addr of LE/370 attention handler    01-CEECAA  
                                              941+*                                                                                  
 00000124                                     942+            DS    XL56              Reserved                            01-CEECAA  
 0000015C                                     943+CEECAAHLLEXIT DS  A                 Set by CEEBINT for user hook exit   01-CEECAA  
 00000160                                     944+            DS    XL56              Reserved                            01-CEECAA  
 00000198                                     945+CEECAAHOOK  DS    XL12              Code to pass control                01-CEECAA  
1                                                                                                               Page   21            
   Active Usings: RETURN_STRUC,R3  ISGYQUAAHDR,R4  LTORG,R10  ISGQUERY,R11  CEECAA,R12  CEEDSA,R13                                   
0D-Loc    Object Code      Addr1    Addr2    Stmt  Source Statement                          HLASM R6.0  2012/03/05 10.22            
0000001A4                                     946+CEECAADIMA  DS    A                 A(debugger entry)                   01-CEECAA  
                                              947+*                                                                                  
 000001A8                                     948+CEECAAHOOKS DS    0CL68             Hook control words for debugger@G3C 01-CEECAA  
 000001A8                                     949+CEECAAALLOC DS    XL4               ALLOCATE descr. built               01-CEECAA  
 000001AC                                     950+CEECAASTATE DS    XL4               New statement begins                01-CEECAA  
 000001B0                                     951+CEECAAENTRY DS    XL4               Block entry                         01-CEECAA  
 000001B4                                     952+CEECAAEXIT  DS    XL4               Block exit                          01-CEECAA  
 000001B8                                     953+CEECAAMEXIT DS    XL4               Multiple block exit                 01-CEECAA  
 000001BC                                     954+CEECAAPATHS DS    0CL32             PATH hooks                          01-CEECAA  
 000001BC                                     955+CEECAALABEL DS    XL4               At a label constant                 01-CEECAA  
 000001C0                                     956+CEECAABCALL DS    XL4               Before CALL                         01-CEECAA  
 000001C4                                     957+CEECAAACALL DS    XL4               After CALL                          01-CEECAA  
 000001C8                                     958+CEECAADO    DS    XL4               DO block starting                   01-CEECAA  
 000001CC                                     959+CEECAAIFTRUE  DS   XL4              True part of IF                     01-CEECAA  
 000001D0                                     960+CEECAAIFFALSE DS   XL4              False part of IF                    01-CEECAA  
 000001D4                                     961+CEECAAWHEN    DS   XL4              WHEN group starting                 01-CEECAA  
 000001D8                                     962+CEECAAOTHER   DS   XL4              OTHERWISE group                     01-CEECAA  
 000001DC                                     963+CEECAACGOTO   DS   XL4              GOTO hook for C                     01-CEECAA  
 000001E0                                     964+CEECAARSVDH1  DS   XL4              Reserved hook                       01-CEECAA  
 000001E4                                     965+CEECAARSVDH2  DS   XL4              Reserved hook                       01-CEECAA  
 000001E8                                     966+CEECAAMULTEVT DS   XL4              Multiple Event Hook            @G3C 01-CEECAA  
                                              967+*                                                                                  
 000001EC                                     968+CEECAAMEVMASK DS   XL4              Multiple Event Hook Mask       @G3A 01-CEECAA  
 000001F0                                     969+CEECAACGENE DS    A                 Reserved                            01-CEECAA  
 000001F4                                     970+CEECAACRENT DS    A                 C/370 writable static               01-CEECAA  
 000001F8                                     971+CEECAACFLTINIT DS XL8               Used to covert fixed to float       01-CEECAA  
 00000200                                     972+CEECAACPRMS DS    A                 Parms passed to IBMLIIA             01-CEECAA  
 00000204                                     973+CEECAAC_RTL          DS   0F        Combination of 24 unique C/370 @DJC 01-CEECAA  
                                              974+*                                   trc types & 8 common trc types                 
 00000204                                     975+CEECAAC_RTL_1        DS    X        C/370 RTL unique trace options @DJA 01-CEECAA  
                                              976+*                                                                  @DJA            
 00000205                                     977+CEECAAC_RTL_2        DS    X        C/370 RTL unique trace options @DJA 01-CEECAA  
                                              978+*                                                                  @DJA            
 00000206                                     979+CEECAAC_RTL_3        DS    X        C/370 RTL unique trace options @DJA 01-CEECAA  
                                              980+*                    EQU   X'80'    Reserved                       @DJA            
                         00000040             981+CEECAA_SIGNALS_L     EQU   X'40'    Low-level signals              @DJA 01-CEECAA  
                         00000020             982+CEECAA_LOW_IO        EQU   X'20'    Low-level I/O                  @DJA 01-CEECAA  
                         00000010             983+CEECAA_INITTERM_L    EQU   X'10'    Low-level init/term            @DJA 01-CEECAA  
                                              984+*                    EQU   X'08'    Reserved                       @DJA            
                         00000004             985+CEECAA_SIGNALS_H     EQU   X'04'    High-level signals             @DJA 01-CEECAA  
                         00000002             986+CEECAA_HIGH_IO       EQU   X'02'    High-level I/O                 @DJA 01-CEECAA  
                         00000001             987+CEECAA_INITTERM_H    EQU   X'01'    High-level init/term           @DJA 01-CEECAA  
                                              988+*                                                                  @DJA            
 00000207                                     989+CEECAAC_COMTRACE     DS    X        Common RTL trace options       @DJA 01-CEECAA  
                                              990+*                    EQU   X'80'    Reserved                       @DJA            
                                              991+*                    EQU   X'40'    Reserved                       @DJA            
                         00000020             992+CEECAA_RTLXPLI       EQU   X'20'    RTL XPLINK trace               @DJA 01-CEECAA  
                         00000010             993+CEECAA_RTLCICS       EQU   X'10'    RTL CICS   trace               @DJA 01-CEECAA  
                         00000008             994+CEECAA_RTLALLOC      EQU   X'08'    RTL Alloc  trace               @DJA 01-CEECAA  
                         00000004             995+CEECAA_RTLCOUNT      EQU   X'04'    RTL Function counting          @DJA 01-CEECAA  
                         00000002             996+CEECAA_RTLLOCKS      EQU   X'02'    RTL or user locking            @DJA 01-CEECAA  
                         00000001             997+CEECAA_RTLFUNC       EQU   X'01'    RTL function entry/exit        @DJA 01-CEECAA  
                                              998+*                                                                                  
 00000208                                     999+CEECAACTHD  DS    A                                                     01-CEECAA  
 0000020C                                    1000+CEECAACURRFECB DS A                                                     01-CEECAA  
1                                                                                                               Page   22            
   Active Usings: RETURN_STRUC,R3  ISGYQUAAHDR,R4  LTORG,R10  ISGQUERY,R11  CEECAA,R12  CEEDSA,R13                                   
0D-Loc    Object Code      Addr1    Addr2    Stmt  Source Statement                          HLASM R6.0  2012/03/05 10.22            
000000210                                    1001+CEECAAEDCV  DS    A                 C/370 vector table                  01-CEECAA  
 00000214                                    1002+CEECAACPCB  DS    A                                                     01-CEECAA  
 00000218                                    1003+CEECAACEDB  DS    A                 C/370 CEDB                          01-CEECAA  
 0000021C                                    1004+            DS    XL3                                                   01-CEECAA  
 0000021F                                    1005+CEECAASPCFLAG3 DS X                                                     01-CEECAA  
 00000220                                    1006+CEECAACIO   DS    A                 Address oc cio                      01-CEECAA  
 00000224                                    1007+CEECAAFDSETFD DS  F                 Used by FD_* macros                 01-CEECAA  
 00000228                                    1008+CEECAAFCBMUTEXOK DS XL2                                                 01-CEECAA  
 0000022A                                    1009+            DS    XL2                                                   01-CEECAA  
 0000022C                                    1010+CEECAATC16  DS    F                                                     01-CEECAA  
 00000230                                    1011+CEECAATC17  DS    F                                                     01-CEECAA  
 00000234                                    1012+CEECAAEDCOV DS    A                 C/370 Open Libvec                   01-CEECAA  
 00000238                                    1013+CEECAACTOFSV DS   F                                                     01-CEECAA  
 0000023C                                    1014+CEECAATRTSPACE DS A                 C/370 Open Libvec                   01-CEECAA  
 00000240                                    1015+            DS    XL24                                                  01-CEECAA  
 00000258                                    1016+CEECAA_TCASRV DS  0CL36             TCA Service Rtn Vector              01-CEECAA  
 00000258                                    1017+CEECAA_TCASRV_USERWORD  DS A                                            01-CEECAA  
 0000025C                                    1018+CEECAA_TCASRV_WORKAREA  DS A                                            01-CEECAA  
 00000260                                    1019+CEECAA_TCASRV_GETMAIN   DS A                                            01-CEECAA  
 00000264                                    1020+CEECAA_TCASRV_FREEMAIN  DS A                                            01-CEECAA  
 00000268                                    1021+CEECAA_TCASRV_LOAD      DS A                                            01-CEECAA  
 0000026C                                    1022+CEECAA_TCASRV_DELETE    DS A                                            01-CEECAA  
 00000270                                    1023+CEECAA_TCASRV_EXCEPTION DS A                                            01-CEECAA  
 00000274                                    1024+CEECAA_TCASRV_ATTENTION DS A                                            01-CEECAA  
 00000278                                    1025+CEECAA_TCASRV_MESSAGE   DS A                                            01-CEECAA  
 0000027C                                    1026+            DS    XL4               Reserved                            01-CEECAA  
 00000280                                    1027+CEECAALWS   DS    A                 Addr of PL/I Language Working Space 01-CEECAA  
 00000284                                    1028+CEECAASAVR  DS    A                 Register save            @CM0419A   01-CEECAA  
 00000288                                    1029+            DS    XL36              Reserved                       @P6C 01-CEECAA  
                                             1030+*                                                                                  
 000002AC                                    1031+CEECAASYSTM DS    X                 Underlying Operating System@MF0072A 01-CEECAA  
                         00000000            1032+CEECAASYUND EQU   X'00'               undefined                @MF0072A 01-CEECAA  
                         00000001            1033+CEECAASYUNS EQU   X'01'               unsupported              @MF0072A 01-CEECAA  
                         00000002            1034+CEECAASYVM  EQU   X'02'               VM                       @MF0072A 01-CEECAA  
                         00000003            1035+CEECAASYMVS EQU   X'03'               MVS                      @MF0072A 01-CEECAA  
 000002AD                                    1036+CEECAAHRDWR DS    X                 Underlying Hardware        @MF0072A 01-CEECAA  
                         00000000            1037+CEECAAHWUND EQU   X'00'               undefined                @MF0072A 01-CEECAA  
                         00000001            1038+CEECAAHWUNS EQU   X'01'               unsupported              @MF0072A 01-CEECAA  
                         00000002            1039+CEECAAHW370 EQU   X'02'               System / 370 non-XA      @MF0072A 01-CEECAA  
                         00000003            1040+CEECAAHWXA  EQU   X'03'               System / 370 XA          @MF0072A 01-CEECAA  
                         00000004            1041+CEECAAHWESA EQU   X'04'               System / 370 ESA         @MF0072A 01-CEECAA  
 000002AE                                    1042+CEECAASBSYS DS    X                 Underlying Subsystem       @MF0072A 01-CEECAA  
                         00000000            1043+CEECAASSUND EQU   X'00'               undefined                @MF0072A 01-CEECAA  
                         00000001            1044+CEECAASSUNS EQU   X'01'               unsupported              @MF0072A 01-CEECAA  
                         00000002            1045+CEECAASSNON EQU   X'02'               no subsystem             @MF0072A 01-CEECAA  
                         00000003            1046+CEECAASSTSO EQU   X'03'               TSO                      @MF0072A 01-CEECAA  
                         00000005            1047+CEECAASSCIC EQU   X'05'               CICS                     @MF0072A 01-CEECAA  
 000002AF                                    1048+CEECAAFLAG2 DS    X                                            @MF0072A 01-CEECAA  
                         00000080            1049+CEECAABIMODAL EQU X'80'             Bimodal addressing         @MF0072A 01-CEECAA  
                         00000040            1050+CEECAA_VECTOR EQU X'40'             vector hardware available  @MF0072A 01-CEECAA  
                         00000020            1051+CEECAATIP     EQU X'20'             Thread termination in progress      01-CEECAA  
                         00000010            1052+CEECAA_THREAD_INITIAL EQU X'10'     if on, indicates this is the IPT    01-CEECAA  
                         00000008            1053+CEECAA_TRACE_ACTIVE   EQU X'08'     If on, library trace is active      01-CEECAA  
                                             1054+*                                    (TRACE runtime option was set)                
                         00000004            1055+CEECAA_ALTSTK_ACTIVE  EQU X'04'     If on, alt stack active    @KCG0034 01-CEECAA  
1                                                                                                               Page   23            
   Active Usings: RETURN_STRUC,R3  ISGYQUAAHDR,R4  LTORG,R10  ISGQUERY,R11  CEECAA,R12  CEEDSA,R13                                   
0D-Loc    Object Code      Addr1    Addr2    Stmt  Source Statement                          HLASM R6.0  2012/03/05 10.22            
0                        00000002            1056+CEECAA_ENQ_WAIT_INTERRUPTABLE EQU X'02' PL/I doing Exclusive   KN80230  01-CEECAA  
                                             1057+*                                       file in Multitasking   KN80230             
                         00000001            1058+CEECAA_USRSTK_ACTIVE  EQU X'01'     If on, context switching user stack 01-CEECAA  
                                             1059+*                                       is active              PQ04250             
                                             1060+*                                                                                  
 000002B0                                    1061+CEECAALEVEL DS    X                 LE/370 level identifier             01-CEECAA  
                         00000018            1062+CEL_LEVEL_IDENTIFIER EQU X'18'                                     @DRC 01-CEECAA  
 000002B1                                    1063+CEECAA_PM   DS    X                 PROGRAM MASK               @NX0166C 01-CEECAA  
 000002B2                                    1064+CEECAA_INVAR DS   XL2               At same offset in 31 & 64 mode @G3C 01-CEECAA  
 000002B4                                    1065+CEECAAGETLS DS    A                 ADDR OF LE/370 LIBRARY STACK MGR    01-CEECAA  
 000002B8                                    1066+CEECAACELV  DS    A                 Addr of LE/370 LIBVEC               01-CEECAA  
 000002BC                                    1067+CEECAAGETS  DS    A                 Addr of LE/370 get stack stg rtn    01-CEECAA  
 000002C0                                    1068+CEECAALBOS  DS    A                 Start of library stack stg seg      01-CEECAA  
 000002C4                                    1069+CEECAALEOS  DS    A                 End of library stack stg seg        01-CEECAA  
 000002C8                                    1070+CEECAALNAB  DS    A                 Next available byte of lib stg      01-CEECAA  
 000002CC                                    1071+CEECAADMC   DS    A                 Addr of ESPIE Devil-May-Care rtn    01-CEECAA  
 000002D0                                    1072+CEECAAABCODE DS   0F                Most recent ABEND completion CDE    01-CEECAA  
 000002D0                                    1073+CEECAACD    DS    XL4               Most recent CAASHAB abend code      01-CEECAA  
 000002D4                                    1074+CEECAARSNCODE DS  0F                Most recent ABEDN reason Code       01-CEECAA  
 000002D4                                    1075+CEECAARS    DS    XL4               Most recent CAASHAB reason code     01-CEECAA  
 000002D8                                    1076+CEECAAERR   DS    A                 Addr of the current CIB             01-CEECAA  
 000002DC                                    1077+CEECAAGETSX DS    A                 Addr of LE/370 stack stg extender   01-CEECAA  
 000002E0                                    1078+CEECAADDSA  DS    A                 Addr of the dummy DSA               01-CEECAA  
 000002E4                                    1079+CEECAASECTSIZ DS  F                 Vector Section Size                 01-CEECAA  
 000002E8                                    1080+CEECAAPARTSUM DS  F                 Vector Partial Sum Number           01-CEECAA  
 000002EC                                    1081+CEECAASSEXPNT DS  F                 Log of Vector Section Size          01-CEECAA  
 000002F0                                    1082+CEECAAEDB   DS    A                 address of the EDB                  01-CEECAA  
 000002F4                                    1083+CEECAAPCB   DS    A                 address of the PCB                  01-CEECAA  
                                             1084+* ---------------------------------------------------------------------            
                                             1085+* - THE FOLLOWING TWO FIELDS ARE USED FOR VALIDATION OF THE CAA.      -            
                                             1086+* ---------------------------------------------------------------------            
 000002F8                                    1087+CEECAAEYEPTR DS   A                 addr of CAA eyecatcher              01-CEECAA  
 000002FC                                    1088+CEECAAPTR   DS    A                 addr of this CAA                    01-CEECAA  
 00000300                                    1089+CEECAAGETS1 DS    A                 DSA alloc - R13 not DSA addr        01-CEECAA  
 00000304                                    1090+CEECAASHAB  DS    A                 ABEND shunt routine address         01-CEECAA  
 00000308                                    1091+CEECAAPRGCK DS    A                 pgm interrupt code for CAADMC       01-CEECAA  
 0000030C                                    1092+CEECAAFLAG1 DS    X                 CAA Flag 1                          01-CEECAA  
                         00000080            1093+CEECAASORT  EQU   B'10000000'       Call to DFSORT is active            01-CEECAA  
                         00000040            1094+CEECAA_USE_OLD_STK  EQU  B'01000000'  use old stack               @P5A  01-CEECAA  
                         00000020            1095+CEECAA_CICS_EXT_REG EQU  B'00100000'  CICS extended regs active   @DQA  01-CEECAA  
 0000030D                                    1096+            DS    CL3               reserved                            01-CEECAA  
 00000310                                    1097+CEECAAURC   DS    F                 Thread level return code.           01-CEECAA  
 00000314                                    1098+CEECAARSRV1 DS    4A                                                    01-CEECAA  
                                             1099+* ---------------------------------------------------------------------            
                                             1100+* - THE FOLLOWING FIELD CONTAINS THE PRE-INIT COMPATABILITY           -            
                                             1101+* - CONTROL BLOCK ADDRESS.                                            -            
                                             1102+* ---------------------------------------------------------------------            
 00000324                                    1103+CEECAAPICICB DS   A                 Addr of pre-init compatability cb   01-CEECAA  
 00000328                                    1104+CEECAARSRV2  DS   A                                                     01-CEECAA  
                                             1105+* ---------------------------------------------------------------------            
 0000032C                                    1106+CEECAAGOSMR  DS   H                 Go Some More. used TRAV multiple    01-CEECAA  
 0000032E                                    1107+             DS   H                 skip.                               01-CEECAA  
                                             1108+* ---------------------------------------------------------------------            
 00000330                                    1109+CEECAALEOV   DS   A                 Addr of LE/OpenMVS LIBVEC           01-CEECAA  
 00000334                                    1110+CEECAA_SIGSCTR        DS  F         SIGSAFE Counter            @C54544  01-CEECAA  
1                                                                                                               Page   24            
   Active Usings: RETURN_STRUC,R3  ISGYQUAAHDR,R4  LTORG,R10  ISGQUERY,R11  CEECAA,R12  CEEDSA,R13                                   
0D-Loc    Object Code      Addr1    Addr2    Stmt  Source Statement                          HLASM R6.0  2012/03/05 10.22            
0                                            1111+*                                                                                  
 00000338                                    1112+CEECAA_SIGSFLG        DS  XL4       SIGSAFE Flags              @C54544  01-CEECAA  
                                             1113+*                                                                                  
                                             1114+*                     First byte                                   @P4A            
                                             1115+*                                                                                  
                         00000080            1116+CEECAA_SIGPUTBACK     EQU X'80'     Signal Putback                      01-CEECAA  
                         00000040            1117+CEECAA_SA_RESTART     EQU X'40'     SA_Restart processing needed        01-CEECAA  
                                             1118+*                     EQU X'20'     <unused>                                       
                         00000010            1119+CEECAA_SIGSAFE        EQU X'10'     Indicates that synchronous          01-CEECAA  
                                             1120+*                                    signals are safe to be delivered              
                                             1121+*                                    regardless of where the interrupt             
                                             1122+*                                    occurred                                      
                         00000008            1123+CEECAA_CANCELSAFE     EQU X'08'     Indicates that synchronous @CM0565A 01-CEECAA  
                                             1124+*                                    cancels are safe to be    @CM0565A            
                                             1125+*                                    delivered regardless of   @CM0565A            
                                             1126+*                                    where the interrupt       @CM0565A            
                                             1127+*                                    occurred                  @CM0565A            
                         00000004            1128+CEECAA_SIGRESYNCH     EQU X'04'     One or more synchronous signals     01-CEECAA  
                                             1129+*                                    may have been recently put back               
                                             1130+*                                    last time a signal was resolicited            
                                             1131+*                                    when returning to non-XPLINK                  
                                             1132+*                                    user code                                     
                         00000002            1133+CEECAA_FRZ_UNSAFE     EQU X'02'     This thread is in an unsafe state   01-CEECAA  
                                             1134+*                                   to be frozen (set by members)                  
                         00000001            1135+CEECAA_NOAPPREGS      EQU X'01'     User Application registers may      01-CEECAA  
                                             1136+*                                   be saved in a nonstandard place                
                                             1137+*                                                                  @DFA            
                                             1138+*                     Second byte                                  @P4A            
                                             1139+*                                                                                  
                         00000080            1140+CEECAA_EINTR_RSOL     EQU   X'80'   Secondary signal resolicit          01-CEECAA  
                                             1141+*                                   in progress after EINTR                        
                                             1142+*                                   from inner function            @P4A            
                         00000040            1143+CEECAA_EINTR_PUTB     EQU   X'40'   Secondary resolicited signal        01-CEECAA  
                                             1144+*                                   has been put back              @P4A            
                         00000020            1145+CEECAA_EINTR_REST     EQU   X'20'   User catcher returned after         01-CEECAA  
                                             1146+*                                   catching secondary                             
                                             1147+*                                   resolicited signal with                        
                                             1148+*                                   SA_RESTART in effect           @P4A            
                         00000010            1149+CEECAA_EINTR_SIGG     EQU   X'10'   "Stray" signal interrupted          01-CEECAA  
                                             1150+*                                   CEEOSIGG while secondary                       
                                             1151+*                                   signal resolicitation                          
                                             1152+*                                   was in progress                @P4A            
                                             1153+*                     EQU   X'08'   Reserved                       @P4A            
                                             1154+*                     EQU   X'04'   Reserved                       @P4A            
                                             1155+*                     EQU   X'02'   Reserved                       @P4A            
                                             1156+*                     EQU   X'01'   Reserved                       @P4A            
                                             1157+*                                                                                  
                                             1158+*                     (16 unused bits)                             @P4C            
                                             1159+*                                                                                  
 0000033C                                    1160+CEECAATHDID           DS  CL8       Posix thread id                     01-CEECAA  
 00000344                                    1161+CEECAA_DCRENT         DS  A         CRENT anchor for DCE                01-CEECAA  
 00000348                                    1162+CEECAA_DANCHOR        DS  A         DCE anchor per thread               01-CEECAA  
 0000034C                                    1163+CEECAA_CTOC           DS  A         TOC anchor for CRENT                01-CEECAA  
 00000350                                    1164+CEECAARCB             DS  A         A(RCB)                              01-CEECAA  
 00000354                                    1165+CEECAACICSRSN         DS  A         CICS reason code from member        01-CEECAA  
1                                                                                                               Page   25            
   Active Usings: RETURN_STRUC,R3  ISGYQUAAHDR,R4  LTORG,R10  ISGQUERY,R11  CEECAA,R12  CEEDSA,R13                                   
0D-Loc    Object Code      Addr1    Addr2    Stmt  Source Statement                          HLASM R6.0  2012/03/05 10.22            
0                                            1166+*                                   language                                       
 00000358                                    1167+CEECAAMEMBR           DS  A         Addr of thread-level member list    01-CEECAA  
 0000035C                                    1168+CEECAA_SIGNAL_STATUS  DS  A         Signal stat for terminating thd     01-CEECAA  
 00000360                                    1169+CEECAA_HCOM_REG7      DS 0A         Saved Reg7  from HCOM               01-CEECAA  
 00000360                                    1170+CEECAA_HCOM_REG14     DS  A         Saved Reg14 from HCOM   @CH0092A    01-CEECAA  
 00000364                                    1171+CEECAA_STACKFLOOR     DS  A         Lowest usable addr in HP stack      01-CEECAA  
 00000368                                    1172+CEECAAHPGETS          DS  A         HP stack extension rtn              01-CEECAA  
 0000036C                                    1173+CEECAAEDCHPXV         DS  A         C/C++ XPLINK libvec                 01-CEECAA  
 00000370                                    1174+CEECAAFOR1            DS  A         Reserved for FORTRAN                01-CEECAA  
 00000374                                    1175+CEECAAFOR2            DS  A         Reserved for FORTRAN                01-CEECAA  
 00000378                                    1176+CEECAATHREADHEAPID    DS  A         Thread heapid         @NX0093A      01-CEECAA  
 0000037C                                    1177+CEECAA_SYS_RTNCODE    DS  F         Sys (kernel) return code @CM1752    01-CEECAA  
 00000380                                    1178+CEECAA_SYS_RSNCODE    DS  F         Sys (kernel) reason code @CM1752    01-CEECAA  
 00000384                                    1179+CEECAAGETFN           DS  A         Address of WSA swap routine         01-CEECAA  
 00000388                                    1180+CEECAA_LER4           DS  CL8       Reserved for expansion LE 1.4       01-CEECAA  
                                             1181+********************************************************************               
                                             1182+*    LE V1R5M0 EXTERNAL CONTROL BLOCK SECTION                      *               
                                             1183+*      - any external control block fields should be added         *               
                                             1184+*        in this section.  Extra reserved space was added          *               
                                             1185+*        with the intention of at end of project the excess        *               
                                             1186+*        reserved space will be removed and all external fields    *               
                                             1187+*        will be shifted.                                          *               
                                             1188+********************************************************************               
 00000390                                    1189+CEECAASIGNGPTR        DS  A         Pointer to 'signam' external        01-CEECAA  
                                             1190+*                                   variable in a C application                    
 00000394                                    1191+CEECAASIGNG           DS  F         value of sign of lgamma()           01-CEECAA  
                                             1192+*                                    -1 - negative sign                            
                                             1193+*                                     0 - zero                                     
                                             1194+*                                    +1 - positive sign                            
 00000398                                    1195+CEECAA_FORDBG         DS  A         Ptr to AFHDBHIM -        @N80095A   01-CEECAA  
                                             1196+*                                   FORTRAN hook interface   @N80095A              
 0000039C                                    1197+CEECAAAB_STATUS       DS  X         validity flags           KN80120    01-CEECAA  
                         00000080            1198+CEECAAAB_GR0_VALID    EQU X'80'     CEECAAAB_GR0 is valid    KN80120    01-CEECAA  
                         00000040            1199+CEECAAAB_ICD1_VALID   EQU X'40'     CEECAAAB_ICD1 is valid   KN80120    01-CEECAA  
                         00000020            1200+CEECAAAB_ABCC_VALID   EQU X'20'     CEECAAAB_ABCC is valid   KN80120    01-CEECAA  
                         00000010            1201+CEECAAAB_CRC_VALID    EQU X'10'     CEECAAAB_CRC is valid    KN80120    01-CEECAA  
                         00000008            1202+CEECAAAB_GR15_VALID   EQU X'08'     CEECAAAB_GR15 is valid   KN80120    01-CEECAA  
 0000039D                                    1203+CEECAA_STACKDIRECTION DS  X         Stack Direction                     01-CEECAA  
                         00000000            1204+CEECAASTACK_UP        EQU X'00'     Up                                  01-CEECAA  
                         00000001            1205+CEECAASTACK_DOWN      EQU X'01'     Down (XPLINK)                       01-CEECAA  
 0000039E                                    1206+                      DS  XL2       RESERVED                 KN80120    01-CEECAA  
 000003A0                                    1207+CEECAAAB_GR0          DS  A         Reg 0                    KN80120    01-CEECAA  
 000003A4                                    1208+CEECAAAB_ICD1         DS  A         SDWAICD1                 KN80120    01-CEECAA  
 000003A8                                    1209+CEECAAAB_ABCC         DS  A         SDWAABCC                 KN80120    01-CEECAA  
 000003AC                                    1210+CEECAAAB_CRC          DS  A         SDWACRC                  KN80120    01-CEECAA  
                         000002D4            1211+CEECAAAB_GR15         EQU CEECAARS  reg 15                   KN80120    01-CEECAA  
 000003B0                                    1212+CEECAAAGTS            DS  A         C compiler stk inc       KN00102    01-CEECAA  
 000003B4                                    1213+CEECAA_LER5N1         DS  CL4       reserved for expansion   KCG0088    01-CEECAA  
 000003B8                                    1214+CEECAAHERP            DS  A         A(CEEHERP)               KCG0061    01-CEECAA  
 000003BC                                    1215+CEECAAUSTKBOS         DS  A         Start of user stack seg  PQ04250    01-CEECAA  
 000003C0                                    1216+CEECAAUSTKEOS         DS  A         End of user stack seg    PQ04250    01-CEECAA  
 000003C4                                    1217+CEECAAUSERRTN@        DS  A         A(UserRtn) for pthread     @01A     01-CEECAA  
 000003C8                                    1218+CEECAAUDHOOK          DS  XL8       hook swapping xplink       @DBA     01-CEECAA  
                                             1219+*                     DS  BL8       reserved                   @DBA                
                                             1220+*CEECAAUDHOOKSW        DS  BL4       hook switch                @DBA               
1                                                                                                               Page   26            
   Active Usings: RETURN_STRUC,R3  ISGYQUAAHDR,R4  LTORG,R10  ISGQUERY,R11  CEECAA,R12  CEEDSA,R13                                   
0D-Loc    Object Code      Addr1    Addr2    Stmt  Source Statement                          HLASM R6.0  2012/03/05 10.22            
0                                            1221+*                      DS  BL4       reserved                   @DBA               
                                             1222+*                      DS  XL6       reserved                   @DBA               
 000003D0                                    1223+CEECAACEL_HPXV_B      DS  A         Address of XPLink compat   @DCC     01-CEECAA  
                                             1224+*                                    vector for Base library   @DCA                
 000003D4                                    1225+CEECAACEL_HPXV_M      DS  A         Address of XPLink compat   @DCA     01-CEECAA  
                                             1226+*                                    vector for Math library   @DCA                
 000003D8                                    1227+CEECAACEL_HPXV_L      DS  A         Address of XPLink          @DCC     01-CEECAA  
                                             1228+*                                    compat vector for         @DCA                
                                             1229+*                                    Locale library            @DCA                
 000003DC                                    1230+CEECAACEL_HPXV_O      DS  A         Address of XPLink          @DDA     01-CEECAA  
                                             1231+*                                    compat vector for         @DDA                
                                             1232+*                                    Open library              @DDA                
 000003E0                                    1233+CEECAACEL4VEC3        DS  A         Address of Vec3 LibVec     @DHA     01-CEECAA  
 000003E4                                    1234+CEECAA_CEEDLLF          DS A        Addr of newest CEEDLLF.  Not   @P6M 01-CEECAA  
                                             1235+*                                   same offset as in 64bit.       @P6M            
 000003E8                                    1236+CEECAA_SAVSTACK       DS  A         Saved Stack pointer used for   @DPA 01-CEECAA  
                                             1237+*                                     OS_NOSTACK linkage           @DPA            
 000003EC                                    1238+                      DS  XL4       Reserved                       @DSC 01-CEECAA  
 000003F0                                    1239+                      DS  F         Reserved                       @DTC 01-CEECAA  
 000003F4                                    1240+CEECAA_SAVSTACK_ASYNC DS  A         Zero or address of 4-byte field@DPA 01-CEECAA  
                                             1241+*                                   where the stack pointer can be @DPA            
                                             1242+*                                   saved. When the stack pointer  @DPA            
                                             1243+*                                   is saved here, asynchronous    @DPA            
                                             1244+*                                   signals will be accepted.      @DPA            
                         00000094            1245+CEECELVGTUN EQU  148                Offset to Get user nab service.     01-CEECAA  
                                             1246          ISGYQUAA                                                                  
1         ISGYQUAA  - ISGQUERY Answer Area                                                                      Page   27            
   Active Usings: RETURN_STRUC,R3  ISGYQUAAHDR,R4  LTORG,R10  ISGQUERY,R11  CEECAA,R12  CEEDSA,R13                                   
0D-Loc    Object Code      Addr1    Addr2    Stmt  Source Statement                          HLASM R6.0  2012/03/05 10.22            
0                                            1248+**/ ISGYQUAA_1:;                                                                   
                                             1249+*/* START OF SPECIFICATIONS *******************************************            
                                             1250+*                                                                                  
                                             1251+*01* PROPRIETARY STATEMENT =                                                       
                                             1252+*                                                                                  
                                             1253+*    Licensed Materials - Property of IBM                                          
                                             1254+*    5694-A01 COPYRIGHT IBM CORP.  2004, 2009                                      
                                             1255+*                                                                                  
                                             1256+*01* STATUS = HBB7760                                                              
                                             1257+*                                                                                  
                                             1258+*01* END OF PROPRIETARY STATEMENT                                                  
                                             1259+*                                                                                  
                                             1260+*01* EXTERNAL CLASSIFICATION: PI                                                   
                                             1261+*01* END OF EXTERNAL CLASSIFICATION:                                               
                                             1262+*                                                                                  
                                             1263+*01* DESCRIPTIVE NAME:  ISGQUERY Answer Area                                       
                                             1264+*02*  ACRONYM:  ISGYQUAA                                                           
                                             1265+*                                                                                  
                                             1266+*01* MACRO NAME:  ISGYQUAA                                                         
                                             1267+*                                                                                  
                                             1268+*01* DSECT NAME:                                                                   
                                             1269+*     ISGYQUAAHdr                                                                  
                                             1270+*     ISGYQUAARs                                                                   
                                             1271+*     ISGYQUAARsx                                                @L3A              
                                             1272+*     ISGYQUAARq                                                                   
                                             1273+*     ISGYQUAARqx                                                                  
                                             1274+*     ISGYQUAASys                                                @L2A              
                                             1275+*     ISGYQUAASp                                                 @L2A              
                                             1276+*                                                                                  
                                             1277+*01* COMPONENT:  Global Resource Serialization (SCSDS)                             
                                             1278+*                                                                                  
                                             1279+*01* EYE-CATCHER:  ISGYQUAA                                                        
                                             1280+*02*  OFFSET:  X'0000' bytes                                                       
                                             1281+*02*  LENGTH:  X'0008' bytes                                                       
                                             1282+*                                                                                  
                                             1283+*01* STORAGE ATTRIBUTES:                                                           
                                             1284+*02*  SUBPOOL:  User-supplied                                                      
                                             1285+*02*  KEY:  User-supplied                                                          
                                             1286+*02*  RESIDENCY:  User-supplied                                                    
                                             1287+*                                                                                  
                                             1288+*01* SIZE:  Variable                                                               
                                             1289+*            ISGYQUAAHDRBASE  -- X'0028' bytes                                     
                                             1290+*            ISGYQUAARSBASE   -- X'0050' bytes                                     
                                             1291+*            ISGYQUAARSXBASE  -- X'0030' bytes                                     
                                             1292+*            ISGYQUAARQBASE   -- X'0040' bytes                                     
                                             1293+*            ISGYQUAARQXBASE  -- X'0068' bytes                                     
                                             1294+*            ISGYQUAASYSBASE  -- X'0028' bytes                                     
                                             1295+*            ISGYQUAASPBASE   -- X'0010' bytes                                     
                                             1296+*            ISGYQUAARSXFULL2 -- X'0030' bytes                                     
                                             1297+*            ISGYQUAARQXFULL2 -- X'0088' bytes                                     
                                             1298+*            ISGYQUAARQXFULL  -- X'0068' bytes                                     
                                             1299+*            ISGYQUAAHDR -- X'0028' bytes                                          
                                             1300+*            ISGYQUAARS  -- X'0050' bytes                                          
                                             1301+*            ISGYQUAARSX -- X'0030' bytes                                          
                                             1302+*            ISGYQUAARQ  -- X'0040' bytes                                          
1         ISGYQUAA  - ISGQUERY Answer Area                                                                      Page   28            
   Active Usings: RETURN_STRUC,R3  ISGYQUAAHDR,R4  LTORG,R10  ISGQUERY,R11  CEECAA,R12  CEEDSA,R13                                   
0D-Loc    Object Code      Addr1    Addr2    Stmt  Source Statement                          HLASM R6.0  2012/03/05 10.22            
0                                            1303+*            ISGYQUAARQX -- X'0088' bytes                                          
                                             1304+*            ISGYQUAASYS -- X'0028' bytes                                          
                                             1305+*            ISGYQUAASP  -- X'0010' bytes                                          
                                             1306+*                                                                                  
                                             1307+*01* CREATED BY:                                                                   
                                             1308+*     Created by user and passed as parameter on ANSAREA keyword                   
                                             1309+*     for ISGQUERY macro.                                                          
                                             1310+*                                                                                  
                                             1311+*01* POINTED TO BY:                                                                
                                             1312+*     ANSAREA_ADDR3164 field in ISGQUERY parameter list                            
                                             1313+*                                                                                  
                                             1314+*01* SERIALIZATION:                                                                
                                             1315+*     None required                                                                
                                             1316+*                                                                                  
                                             1317+*01* FUNCTION:                                                                     
                                             1318+*02* Maps the data returned by the ISGQUERY macro.                                 
                                             1319+*    This data represents an unserialized view of system resources.                
                                             1320+*    The ISGQUERY returns the ISGYQUAAHdr plus the records for                     
                                             1321+*    each resource and requesters that match the query request.                    
                                             1322+*                                                                                  
                                             1323+*    The answer area written for REQINFO=QSCAN queries is in the                   
                                             1324+*    following format. ISGYQUAARqx records are only included if                    
                                             1325+*    ANSDETAIL=FULL|FULL2|FULL3. ISGYQUAARsx records are only included             
                                             1326+*    if ANSDETAIL=FULL2|FULL3.                                   @L4C              
                                             1327+*                                                                                  
                                             1328+*    Note: Use addresses to locate each record-- the offset to the                 
                                             1329+*    next record is not guaranteed because the length and order of                 
                                             1330+*    the records may change.                                                       
                                             1331+*                                                                                  
                                             1332+*     _____________                                                                
                                             1333+*    |             |                                                               
                                             1334+*    | ISGYQUAAHdr |                                                               
                                             1335+*    |_____________|                                                               
                                             1336+*          :                                                                       
                                             1337+*          :                                                                       
                                             1338+*         _V__________                                                             
                                             1339+*        |            |    ____________     ____________                           
                                             1340+*        | ISGYQUAARs |-->|            |-->|            |--> ...                   
                                             1341+*        |____________|   | ISGYQUAARq |   | ISGYQUAARq |                          
                                             1342+*         :  :  :         |____________|   |____________|                          
                                             1343+*         :  :  V                  :                :                              
                                             1344+*         :  : RNAME        _______V_____    _______V_____                         
                                             1345+*         : _V___________  |             |  |             |                        
                                             1346+*         :|             | | ISGYQUAARqx |  | ISGYQUAARqx |                        
                                             1347+*         :| ISGYQUAARsx | |_____________|  |_____________|                        
                                             1348+*         :|_____________|     :                    :                              
                                             1349+*         :                    V                    V                              
                                             1350+*         :                  ORIG.                User                             
                                             1351+*         :                  RNAME                 Data                            
                                             1352+*         V___________                                                             
                                             1353+*        |            |    ____________     ____________                           
                                             1354+*        | ISGYQUAARs |-->|            |-->|            |--> ...                   
                                             1355+*        |____________|   | ISGYQUAARq |   | ISGYQUAARq |                          
                                             1356+*         :  :  :         |____________|   |____________|                          
                                             1357+*         :  :  V                  :                :                              
1         ISGYQUAA  - ISGQUERY Answer Area                                                                      Page   29            
   Active Usings: RETURN_STRUC,R3  ISGYQUAAHDR,R4  LTORG,R10  ISGQUERY,R11  CEECAA,R12  CEEDSA,R13                                   
0D-Loc    Object Code      Addr1    Addr2    Stmt  Source Statement                          HLASM R6.0  2012/03/05 10.22            
0                                            1358+*         :  : RNAME        _______V_____    _______V_____                         
                                             1359+*         : _V___________  |             |  |             |                        
                                             1360+*         :|             | | ISGYQUAARqx |  | ISGYQUAARqx |                        
                                             1361+*         :| ISGYQUAARsx | |_____________|  |_____________|                        
                                             1362+*         :|_____________|                      :      :                           
                                             1363+*         :                                     V      V                           
                                             1364+*         :                                   ORIG.  User                          
                                             1365+*         V                                   RNAME   Data                         
                                             1366+*         ...                                                    @L4C              
                                             1367+*                                                                                  
                                             1368+*    The answer area written for REQINFO=ENQSTATS queries is in  @L2A              
                                             1369+*    the following format.  Note: Use addresses to locate each   @L2A              
                                             1370+*    record-- the offset to the next record is not guaranteed    @L2A              
                                             1371+*    because the length and order of the records may change.     @L2A              
                                             1372+*    length and order of the records may change.                 @L2A              
                                             1373+*                                                                                  
                                             1374+*     _____________                                                                
                                             1375+*    |             |                                                               
                                             1376+*    | ISGYQUAAHdr |                                                               
                                             1377+*    |_____________|                                                               
                                             1378+*          :                                                                       
                                             1379+*          :                                                                       
                                             1380+*         _V___________     _____________                                          
                                             1381+*        |             |   |             |                                         
                                             1382+*        | ISGYQUAASys |-->| ISGYQUAASys |                                         
                                             1383+*        |_____________|   |_____________|                                         
                                             1384+*               :                 :                                                
                                             1385+*            ___V________      ___V________                                        
                                             1386+*           |            |    |            |                                       
                                             1387+*           | ISGYQUAASp |    | ISGYQUAASp |                                       
                                             1388+*           |____________|    |____________|                     @L2A              
                                             1389+*                                                                                  
                                             1390+*                                                                                  
                                             1391+*01* METHOD OF ACCESS:                                                             
                                             1392+*02*  ASM:                                                                         
                                             1393+*      ISGYQUAA                                                                    
                                             1394+*        DSECT=YES|NO            -- Request DSECT definition                       
                                             1395+*        LIST=YES|NONE           -- Include macro prolog                           
                                             1396+*        TITLE=YES|NO            -- Include macro title                            
                                             1397+*        ISGYQUAAHDR=YES|NO|COND -- Request Header record mapping                  
                                             1398+*        ISGYQUAARS=YES|NO|COND  -- Request Resource record mapping                
                                             1399+*        ISGYQUAARSX=YES|NO|COND -- Request Resource record                        
                                             1400+*                                   extension mapping             @L3A             
                                             1401+*        ISGYQUAARQ=YES|NO|COND  -- Request Requester record mapping               
                                             1402+*        ISGYQUAARQX=YES|NO|COND -- Request Requester record                       
                                             1403+*                                   extension mapping                              
                                             1404+*        ISGYQUAASYS=YES|NO|COND -- Request System record mapping @L2A             
                                             1405+*        ISGYQUAASP=YES|NO|COND  -- Request Space record mapping  @L2A             
                                             1406+*                                                                                  
                                             1407+*     COND indicates to include only if DSECT=YES                                  
                                             1408+*                                                                                  
                                             1409+*     Default: DSECT=YES,LIST=YES,TITLE=YES,ISGYQUAAHDR=YES,                       
                                             1410+*              ISGYQUAARS=COND,ISGYQUAARSX=COND,ISGYQUAARQ=COND                    
                                             1411+*              ISGYQUAARQX=COND                                   @L3C             
                                             1412+*                                                                                  
1         ISGYQUAA  - ISGQUERY Answer Area                                                                      Page   30            
   Active Usings: RETURN_STRUC,R3  ISGYQUAAHDR,R4  LTORG,R10  ISGQUERY,R11  CEECAA,R12  CEEDSA,R13                                   
0D-Loc    Object Code      Addr1    Addr2    Stmt  Source Statement                          HLASM R6.0  2012/03/05 10.22            
0                                            1413+*02*  PL/X:                                                                        
                                             1414+*      %INCLUDE SYSLIB(ISGYQUAA)                                                   
                                             1415+*                                                                                  
                                             1416+*01* DELETED BY:  User                                                             
                                             1417+*                                                                                  
                                             1418+*01* FREQUENCY:  Created for response to ISGQUERY REQINFO=QSCAN                    
                                             1419+*                or REQINFO=ENQSTATS                             @L2A              
                                             1420+*                                                                                  
                                             1421+*01* DEPENDENCIES:  None                                                           
                                             1422+*                                                                                  
                                             1423+*01* DISTRIBUTION LIBRARY:  AMACLIB                                                
                                             1424+*                                                                                  
                                             1425+*01* CHANGE ACTIVITY:                                                              
                                             1426+*                                                                                  
                                             1427+*    $L0=64GRS   ,HBB7709,030417,PDFX: ISGQUERY interface                          
                                             1428+*    $P1=PJK0935 ,HBB7709,030918,PDCJ: Fix up comments for reserve                 
                                             1429+*                                      bits                                        
                                             1430+*    $L1=64GRS   ,HBB7709,030417,PDFY: ISGQUERY compatability                      
                                             1431+*    $P2=PJK1044 ,HBB7709,031007,PDCJ: Change comment for                          
                                             1432+*                                      ISGYQUAARQSYNCHRES                          
                                             1433+*    $P3=PJK0745 ,HBB7709,031106,PDFX: General doc changes                         
                                             1434+*    $P4=PJK1006 ,HBB7709,031118,PDFY: Remove TaskAbending                         
                                             1435+*    $P5=PJK1491 ,HBB7709,040218,PDFY: Update Comments about reserve               
                                             1436+*    $P6=ME00672 ,HBB7720,040615,PDFY: Add RQX_AltSerExtended                      
                                             1437+*    $L2=ENQAPI  ,HBB7730,050127,PDBC: REQINFO=ENQSTATS support                    
                                             1438+*       =ME03930 ,HBB7730,050808,PDCJ: Fix copyright                               
                                             1439+*    $P7=ME04352 ,HBB7730,050923,PDFY: Fix ISGYQUAARsFirstRq31                     
                                             1440+*    $L3=GRSTOR2 ,HBB7740,060224,PDBC: ANSDETAIL=FULL2 support                     
                                             1441+*       =ME07802 ,HBB7740,060807,PDBC: Updated pragma statements                   
                                             1442+*    $P8=ME07792 ,HBB7740,060915,PDBC: misc comments & constants                   
                                             1443+*    $L4=GRSUDATA,HBB7750,070104,PDFY: ANSDETAIL=FULL3 support                     
                                             1444+*    $P9=ME10828 ,HBB7750,070801,PDFY: Stronger indication of the                  
                                             1445+*                                      availability of Userdata.                   
                                             1446+*    $L5=GRSISVCP,HBB7760,071025,PDFX: Support RscTokens for globals               
                                             1447+*                                                                                  
                                             1448+* END OF SPECIFICATIONS *********************************************/             
                                             1449+*% /*                                                                              
                                             1450+*                                                                                  
                                             1451+*    The following PRAGMA statements provide control info to the CBGEN             
                                             1452+* tool. They must be in the logic/endlogic pair.  Various fields are               
                                             1453+* DELETEd from ASM because we do not want duplicate ASM declares for               
                                             1454+* them.                                                                            
                                             1455+*                                                                                  
                         00000001            1456+ISGYQUAA_KSTEP EQU 1                                                    01-ISGYQUAA
                         00000002            1457+ISGYQUAA_KSYSTEM EQU 2                                                  01-ISGYQUAA
                         00000003            1458+ISGYQUAA_KSYSTEMS EQU 3                                                 01-ISGYQUAA
                         00000003            1459+ISGYQUAA_KSYSPLEX EQU 3                                                 01-ISGYQUAA
                         000001B8            1460+ISGYQUAA_KQSCANMINSUMMARYANSLEN EQU 440 The minimum answer area size   X01-ISGYQUAA
                                                 +                         required when REQUEST=QSCAN,                  X           
                                                 +                         ANSDETAIL=SUMMARY                                         
                         00000320            1461+ISGYQUAA_KQSCANMINFULLANSLEN EQU 800 The minimum answer area size      X01-ISGYQUAA
                                                 +                         required when REQUEST=QSCAN, ANSDETAIL=FULL               
                         00000370            1462+ISGYQUAA_KQSCANMINFULL2ANSLEN EQU 880 The minimum answer area size     X01-ISGYQUAA
                                                 +                         required when REQUEST=QSCAN, ANSDETAIL=FULL2              
1         ISGYQUAA  - ISGQUERY Answer Area                                                                      Page   31            
   Active Usings: RETURN_STRUC,R3  ISGYQUAAHDR,R4  LTORG,R10  ISGQUERY,R11  CEECAA,R12  CEEDSA,R13                                   
0D-Loc    Object Code      Addr1    Addr2    Stmt  Source Statement                          HLASM R6.0  2012/03/05 10.22            
0                        00000390            1463+ISGYQUAA_KQSCANMINFULL3ANSLEN EQU 912 2 Rnames The minimum answer area X01-ISGYQUAA
                                                 +                         size required when REQUEST=QSCAN,             X           
                                                 +                         ANSDETAIL=FULL3                                           
                                             1464+*                                                                                  
                                             1465+*    ****************************************************************              
                                             1466+*   *                                                                              
                                             1467+*   * ISGYQUAA Header Section                                                      
                                             1468+*   *                                                                              
                                             1469+*   ****************************************************************               
                                             1470+*                                                                                  
                                             1471+*                                                                                  
 00000000                00000000 00000028   1472+ISGYQUAAHDR DSECT        Resource Data Record                           01-ISGYQUAA
 00000000                                    1473+ISGYQUAAHDRMAX DS 0CL40  The max length map                             01-ISGYQUAA
 00000000                                    1474+ISGYQUAAHDRID DS CL8                                                    01-ISGYQUAA
 00000008                                    1475+ISGYQUAAHDRVERSION DS H                                                 01-ISGYQUAA
 0000000A                                    1476+ISGYQUAAHDRREQINFO DS H                                                 01-ISGYQUAA
 0000000C                                    1477+ISGYQUAAHDRNUMRECORDS DS F                                              01-ISGYQUAA
 00000010                                    1478+ISGYQUAAHDRFIRSTRECORD DS 0AD                                           01-ISGYQUAA
 00000010                                    1479+         DS    CL4                                                      01-ISGYQUAA
 00000014                                    1480+ISGYQUAAHDRFIRSTRECORD31 DS A                                           01-ISGYQUAA
 00000018                                    1481+ISGYQUAAHDRTOTALLEN DS 0FL8                                             01-ISGYQUAA
 00000018                                    1482+         DS    CL4                                                      01-ISGYQUAA
 0000001C                                    1483+ISGYQUAAHDRTOTALLEN31 DS F                                              01-ISGYQUAA
 00000020                                    1484+         DS    CL8                                                      01-ISGYQUAA
                                             1485+*                                                                                  
                                             1486+*     ISGYQUAAHDR Constants                                                        
                                             1487+*                                                                                  
                                             1488+*                                                                                  
                         C9E2C7E8            1489+ISGYQUAAHDR_KID_0TO3 EQU C'ISGY' This is the first 4-byte segment of   X01-ISGYQUAA
                                                 +                         an 8-byte constant.                                       
                         D8E4C1C1            1490+ISGYQUAAHDR_KID_4TO7 EQU C'QUAA' This is the second 4-byte segment of  X01-ISGYQUAA
                                                 +                         an 8-byte constant.                                       
                         00000001            1491+ISGYQUAAHDR_KMAXVERSION EQU 1                                           01-ISGYQUAA
                         00000001            1492+ISGYQUAAHDR_KHBB7709 EQU 1                                              01-ISGYQUAA
                         00000001            1493+ISGYQUAAHDR_KVERSION1 EQU 1                                             01-ISGYQUAA
                         00000001            1494+ISGYQUAAHDR_KREQINFO_QSCAN EQU 1                                        01-ISGYQUAA
                         00000002            1495+ISGYQUAAHDR_KREQINFO_ENQSTATS EQU 2                                     01-ISGYQUAA
                         00000028            1496+ISGYQUAAHDR_LEN EQU *-ISGYQUAAHDR                                       01-ISGYQUAA
                                             1497+*                                                                                  
                                             1498+*    ****************************************************************              
                                             1499+*   *                                                                              
                                             1500+*   * ISGYQUAA Resource Data Record                                                
                                             1501+*   *                                                                              
                                             1502+*   ****************************************************************               
                                             1503+*                                                                                  
                                             1504+*                                                                                  
 00000000                00000000 00000050   1505+ISGYQUAARS DSECT         Resource Data Record                           01-ISGYQUAA
 00000000                                    1506+ISGYQUAARSMAX DS 0CL80   The max length map                             01-ISGYQUAA
 00000000                                    1507+ISGYQUAARSVERSION DS H                                                  01-ISGYQUAA
 00000002                                    1508+ISGYQUAARSFLAGS1 DS 0B                                                  01-ISGYQUAA
                         00000080            1509+ISGYQUAARSRQSOMITTED EQU X'80'                                          01-ISGYQUAA
                         00000040            1510+ISGYQUAARSRSXVALID EQU X'40'                                            01-ISGYQUAA
 00000002                00000002 00000003   1511+         ORG   ISGYQUAARSFLAGS1+1                                       01-ISGYQUAA
 00000003                                    1512+         DS    CL5                                                      01-ISGYQUAA
 00000008                                    1513+ISGYQUAARSNEXT DS 0AD                                                   01-ISGYQUAA
1         ISGYQUAA  - ISGQUERY Answer Area                                                                      Page   32            
   Active Usings: RETURN_STRUC,R3  ISGYQUAAHDR,R4  LTORG,R10  ISGQUERY,R11  CEECAA,R12  CEEDSA,R13                                   
0D-Loc    Object Code      Addr1    Addr2    Stmt  Source Statement                          HLASM R6.0  2012/03/05 10.22            
000000008                                    1514+         DS    CL4                                                      01-ISGYQUAA
 0000000C                                    1515+ISGYQUAARSNEXT31 DS A                                                   01-ISGYQUAA
 00000010                                    1516+ISGYQUAARSFIRSTRQ DS 0AD                                                01-ISGYQUAA
 00000010                                    1517+         DS    CL4                                                      01-ISGYQUAA
 00000014                                    1518+ISGYQUAARSFIRSTRQ31 DS A                                                01-ISGYQUAA
 00000018                                    1519+ISGYQUAARSRNAME DS 0AD                                                  01-ISGYQUAA
 00000018                                    1520+         DS    CL4                                                      01-ISGYQUAA
 0000001C                                    1521+ISGYQUAARSRNAME31 DS A                                                  01-ISGYQUAA
 00000020                                    1522+ISGYQUAARSQNAME DS CL8                                                  01-ISGYQUAA
 00000028                                    1523+ISGYQUAARSNUMRQ DS F                                                    01-ISGYQUAA
 0000002C                                    1524+ISGYQUAARSTOTALRQ DS F                                                  01-ISGYQUAA
 00000030                                    1525+ISGYQUAARSNUMOWNERS DS F                                                01-ISGYQUAA
 00000034                                    1526+ISGYQUAARSNUMEWAITERS DS F                                              01-ISGYQUAA
 00000038                                    1527+ISGYQUAARSNUMSWAITERS DS F                                              01-ISGYQUAA
 0000003C                                    1528+ISGYQUAARSNUMEUSERS DS F                                                01-ISGYQUAA
 00000040                                    1529+ISGYQUAARSNUMSUSERS DS F                                                01-ISGYQUAA
 00000044                                    1530+ISGYQUAARSRNAMELEN DS H                                                 01-ISGYQUAA
 00000046                                    1531+ISGYQUAARSSCOPE DS X                                                    01-ISGYQUAA
 00000047                                    1532+         DS    CL1                                                      01-ISGYQUAA
 00000048                                    1533+ISGYQUAARSRSX DS 0AD                                                    01-ISGYQUAA
 00000048                                    1534+         DS    CL4                                                      01-ISGYQUAA
 0000004C                                    1535+ISGYQUAARSRSX31 DS A                                                    01-ISGYQUAA
                                             1536+*                                                                                  
                                             1537+*     ISGYQUAARS Constants                                                         
                                             1538+*                                                                                  
                                             1539+*                                                                                  
                         00000002            1540+ISGYQUAARS_KMAXVERSION EQU 2                                            01-ISGYQUAA
                         00000001            1541+ISGYQUAARS_KHBB7709 EQU 1                                               01-ISGYQUAA
                         00000002            1542+ISGYQUAARS_KHBB7740 EQU 2                                               01-ISGYQUAA
                         00000001            1543+ISGYQUAARS_KVERSION1 EQU 1                                              01-ISGYQUAA
                         00000002            1544+ISGYQUAARS_KVERSION2 EQU 2                                              01-ISGYQUAA
                         00000050            1545+ISGYQUAARS_LEN EQU *-ISGYQUAARS                                         01-ISGYQUAA
                                             1546+*                                                                                  
                                             1547+*    *****************************************************************             
                                             1548+*   *                                                                              
                                             1549+*   * ISGYQUAA Resource Data Record Extension                                      
                                             1550+*   *   (Only returned when ANSDETAIL=FULL2 or higher)                             
                                             1551+*   *                                                                              
                                             1552+*   ************************************************************                   
                                             1553+*                                                                                  
                                             1554+*                                                                                  
 00000000                00000000 00000030   1555+ISGYQUAARSX DSECT        Resource Data Record Ext.                      01-ISGYQUAA
 00000000                                    1556+ISGYQUAARSXMAX DS 0CL48  The max length map                             01-ISGYQUAA
 00000000                                    1557+ISGYQUAARSXVERSION DS H                                                 01-ISGYQUAA
 00000002                                    1558+ISGYQUAARSXFLAGS1 DS 0B                                                 01-ISGYQUAA
                         00000080            1559+ISGYQUAARSXRSCTOKENVALID EQU X'80'                                      01-ISGYQUAA
 00000002                00000002 00000003   1560+         ORG   ISGYQUAARSXFLAGS1+1                                      01-ISGYQUAA
 00000003                                    1561+         DS    CL1                                                      01-ISGYQUAA
 00000004                                    1562+ISGYQUAARSXRSCTOKEN DS CL32                                             01-ISGYQUAA
 00000024                                    1563+         DS    CL12                                                     01-ISGYQUAA
                                             1564+*                                                                                  
                                             1565+*     ISGYQUAARsx Constants                                                        
                                             1566+*                                                                                  
                                             1567+*                                                                                  
                         00000001            1568+ISGYQUAARSX_KMAXVERSION EQU 1                                           01-ISGYQUAA
1         ISGYQUAA  - ISGQUERY Answer Area                                                                      Page   33            
   Active Usings: RETURN_STRUC,R3  ISGYQUAAHDR,R4  LTORG,R10  ISGQUERY,R11  CEECAA,R12  CEEDSA,R13                                   
0D-Loc    Object Code      Addr1    Addr2    Stmt  Source Statement                          HLASM R6.0  2012/03/05 10.22            
0                        00000001            1569+ISGYQUAARSX_KHBB7740 EQU 1                                              01-ISGYQUAA
                         00000001            1570+ISGYQUAARSX_KVERSION1 EQU 1                                             01-ISGYQUAA
                         00000030            1571+ISGYQUAARSX_LEN EQU *-ISGYQUAARSX                                       01-ISGYQUAA
                                             1572+*                                                                                  
                                             1573+*    ****************************************************************              
                                             1574+*   *                                                                              
                                             1575+*   * ISGYQUAA Requester Data Record                                               
                                             1576+*   *                                                                              
                                             1577+*   ****************************************************************               
                                             1578+*                                                                                  
                                             1579+*                                                                                  
 00000000                00000000 00000040   1580+ISGYQUAARQ DSECT         Requester Data Record                          01-ISGYQUAA
 00000000                                    1581+ISGYQUAARQMAX DS 0CL64   The max length map                             01-ISGYQUAA
 00000000                                    1582+ISGYQUAARQVERSION DS H                                                  01-ISGYQUAA
 00000002                                    1583+ISGYQUAARQFLAGS1 DS 0B                                                  01-ISGYQUAA
                         00000080            1584+ISGYQUAARQCONTROL EQU X'80'                                             01-ISGYQUAA
                         00000040            1585+ISGYQUAARQRESERVE EQU X'40'                                             01-ISGYQUAA
                         00000020            1586+ISGYQUAARQRESERVECONVERTED EQU X'20'                                    01-ISGYQUAA
                         00000010            1587+ISGYQUAARQSYNCHRES EQU X'10'                                            01-ISGYQUAA
                         00000008            1588+ISGYQUAARQOWNER EQU X'08'                                               01-ISGYQUAA
                         00000004            1589+ISGYQUAARQMATU EQU X'04'                                                01-ISGYQUAA
                         00000002            1590+ISGYQUAARQPOSTED EQU X'02'                                              01-ISGYQUAA
                         00000001            1591+ISGYQUAARQMISC64VALID EQU X'01'                                         01-ISGYQUAA
 00000002                00000002 00000003   1592+         ORG   ISGYQUAARQFLAGS1+1                                       01-ISGYQUAA
 00000003                                    1593+ISGYQUAARQFLAGS2 DS 0B                                                  01-ISGYQUAA
                         00000080            1594+ISGYQUAARQRQXVALID EQU X'80'                                            01-ISGYQUAA
 00000003                00000003 00000004   1595+         ORG   ISGYQUAARQFLAGS2+1                                       01-ISGYQUAA
 00000004                                    1596+ISGYQUAARQTCB DS A                                                      01-ISGYQUAA
 00000008                                    1597+ISGYQUAARQNEXT DS 0AD                                                   01-ISGYQUAA
 00000008                                    1598+         DS    CL4                                                      01-ISGYQUAA
 0000000C                                    1599+ISGYQUAARQNEXT31 DS A                                                   01-ISGYQUAA
 00000010                                    1600+ISGYQUAARQRQX DS 0AD                                                    01-ISGYQUAA
 00000010                                    1601+         DS    CL4                                                      01-ISGYQUAA
 00000014                                    1602+ISGYQUAARQRQX31 DS A                                                    01-ISGYQUAA
 00000018                                    1603+ISGYQUAARQENQTOKEN DS CL32                                              01-ISGYQUAA
 00000038                                    1604+         DS    CL8                                                      01-ISGYQUAA
                                             1605+*                                                                                  
                                             1606+*     ISGYQUAARQ Constants                                                         
                                             1607+*                                                                                  
                                             1608+*                                                                                  
                         00000001            1609+ISGYQUAARQ_KMAXVERSION EQU 1                                            01-ISGYQUAA
                         00000001            1610+ISGYQUAARQ_KHBB7709 EQU 1                                               01-ISGYQUAA
                         00000001            1611+ISGYQUAARQ_KVERSION1 EQU 1                                              01-ISGYQUAA
                         00000040            1612+ISGYQUAARQ_LEN EQU *-ISGYQUAARQ                                         01-ISGYQUAA
                                             1613+*                                                                                  
                                             1614+*    *****************************************************************             
                                             1615+*   *                                                                              
                                             1616+*   * ISGYQUAA Requester Data Record Extension                                     
                                             1617+*   *   (Only returned when ANSDETAIL=FULL or higher)                              
                                             1618+*   *                                                                              
                                             1619+*   ************************************************************                   
                                             1620+*                                                                                  
                                             1621+*                                                                                  
 00000000                00000000 00000088   1622+ISGYQUAARQX DSECT        Requester Data Record Extension                01-ISGYQUAA
 00000000                                    1623+ISGYQUAARQXMAX DS 0CL136 The max len map                                01-ISGYQUAA
1         ISGYQUAA  - ISGQUERY Answer Area                                                                      Page   34            
   Active Usings: RETURN_STRUC,R3  ISGYQUAAHDR,R4  LTORG,R10  ISGQUERY,R11  CEECAA,R12  CEEDSA,R13                                   
0D-Loc    Object Code      Addr1    Addr2    Stmt  Source Statement                          HLASM R6.0  2012/03/05 10.22            
000000000                                    1624+ISGYQUAARQXFULL2FULL DS 0CL104                                          01-ISGYQUAA
 00000000                                    1625+ISGYQUAARQXVERSION DS H                                                 01-ISGYQUAA
 00000002                                    1626+ISGYQUAARQXFLAGS1 DS 0B                                                 01-ISGYQUAA
                         00000080            1627+ISGYQUAARQXNQXITCHANGED EQU X'80'                                       01-ISGYQUAA
                         00000040            1628+ISGYQUAARQXBATCHCHANGED EQU X'40'                                       01-ISGYQUAA
                         00000020            1629+ISGYQUAARQXRNLCHANGED EQU X'20'                                         01-ISGYQUAA
                         00000010            1630+ISGYQUAARQXORIGQNAMEVALID EQU X'10'                                     01-ISGYQUAA
                         00000008            1631+ISGYQUAARQXORIGRNAMEVALID EQU X'08'                                     01-ISGYQUAA
                         00000004            1632+ISGYQUAARQXORIGUCB@VALID EQU X'04'                                      01-ISGYQUAA
                         00000002            1633+ISGYQUAARQXORIGSCOPEVALID EQU X'02'                                     01-ISGYQUAA
                         00000001            1634+ISGYQUAARQXSERVICEASIDVALID EQU X'01'                                   01-ISGYQUAA
 00000002                00000002 00000003   1635+         ORG   ISGYQUAARQXFLAGS1+1                                      01-ISGYQUAA
 00000003                                    1636+ISGYQUAARQXFLAGS2 DS 0B                                                 01-ISGYQUAA
                         00000080            1637+ISGYQUAARQXMUSTCOMPLETE EQU X'80'                                       01-ISGYQUAA
                         00000040            1638+ISGYQUAARQXAUTHORIZED EQU X'40'                                         01-ISGYQUAA
                         00000020            1639+ISGYQUAARQXALTSEREXTENDED EQU X'20'                                     01-ISGYQUAA
                         00000010            1640+ISGYQUAARQXMATCHINGTASK EQU X'10'                                       01-ISGYQUAA
                         00000008            1641+ISGYQUAARQXECBREQUEST EQU X'08'                                         01-ISGYQUAA
                         00000004            1642+ISGYQUAARQXUSERDATAVALID EQU X'04'                                      01-ISGYQUAA
                         00000002            1643+ISGYQUAARQXUSERDATAOMITTED EQU X'02'                                    01-ISGYQUAA
 00000003                00000003 00000004   1644+         ORG   ISGYQUAARQXFLAGS2+1                                      01-ISGYQUAA
 00000004                                    1645+         DS    CL2                                                      01-ISGYQUAA
 00000006                                    1646+ISGYQUAARQXREQUESTERDATA DS 0CL42                                       01-ISGYQUAA
 00000006                                    1647+ISGYQUAARQXASID DS H                                                    01-ISGYQUAA
 00000008                                    1648+ISGYQUAARQXSTOKEN DS CL8                                                01-ISGYQUAA
 00000010                                    1649+ISGYQUAARQXTTOKEN DS CL16                                               01-ISGYQUAA
 00000020                                    1650+ISGYQUAARQXJOBNAME DS CL8                                               01-ISGYQUAA
 00000028                                    1651+ISGYQUAARQXSYSNAME DS CL8                                               01-ISGYQUAA
 00000030                                    1652+ISGYQUAARQXMTCB DS A                                                    01-ISGYQUAA
 00000034                                    1653+ISGYQUAARQXMASID DS H                                                   01-ISGYQUAA
 00000036                                    1654+ISGYQUAARQXSERVICEASID DS H                                             01-ISGYQUAA
 00000038                                    1655+ISGYQUAARQXECB DS 0A                                                    01-ISGYQUAA
 00000038                                    1656+ISGYQUAARQXSVRB DS A                                                    01-ISGYQUAA
 0000003C                                    1657+ISGYQUAARQXUCB DS A                                                     01-ISGYQUAA
 00000040                                    1658+ISGYQUAARQXDEVICENUM DS CL4                                             01-ISGYQUAA
 00000044                                    1659+         DS    CL4                                                      01-ISGYQUAA
 00000048                                    1660+ISGYQUAARQXORIGQNAME DS CL8                                             01-ISGYQUAA
 00000050                                    1661+ISGYQUAARQXORIGRNAME DS 0AD                                             01-ISGYQUAA
 00000050                                    1662+         DS    CL4                                                      01-ISGYQUAA
 00000054                                    1663+ISGYQUAARQXORIGRNAME31 DS A                                             01-ISGYQUAA
 00000058                                    1664+ISGYQUAARQXORIGUCB@ DS A                                                01-ISGYQUAA
 0000005C                                    1665+ISGYQUAARQXORIGRNAMELEN DS X                                            01-ISGYQUAA
 0000005D                                    1666+ISGYQUAARQXORIGSCOPE DS X                                               01-ISGYQUAA
 0000005E                                    1667+ISGYQUAARQXUSERDATALEN DS H                                             01-ISGYQUAA
 00000060                                    1668+ISGYQUAARQXUSERDATA DS 0AD                                              01-ISGYQUAA
 00000060                                    1669+         DS    CL4                                                      01-ISGYQUAA
 00000064                                    1670+ISGYQUAARQXUSERDATA31 DS A                                              01-ISGYQUAA
 00000068                                    1671+ISGYQUAARQXENQTIME DS CL16                                              01-ISGYQUAA
 00000078                                    1672+         DS    CL16                                                     01-ISGYQUAA
                                             1673+*                                                                                  
                                             1674+*     ISGYQUAARQX Constants                                                        
                                             1675+*                                                                                  
                                             1676+*                                                                                  
                         00000002            1677+ISGYQUAARQX_KMAXVERSION EQU 2                                           01-ISGYQUAA
                         00000001            1678+ISGYQUAARQX_KHBB7709 EQU 1                                              01-ISGYQUAA
1         ISGYQUAA  - ISGQUERY Answer Area                                                                      Page   35            
   Active Usings: RETURN_STRUC,R3  ISGYQUAAHDR,R4  LTORG,R10  ISGQUERY,R11  CEECAA,R12  CEEDSA,R13                                   
0D-Loc    Object Code      Addr1    Addr2    Stmt  Source Statement                          HLASM R6.0  2012/03/05 10.22            
0                        00000002            1679+ISGYQUAARQX_KHBB7740 EQU 2                                              01-ISGYQUAA
                         00000001            1680+ISGYQUAARQX_KVERSION1 EQU 1                                             01-ISGYQUAA
                         00000002            1681+ISGYQUAARQX_KVERSION2 EQU 2                                             01-ISGYQUAA
                         00000088            1682+ISGYQUAARQX_LEN EQU *-ISGYQUAARQX                                       01-ISGYQUAA
                                             1683+*                                                                                  
                                             1684+*    ****************************************************************              
                                             1685+*   *                                                                              
                                             1686+*   * ISGYQUAA System Data                                                         
                                             1687+*   *   (Only relevant for REQINFO=ENQSTATS)                                       
                                             1688+*   *                                                                              
                                             1689+*   ***********************************************************                    
                                             1690+*                                                                                  
                                             1691+*                                                                                  
 00000000                00000000 00000028   1692+ISGYQUAASYS DSECT        REQINFO=ENQSTATS system data                   01-ISGYQUAA
 00000000                                    1693+ISGYQUAASYSMAX DS 0CL40  The max length map                             01-ISGYQUAA
 00000000                                    1694+ISGYQUAASYSVERSION DS H                                                 01-ISGYQUAA
 00000002                                    1695+ISGYQUAASYSFLAGS1 DS 0B                                                 01-ISGYQUAA
                         00000080            1696+ISGYQUAASYSAUTHORIZED EQU X'80'                                         01-ISGYQUAA
 00000002                00000002 00000003   1697+         ORG   ISGYQUAASYSFLAGS1+1                                      01-ISGYQUAA
 00000003                                    1698+         DS    CL5                                                      01-ISGYQUAA
 00000008                                    1699+ISGYQUAASYSNEXT DS 0AD                                                  01-ISGYQUAA
 00000008                                    1700+         DS    CL4                                                      01-ISGYQUAA
 0000000C                                    1701+ISGYQUAASYSNEXT31 DS A                                                  01-ISGYQUAA
 00000010                                    1702+ISGYQUAASYSSP DS 0AD                                                    01-ISGYQUAA
 00000010                                    1703+         DS    CL4                                                      01-ISGYQUAA
 00000014                                    1704+ISGYQUAASYSSP31 DS A                                                    01-ISGYQUAA
 00000018                                    1705+ISGYQUAASYSPEAKENQDATA DS 0CL8                                          01-ISGYQUAA
 00000018                                    1706+ISGYQUAASYSPEAKENQCOUNT DS F                                            01-ISGYQUAA
 0000001C                                    1707+ISGYQUAASYSPEAKENQASID DS H                                             01-ISGYQUAA
 0000001E                                    1708+         DS    CL2                                                      01-ISGYQUAA
 00000020                                    1709+ISGYQUAASYSENQMAX DS F                                                  01-ISGYQUAA
 00000024                                    1710+         DS    CL4                                                      01-ISGYQUAA
                                             1711+*                                                                                  
                                             1712+*     ISGYQUAASys Constants                                                        
                                             1713+*                                                                                  
                                             1714+*                                                                                  
                         00000001            1715+ISGYQUAASYS_KMAXVERSION EQU 1                                           01-ISGYQUAA
                         00000001            1716+ISGYQUAASYS_KHBB7730 EQU 1                                              01-ISGYQUAA
                         00000001            1717+ISGYQUAASYS_KVERSION1 EQU 1                                             01-ISGYQUAA
                         00000028            1718+ISGYQUAASYS_LEN EQU *-ISGYQUAASYS                                       01-ISGYQUAA
                                             1719+*                                                                                  
                                             1720+*    ****************************************************************              
                                             1721+*   *                                                                              
                                             1722+*   * ISGYQUAA Address Space Data                                                  
                                             1723+*   *   (Only relevant for REQINFO=ENQSTATS)                                       
                                             1724+*   *                                                                              
                                             1725+*   ***********************************************************                    
                                             1726+*                                                                                  
                                             1727+*                                                                                  
 00000000                00000000 00000010   1728+ISGYQUAASP DSECT         REQINFO=ENQSTATS address space specific data   01-ISGYQUAA
 00000000                                    1729+ISGYQUAASPMAX DS 0CL16   The max length map                             01-ISGYQUAA
 00000000                                    1730+ISGYQUAASPVERSION DS H                                                  01-ISGYQUAA
 00000002                                    1731+         DS    CL2                                                      01-ISGYQUAA
 00000004                                    1732+ISGYQUAASPCURRENQCOUNT DS F                                             01-ISGYQUAA
 00000008                                    1733+ISGYQUAASPPEAKENQCOUNT DS F                                             01-ISGYQUAA
1         ISGYQUAA  - ISGQUERY Answer Area                                                                      Page   36            
   Active Usings: RETURN_STRUC,R3  ISGYQUAAHDR,R4  LTORG,R10  ISGQUERY,R11  CEECAA,R12  CEEDSA,R13                                   
0D-Loc    Object Code      Addr1    Addr2    Stmt  Source Statement                          HLASM R6.0  2012/03/05 10.22            
00000000C                                    1734+ISGYQUAASPENQMAX DS F                                                   01-ISGYQUAA
                                             1735+*                                                                                  
                                             1736+*     ISGYQUAASp Constants                                                         
                                             1737+*                                                                                  
                                             1738+*                                                                                  
                         00000001            1739+ISGYQUAASP_KMAXVERSION EQU 1                                            01-ISGYQUAA
                         00000001            1740+ISGYQUAASP_KHBB7730 EQU 1                                               01-ISGYQUAA
                         00000001            1741+ISGYQUAASP_KVERSION1 EQU 1                                              01-ISGYQUAA
                         00000020            1742+ISGYQUAAUSERDATA_KINITIALLEN EQU 32 The initial length of              X01-ISGYQUAA
                                                 +                         ISGYQUAAUserdata                                          
                         00000010            1743+ISGYQUAASP_LEN EQU *-ISGYQUAASP                                         01-ISGYQUAA
                                             1744          ISGYCON                                                                   
1         ISGYCON  - Constants for users of GRS services                                                        Page   37            
   Active Usings: RETURN_STRUC,R3  ISGYQUAAHDR,R4  LTORG,R10  ISGQUERY,R11  CEECAA,R12  CEEDSA,R13                                   
0D-Loc    Object Code      Addr1    Addr2    Stmt  Source Statement                          HLASM R6.0  2012/03/05 10.22            
0                                            1746+**/ ISGYCON_1:;                                                                    
                                             1747+*/* START OF SPECIFICATIONS *******************************************            
                                             1748+*                                                                                  
                                             1749+*01* PROPRIETARY STATEMENT =                                                       
                                             1750+*                                                                                  
                                             1751+*    Licensed Materials - Property of IBM                                          
                                             1752+*    5694-A01 Copyright IBM Corp. 2001, 2009                                       
                                             1753+*                                                                                  
                                             1754+*01* STATUS = HBB7760                                                              
                                             1755+*                                                                                  
                                             1756+*01* END OF PROPRIETARY STATEMENT                                                  
                                             1757+*                                                                                  
                                             1758+*01* EXTERNAL CLASSIFICATION: PI                                                   
                                             1759+*01* END OF EXTERNAL CLASSIFICATION:                                               
                                             1760+*                                                                                  
                                             1761+*02* NOTE:  THIS IS A SET OF CONSTANTS NOT AN ACTUAL DATA AREA                     
                                             1762+*           DATA AREA INFORMATION IS NOT APPLICABLE.                               
                                             1763+*                                                                                  
                                             1764+*01* DESCRIPTIVE NAME: Constants for users of GRS services                         
                                             1765+*                                                                                  
                                             1766+*02* ACRONYM:  N/A                                                                 
                                             1767+*                                                                                  
                                             1768+*01* MACRO NAME:   ISGYCON                                                         
                                             1769+*                                                                                  
                                             1770+*01* DSECT NAME:                                                                   
                                             1771+*      N/A                                                                         
                                             1772+*                                                                                  
                                             1773+*01* COMPONENT:  Global Resource Serialization (SCSDS)                             
                                             1774+*                                                                                  
                                             1775+*01* EYE CATCHER: None                                                             
                                             1776+*02*   OFFSET:    N/A                                                              
                                             1777+*02*   LENGTH:    N/A                                                              
                                             1778+*                                                                                  
                                             1779+*01* STORAGE ATTRIBUTES:                                                           
                                             1780+*02*   MAIN STORAGE: N/A                                                           
                                             1781+*                                                                                  
                                             1782+*01* SIZE:   0 bytes                                                               
                                             1783+*                                                                                  
                                             1784+*                                                                                  
                                             1785+*01* CREATED BY: N/A                                                               
                                             1786+*                                                                                  
                                             1787+*01* POINTED TO BY: N/A                                                            
                                             1788+*                                                                                  
                                             1789+*01* SERIALIZATION:  None                                                          
                                             1790+*                                                                                  
                                             1791+*01* FUNCTION:  Provides a list of constants for users of GRS                      
                                             1792+*               services and exits.                                                
                                             1793+*                                                                                  
                                             1794+*01* METHOD OF ACCESS:                                                             
                                             1795+*                                                                                  
                                             1796+*   PL/X: %INCLUDE SYSLIB(ISGYCON)                                                 
                                             1797+*   ASM:   ISGYCON                                                                 
                                             1798+*                                                                                  
                                             1799+* DELETED-BY: N/A                                                                  
                                             1800+*                                                                                  
1         ISGYCON  - Constants for users of GRS services                                                        Page   38            
   Active Usings: RETURN_STRUC,R3  ISGYQUAAHDR,R4  LTORG,R10  ISGQUERY,R11  CEECAA,R12  CEEDSA,R13                                   
0D-Loc    Object Code      Addr1    Addr2    Stmt  Source Statement                          HLASM R6.0  2012/03/05 10.22            
0                                            1801+* DEPENDENCIES: N/A                                                                
                                             1802+*                                                                                  
                                             1803+* NOTES: None                                                                      
                                             1804+*                                                                                  
                                             1805+* CHANGE-ACTIVITY:                                                                 
                                             1806+*   $L0=GRSWC    HBB7705 000419 PD2V:  GRS Wildcard                                
                                             1807+*   $L1=PCENQ    HBB7705 010508 PDDV:  Exits                                       
                                             1808+*   $L2=PCENQ    HBB7705 010827 PDLG:  Exits                                       
                                             1809+*   $P1=PYM0237  HBB7706 011008 PDWL:  Add new Reason Codes for 4xx                
                                             1810+*                                      ABENDS when QWA Global and Local            
                                             1811+*                                      resource counts exceed 'FFFF'x              
                                             1812+*   $L3=PCENQ    HBB7705 011212 PD2V:  MASID reason codes                          
                                             1813+*   $P2=PYV0363  HBB7707 020213 PDDV:  use EAX for GRS ALET                        
                                             1814+*   $P2=PYV0375  HBB7707 020405 PD2V:  Add 43x Bad Pel Prefix                      
                                             1815+*   $01=OW53321  HBB7707 020429 PDFX:  ABEND for ENQ/DEQ parameter list            
                                             1816+*                                      not in primary                              
                                             1817+*   $L4=64GRS    HBB7709 021125 PDFX:  ISGQUERY return codes                       
                                             1818+*   $L5=64GRS    HBB7709 030623 PDBC:  ENQ/DEQ return code updates                 
                                             1819+*   $P3=PJK0722  HBB7709 030623 PDFX:  Add ISGQUERYRsn_GRSNone                     
                                             1820+*   $P4=PJK0888  HBB7709 030915 PDFX:  ISGENQ reason code update                   
                                             1821+*      =PJK0906  HBB7709 030915 PDFX:  ISGENQ reason code update                   
                                             1822+*   $P5=PJK0902  HBB7709 030915 PDBC:  Add old ENQ ECB return codes                
                                             1823+*   $P6=PJK1044  HBB7709 031021 PDFX:  Remove Synchres disabled RSN                
                                             1824+*   $02=OA05229  HBB7708 031024 PDFX:  Add 73x reason for CSVDYNEX                 
                                             1825+*                                      failed                                      
                                             1826+*   $P7=PJK0875  HBB7709 031021 PDFX:  Remove unneeded ISGENQ RSN codes            
                                             1827+*   $P8=PJK0745  HBB7709 031110 PDFX:  General doc changes                         
                                             1828+*   $P9=PJK1339  HBB7709 040310 PDFY:  Authorize ISGQUERY for MLS                  
                                             1829+*   $PA=ME01502  HBB7720 041105 PDFX:  Add ISGRsnCodeSmcInXmem                     
                                             1830+*   $L6=ENQAPI   HBB7730 050203 PDBC:  ISGADMIN return/reasons                     
                                             1831+*   $PB=ME03985  HBB7730 050721 PDBC:  Fix ISGADMIN rc C typo                      
                                             1832+*      =ME03930  HBB7730 050808 PDCJ:  Fix copyright                               
                                             1833+*   $L7=GRSTOR2  HBB7730 050928 PDBC:  More ISGADMIN return/reasons,               
                                             1834+*                                      Updated reasons with typos                  
                                             1835+*   $L8=GRSTOR2  HBB7740 060515 PDGA:  New reason code                             
                                             1836+*   $L9=GRSTOR2  HBB7740 060524 PDBC:  New ISGADMIN reasons                        
                                             1837+*   $LA=GRSUDATA HBB7750 070122 PDFY:  New ISGENQ/ISGQUERY Reasons                 
                                             1838+*   $PC=ME12166  HBB7760 080701 PDBC:  New ISGENQ reason                           
                                             1839+*                                                                                  
                                             1840+*END OF SPECIFICATIONS ***********************************************/            
                                             1841+*% /*                                                                              
                                             1842+*                                                                                  
                                             1843+*   Return Codes from ENQ/DEQ                                                      
                                             1844+*   ENQ RET=TEST Return Codes                                                      
                                             1845+*                                                                                  
                                             1846+*                                                                                  
                         00000000            1847+ENQ_KTESTRCRESOURCEISAVAILABLE EQU 0                                    01-ISGYCON 
                         00000004            1848+ENQ_KTESTRCRESOURCEISNOTAVAILABLE EQU 4                                 01-ISGYCON 
                         00000008            1849+ENQ_KTESTRCPREVIOUSREQALREADYOWNS EQU 8                                 01-ISGYCON 
                         00000014            1850+ENQ_KTESTRCPREVIOUSREQDOESNOTOWN EQU 20                                 01-ISGYCON 
                         00000020            1851+ENQ_KTESTRCMATCHINGTASKOWNS EQU 32                                      01-ISGYCON 
                                             1852+*                                                                                  
                                             1853+*   ENQ RET=USE Return Codes                                                       
                                             1854+*                                                                                  
                                             1855+*                                                                                  
1         ISGYCON  - Constants for users of GRS services                                                        Page   39            
   Active Usings: RETURN_STRUC,R3  ISGYQUAAHDR,R4  LTORG,R10  ISGQUERY,R11  CEECAA,R12  CEEDSA,R13                                   
0D-Loc    Object Code      Addr1    Addr2    Stmt  Source Statement                          HLASM R6.0  2012/03/05 10.22            
0                        00000000            1856+ENQ_KUSERCRESOURCEOWNED EQU 0                                           01-ISGYCON 
                         00000004            1857+ENQ_KUSERCRESOURCENOTOWNED EQU 4                                        01-ISGYCON 
                         00000008            1858+ENQ_KUSERCPREVIOUSREQALREADYOWNS EQU 8                                  01-ISGYCON 
                         00000014            1859+ENQ_KUSERCPREVIOUSREQDOESNOTOWN EQU 20                                  01-ISGYCON 
                         00000018            1860+ENQ_KUSERCENVIRONMENTALERROR EQU 24                                     01-ISGYCON 
                                             1861+*                                                                                  
                                             1862+*   ENQ RET=CHNG Return Codes                                                      
                                             1863+*                                                                                  
                                             1864+*                                                                                  
                         00000000            1865+ENQ_KCHNGRCRESOURCECHANGED EQU 0                                        01-ISGYCON 
                         00000004            1866+ENQ_KCHNGRCRESOURCENOTCHANGED EQU 4                                     01-ISGYCON 
                         00000008            1867+ENQ_KCHNGRCRESOURCENOTREQED EQU 8                                       01-ISGYCON 
                         00000014            1868+ENQ_KCHNGRCRESOURCENOTOWNED EQU 20                                      01-ISGYCON 
                         00000018            1869+ENQ_KCHNGRCENVIRONMENTALERROR EQU 24                                    01-ISGYCON 
                                             1870+*                                                                                  
                                             1871+*   ENQ RET=HAVE ReturnCodes                                                       
                                             1872+*                                                                                  
                                             1873+*                                                                                  
                         00000000            1874+ENQ_KHAVERCRESOURCEOWNED EQU 0                                          01-ISGYCON 
                         00000008            1875+ENQ_KHAVERCPREVIOUSREQALREADYOWNS EQU 8                                 01-ISGYCON 
                         00000014            1876+ENQ_KHAVERCPREVIOUSREQDOESNOTOWN EQU 20                                 01-ISGYCON 
                         00000018            1877+ENQ_KHAVERCENVIRONMENTALERROR EQU 24                                    01-ISGYCON 
                         00000020            1878+ENQ_KHAVERCMATCHINGTASKOWNS EQU 32                                      01-ISGYCON 
                         00000028            1879+ENQ_KHAVERCCALLERCANNOTUSE EQU 40                                       01-ISGYCON 
                         00000044            1880+ENQ_KHAVERCMATCHINGTASKVIOLATION EQU 68                                 01-ISGYCON 
                                             1881+*                                                                                  
                                             1882+*   ENQ RET=ECB ReturnCodes                                                        
                                             1883+*                                                                                  
                                             1884+*                                                                                  
                         00000000            1885+ENQ_KECBRCRESOURCEOWNED EQU 0                                           01-ISGYCON 
                         00000004            1886+ENQ_KECBRCWILLBEPOSTED EQU 4                                            01-ISGYCON 
                         00000008            1887+ENQ_KECBRCPREVIOUSREQALREADYOWNS EQU 8                                  01-ISGYCON 
                         00000014            1888+ENQ_KECBRCPREVIOUSREQDOESNOTOWN EQU 20                                  01-ISGYCON 
                         00000018            1889+ENQ_KECBRCENVIRONMENTALERROR EQU 24                                     01-ISGYCON 
                         00000024            1890+ENQ_KECBRCWAITTOOWNEXCLUSIVE EQU 36                                     01-ISGYCON 
                                             1891+*                                                                                  
                                             1892+*   DEQ ReturnCodes                                                                
                                             1893+*                                                                                  
                                             1894+*                                                                                  
                         00000000            1895+DEQ_KRCRESOURCERELEASED EQU 0                                           01-ISGYCON 
                         00000004            1896+DEQ_KRCRESOURCEPREVIOUSREQDOESNOTOWN EQU 4                              01-ISGYCON 
                         00000008            1897+DEQ_KRCRESOURCENOTOWNED EQU 8                                           01-ISGYCON 
                                             1898+*                                                                                  
                                             1899+*   Reason Codes -- GRS ABEND Reason Codes                                         
                                             1900+*   (Note that the reason codes are of the form "xxxxYYYY" where                   
                                             1901+*    "xxxx" is used to contain the module id of the failing module.                
                                             1902+*    Module ids can be found in ISGYMT or ISGFID)                                  
                                             1903+*    Also see ISGCONST for internal reason codes.                                  
                                             1904+*                                                                                  
                                             1905+*                                                                                  
                         0000FFFF            1906+ISGRSNCODEMASK EQU X'0000FFFF' Used to mask off the high half word to  X01-ISGYCON 
                                                 +                         remove the module id from the ABEND and       X           
                                                 +                         reason codes                                              
                                             1907+*                                                                                  
                                             1908+*    3xx Abend Reason codes                                                        
1         ISGYCON  - Constants for users of GRS services                                                        Page   40            
   Active Usings: RETURN_STRUC,R3  ISGYQUAAHDR,R4  LTORG,R10  ISGQUERY,R11  CEECAA,R12  CEEDSA,R13                                   
0D-Loc    Object Code      Addr1    Addr2    Stmt  Source Statement                          HLASM R6.0  2012/03/05 10.22            
0                                            1909+*                                                                                  
                                             1910+*                                                                                  
                         00000001            1911+ISGRSNCODEUNAUTHNQDQOFAUTHRESOURCE EQU X'00000001'                      01-ISGYCON 
                                             1912+*                                                                                  
                                             1913+*                                      An unauthorized requester                   
                                             1914+*                                      attempted to ENQ or DEQ an                  
                                             1915+*                                      authorized resource                         
                                             1916+*                                                                                  
                         00000002            1917+ISGRSNCODEUNAUTHNQDQOFAUTHRESOURCEBYEXIT EQU X'00000002' An ISGNQXIT   X01-ISGYCON 
                                                 +                         installation exit specified an authorized     X           
                                                 +                         resource name for an unauthorized request                 
                         00000003            1918+ISGRSNCODEUCBNOTALLOCATED EQU X'00000003' An unauthorized requester    X01-ISGYCON 
                                                 +                         attempted to RESERVE a device that is not     X           
                                                 +                         allocated to the requesting task                          
                         00000004            1919+ISGRSNCODEUCBNOTALLOCATEDBYEXIT EQU X'00000004'                         01-ISGYCON 
                                             1920+*                                                                                  
                                             1921+*                                      An ISGNQXIT installation exit               
                                             1922+*                                      specified a UCB for a device                
                                             1923+*                                      that is not allocated to the                
                                             1924+*                                      requesting, unauthorized task               
                                             1925+*                                                                                  
                         00000005            1926+ISGRSNCODEUNAUTHMASIDREQ EQU X'00000005' An unauthorized requester     X01-ISGYCON 
                                                 +                         attempted a MASID request                                 
                         00000006            1927+ISGRSNCODEUNAUTHREQWITHTCBORPELSTPMC EQU X'00000006' An unauthorized   X01-ISGYCON 
                                                 +                         requester specified TCB or Step Must Complete             
                         00000007            1928+ISGRSNCODEUNAUTHGENERICREQUEST EQU X'00000007' An unauthorized (DEQ)   X01-ISGYCON 
                                                 +                         requester attempted to issue a generic        X           
                                                 +                         request                                                   
                         00000008            1929+ISGRSNCODEUNAUTHECBREQUEST EQU X'00000008' An unauthorized (ENQ)       X01-ISGYCON 
                                                 +                         requester attempted to issue an ECB request               
                                             1930+*                                                                                  
                                             1931+*   4xx Abend Reason codes                                                         
                                             1932+*                                                                                  
                                             1933+*                                                                                  
                         00000001            1934+ISGRSNCODEPARMLISTALTEREDWHILEPROCESSING EQU X'00000001' The input     X01-ISGYCON 
                                                 +                         parameter list was altered during ENQ/DEQ     X           
                                                 +                         processing                                                
                         00000002            1935+ISGRSNCODERNLNOANDUCBSPECIFIED EQU X'00000002' The RESERVE request     X01-ISGYCON 
                                                 +                         specified RNL=NO                                          
                         00000003            1936+ISGRSNCODEINVALIDUCB EQU X'00000003' The storage specified by the      X01-ISGYCON 
                                                 +                         input UCB address does not map to a valid UCB             
                         00000004            1937+ISGRSNCODEINVALIDUCBBYEXIT EQU X'00000004' The storage specified by    X01-ISGYCON 
                                                 +                         the UCB address specified by an ISGNQXIT exit X           
                                                 +                         routine does not map to a valid UCB                       
                         00000005            1938+ISGRSNCODEBADUSERPEL EQU X'00000005' The storage passed to ENQ/DEQ     X01-ISGYCON 
                                                 +                         processing could not be accessed in the       X           
                                                 +                         caller's key                                              
                         00000006            1939+ISGRSNCODEBADQNAME EQU X'00000006' The storage containing the QNAME    X01-ISGYCON 
                                                 +                         could not be accessed in the caller's key                 
                         00000007            1940+ISGRSNCODEBADRNAME EQU X'00000007' The storage containing the RNAME    X01-ISGYCON 
                                                 +                         could not be accessed in the caller's key                 
                         00000008            1941+ISGRSNCODEBADUCBPTR EQU X'00000008' The storage containing the pointer X01-ISGYCON 
                                                 +                         to the UCB address could not be accessed in   X           
                                                 +                         the caller's key                                          
1         ISGYCON  - Constants for users of GRS services                                                        Page   41            
   Active Usings: RETURN_STRUC,R3  ISGYQUAAHDR,R4  LTORG,R10  ISGQUERY,R11  CEECAA,R12  CEEDSA,R13                                   
0D-Loc    Object Code      Addr1    Addr2    Stmt  Source Statement                          HLASM R6.0  2012/03/05 10.22            
0                        00000009            1942+ISGRSNCODEBADUCBADDRESS EQU X'00000009' The storage containing the UCB X01-ISGYCON 
                                                 +                         address could not be accessed in the caller's X           
                                                 +                         key                                                       
                         0000000A            1943+ISGRSNCODELOCALRESOURCECOUNTOVERRUN EQU X'0000000A' The local resource X01-ISGYCON 
                                                 +                         count exceeded 'FFFF'x resources                          
                         0000000B            1944+ISGRSNCODEGLOBALRESOURCECOUNTOVERRUN EQU X'0000000B' The global        X01-ISGYCON 
                                                 +                         resource count exceeded 'FFFF'x resources                 
                         0000000C            1945+ISGRSNCODEINVALIDFORMATWORD EQU X'0000000C' The format word value was  X01-ISGYCON 
                                                 +                         invalid                                                   
                         0000000D            1946+ISGRSNCODEBADTCBSTORAGE EQU X'0000000D' The storage specified by the   X01-ISGYCON 
                                                 +                         input TCB is invalid                                      
                         0000000E            1947+ISGRSNCODENOTATCB EQU X'0000000E' The storage specified by the input   X01-ISGYCON 
                                                 +                         TCB does not map to a valid TCB                           
                         0000000F            1948+ISGRSNCODEMASIDREQSPECIFIEDTCBORPELSTPMC EQU X'0000000F' A MASID       X01-ISGYCON 
                                                 +                         request incorrectly specified TCB or PelStpMC             
                         00000010            1949+ISGRSNCODEINVALIDMASIDRNAMELENGTH EQU X'00000010'                       01-ISGYCON 
                                             1950+*                                                                                  
                                             1951+*                                      A MASID request has an rname                
                                             1952+*                                      with a bad length                           
                                             1953+*                                                                                  
                         00000011            1954+ISGRSNCODEMASIDREQINVALIDRET EQU X'00000011' A MASID request specified X01-ISGYCON 
                                                 +                         invalid RET= value                                        
                         00000012            1955+ISGRSNCODEMASIDREQWITHNOTCB EQU X'00000012' A MASID request has no TCB X01-ISGYCON 
                                                 +                         associated with it                                        
                         00000013            1956+ISGRSNCODEMASIDREQSUBTASKOFTARGET EQU X'00000013'                       01-ISGYCON 
                                             1957+*                                                                                  
                                             1958+*                                      Issuing tasks TCB is a subtask              
                                             1959+*                                      of the target TCB, illegal                  
                                             1960+*                                                                                  
                                             1961+*                                                                                  
                         00000014            1962+ISGRSNCODEREQSETOBSOLETEFLAG EQU X'00000014' Request tried to set an   X01-ISGYCON 
                                                 +                         obsolete bit in the Pel                                   
                         00000015            1963+ISGRSNCODETCBSPECIFIEDANDPELSTPMC EQU X'00000015'                       01-ISGYCON 
                                             1964+*                                                                                  
                                             1965+*                                      Request illegally specified                 
                                             1966+*                                      TCB with PelStpMC                           
                                             1967+*                                                                                  
                         00000016            1968+ISGRSNCODEDEQREQSPECIFIEDPELSAVE EQU X'00000016'                        01-ISGYCON 
                                             1969+*                                                                                  
                                             1970+*                                      Deq request illegally                       
                                             1971+*                                      specified PelSave                           
                                             1972+*                                                                                  
                         00000017            1973+ISGRSNCODEINVALIDRETSPECIFIED EQU X'00000017' Request specified        X01-ISGYCON 
                                                 +                         invalid RET= value                                        
                         00000018            1974+ISGRSNCODEGENERICREQWITHINVALIDRET EQU X'00000018'                      01-ISGYCON 
                                             1975+*                                                                                  
                                             1976+*                                      Generic request specified                   
                                             1977+*                                      invalid RET= value                          
                                             1978+*                                                                                  
                         00000019            1979+ISGRSNCODEENQREQSPECIFIEDGENERIC EQU X'00000019'                        01-ISGYCON 
                                             1980+*                                                                                  
                                             1981+*                                      Enq request illegally                       
                                             1982+*                                      specified PelGen2                           
                                             1983+*                                                                                  
1         ISGYCON  - Constants for users of GRS services                                                        Page   42            
   Active Usings: RETURN_STRUC,R3  ISGYQUAAHDR,R4  LTORG,R10  ISGQUERY,R11  CEECAA,R12  CEEDSA,R13                                   
0D-Loc    Object Code      Addr1    Addr2    Stmt  Source Statement                          HLASM R6.0  2012/03/05 10.22            
0                        0000001A            1984+ISGRSNCODEDIRENQNOMATCHINGTCB EQU X'0000001A' A directed enq request   X01-ISGYCON 
                                                 +                         was issued with no matching TCB in the        X           
                                                 +                         requestor's address space                                 
                         0000001B            1985+ISGRSNCODEDIRENQANDUCBSPECIFIED EQU X'0000001B'                         01-ISGYCON 
                                             1986+*                                                                                  
                                             1987+*                                      Directed enq request illegally              
                                             1988+*                                      specified UCB                               
                                             1989+*                                                                                  
                         0000001C            1990+ISGRSNCODEDIRENQNOECBANDINVALIDRET EQU X'0000001C'                      01-ISGYCON 
                                             1991+*                                                                                  
                                             1992+*                                      Directed enq request illegally              
                                             1993+*                                      specified no ECB with an                    
                                             1994+*                                      invalid RET= value                          
                                             1995+*                                                                                  
                         0000001D            1996+ISGRSNCODEOECBREQWITHBADRET EQU X'0000001D' This label has a typo but  X01-ISGYCON 
                                                 +                         is kept for compatibility                                 
                         0000001D            1997+ISGRSNCODEECBREQWITHBADRET EQU X'0000001D' An ECB request but RET does X01-ISGYCON 
                                                 +                         not specify ECB                                           
                         0000001E            1998+ISGRSNCODEOECBREQWITHSTEPMUSTCOMPLETE EQU X'0000001E' This label has a X01-ISGYCON 
                                                 +                         typo but is kept for compatibility                        
                         0000001E            1999+ISGRSNCODEECBREQWITHSTEPMUSTCOMPLETE EQU X'0000001E' An ECB request    X01-ISGYCON 
                                                 +                         illegally specified PelStpMC                              
                         0000001F            2000+ISGRSNCODEBADFORMATWORD EQU X'0000001F' The storage containing the     X01-ISGYCON 
                                                 +                         format word could not be accessed in the      X           
                                                 +                         caller's key                                              
                         00000020            2001+ISGRSNCODEBADFORMATVALUE EQU X'00000020' The storage containing the    X01-ISGYCON 
                                                 +                         format value could not be accessed in the     X           
                                                 +                         caller's key                                              
                         00000021            2002+ISGRSNCODEPARMLISTALETNOTZERO EQU X'00000021' ENQ/DEQ parameter list   X01-ISGYCON 
                                                 +                         was not in the primary address space                      
                         00000022            2003+ISGRSNCODEBADPELPREFIX EQU X'00000022' The storage containing the      X01-ISGYCON 
                                                 +                         format value could not be accessed in the     X           
                                                 +                         caller's key                                              
                         00000023            2004+ISGRSNCODESMCINXMEM EQU X'00000023' SMC or RMC was specified while     X01-ISGYCON 
                                                 +                         P^=H.                                                     
                                             2005+*                                                                                  
                                             2006+*   7xx Abend Reason codes                                                         
                                             2007+*                                                                                  
                                             2008+*                                                                                  
                         00000000            2009+ISGRSNCODEGENERALFAILURE EQU X'00000000' General module failure in     X01-ISGYCON 
                                                 +                         ENQ/DEQ processing                                        
                         00000001            2010+ISGRSNCODEIOSVDSTFFAILURE EQU X'00000001' Synchronous RESERVE failed   X01-ISGYCON 
                                                 +                         during device state transition flushing                   
                         00000002            2011+ISGRSNCODERESERVESTARTFAILURE EQU X'00000002' RESERVE start processing X01-ISGYCON 
                                                 +                         failed                                                    
                         00000003            2012+ISGRSNCODERESERVEDONEFAILURE EQU X'00000003' Synchronous RESERVE done  X01-ISGYCON 
                                                 +                         processing failed                                         
                         00000004            2013+ISGRSNCODECOULDNOTOBTAINHOMESTORAGE EQU X'00000004' ENQ/DEQ processing X01-ISGYCON 
                                                 +                         could not obtain storage in the home address  X           
                                                 +                         space                                                     
                         00000005            2014+ISGRSNCODECOULDNOTOBTAINCOMMONSTORAGE EQU X'00000005' ENQ/DEQ          X01-ISGYCON 
                                                 +                         processing could not obtain storage in the    X           
                                                 +                         common area                                               
                         00000006            2015+ISGRSNCODECOULDNOTOBTAINPRIMARYALET EQU X'00000006' ENQ/DEQ processing X01-ISGYCON 
1         ISGYCON  - Constants for users of GRS services                                                        Page   43            
   Active Usings: RETURN_STRUC,R3  ISGYQUAAHDR,R4  LTORG,R10  ISGQUERY,R11  CEECAA,R12  CEEDSA,R13                                   
0D-Loc    Object Code      Addr1    Addr2    Stmt  Source Statement                          HLASM R6.0  2012/03/05 10.22            
0                                                +                         could not obtain the ALET of the caller's     X           
                                                 +                         primary address space                                     
                         00000007            2016+ISGRSNCODECOULDNOTSUSPENDFORRNLCHANGE EQU X'00000007' ENQ processing   X01-ISGYCON 
                                                 +                         could not obtain a DSQE to suspend a request  X           
                                                 +                         for a RNL change                                          
                         00000008            2017+ISGRSNCODECOULDNOTOBTAINGRSALET EQU X'00000008'                         01-ISGYCON 
                                             2018+*                                                                                  
                                             2019+*                                      ENQ/DEQ processing could not                
                                             2020+*                                      obtain the ALET of the GRS                  
                                             2021+*                                      address space                               
                                             2022+*                                                                                  
                         00000009            2023+ISGRSNCODECOULDNOTOBTAINPRIMARYSTORAGE EQU X'00000009' ENQ/DEQ         X01-ISGYCON 
                                                 +                         processing could not obtain storage in the    X           
                                                 +                         primary address space                                     
                         00000100            2024+ISGRSNCODECOULDNOTQUERYLSE EQU X'00000100' ENQ/DEQ processing could    X01-ISGYCON 
                                                 +                         not query the LSE of an ENQ requestor                     
                         00000200            2025+ISGRSNCODECOULDNOTUPDATELSE EQU X'00000200' ENQ/DEQ processing could   X01-ISGYCON 
                                                 +                         not update the LSE of an ENQ requestor                    
                         000000FD            2026+ISGRSNCODECSVDYNEXABEND EQU X'000000FD' Abend in CSVDYNEX               01-ISGYCON 
                         000000FE            2027+ISGRSNCODEEXITABEND EQU X'000000FE' Abend in dynamic exit               01-ISGYCON 
                         000000FF            2028+ISGRSNCODEUCBOVERFLOW EQU X'000000FF' RESERVE processing detected an   X01-ISGYCON 
                                                 +                         overflow when updating the RESERVE count                  
                                             2029+*                                                                                  
                                             2030+*   ISGQUERY Return and Reason Codes                                               
                                             2031+*   (Note that the reason codes are of the form "xxxxYYYY" where                   
                                             2032+*    "xxxx" is used to contain the module id of the failing module.                
                                             2033+*    Module ids can be found in ISGYMT or ISGFID)                                  
                                             2034+*    Use ISGRsnCodeMask to remove the module id from the reason codes              
                                             2035+*                                                                                  
                                             2036+*                                                                                  
                                             2037+*                                                                                  
                         00000000            2038+ISGQUERYRC_OK EQU X'00000000'                                           01-ISGYCON 
                         00000004            2039+ISGQUERYRC_WARN EQU X'00000004'                                         01-ISGYCON 
                         00000401            2040+ISGQUERYRSN_NOMATCHINGRNLE EQU X'00000401'                              01-ISGYCON 
                         00000402            2041+ISGQUERYRSN_RNLCHANGEINPROGRESS EQU X'00000402'                         01-ISGYCON 
                         00000403            2042+ISGQUERYRSN_GRSRNLEXCLUDE EQU X'00000403'                               01-ISGYCON 
                         00000404            2043+ISGQUERYRSN_NOMATCHINGRESOURCES EQU X'00000404'                         01-ISGYCON 
                         00000405            2044+ISGQUERYRSN_ANSWERAREAFULL EQU X'00000405'                              01-ISGYCON 
                         00000406            2045+ISGQUERYRSN_GRSNONE EQU X'00000406'                                     01-ISGYCON 
                         00000008            2046+ISGQUERYRC_PARMERROR EQU X'00000008'                                    01-ISGYCON 
                         00000801            2047+ISGQUERYRSN_BADPLISTADDRESS EQU X'00000801'                             01-ISGYCON 
                         00000802            2048+ISGQUERYRSN_BADPLISTALET EQU X'00000802'                                01-ISGYCON 
                         00000803            2049+ISGQUERYRSN_BADPLISTVERSION EQU X'00000803'                             01-ISGYCON 
                         00000804            2050+ISGQUERYRSN_RESERVEDFIELDNOTNULL EQU X'00000804'                        01-ISGYCON 
                         00000805            2051+ISGQUERYRSN_BADREQINFO EQU X'00000805'                                  01-ISGYCON 
                         00000806            2052+ISGQUERYRSN_BADRNL EQU X'00000806'                                      01-ISGYCON 
                         00000807            2053+ISGQUERYRSN_BADRNAMEADDRESS EQU X'00000807'                             01-ISGYCON 
                         00000808            2054+ISGQUERYRSN_BADRNAMEALET EQU X'00000808'                                01-ISGYCON 
                         00000809            2055+ISGQUERYRSN_BADRNAMELEN EQU X'00000809'                                 01-ISGYCON 
                         0000080A            2056+ISGQUERYRSN_BADRNLEADDRESS EQU X'0000080A'                              01-ISGYCON 
                         0000080B            2057+ISGQUERYRSN_BADRNLEALET EQU X'0000080B'                                 01-ISGYCON 
                         0000080C            2058+ISGQUERYRSN_MUTUALLYEXCLUSIVE EQU X'0000080C'                           01-ISGYCON 
                         0000080D            2059+ISGQUERYRSN_BADANSAREAADDRESS EQU X'0000080D'                           01-ISGYCON 
                         0000080E            2060+ISGQUERYRSN_BADANSAREAALET EQU X'0000080E'                              01-ISGYCON 
                         0000080F            2061+ISGQUERYRSN_BADSCANACTION EQU X'0000080F'                               01-ISGYCON 
1         ISGYCON  - Constants for users of GRS services                                                        Page   44            
   Active Usings: RETURN_STRUC,R3  ISGYQUAAHDR,R4  LTORG,R10  ISGQUERY,R11  CEECAA,R12  CEEDSA,R13                                   
0D-Loc    Object Code      Addr1    Addr2    Stmt  Source Statement                          HLASM R6.0  2012/03/05 10.22            
0                        00000810            2062+ISGQUERYRSN_BADRESUMETOKENADDRESS EQU X'00000810'                       01-ISGYCON 
                         00000811            2063+ISGQUERYRSN_BADRESUMETOKENALET EQU X'00000811'                          01-ISGYCON 
                         00000812            2064+ISGQUERYRSN_BADGATHERFROM EQU X'00000812'                               01-ISGYCON 
                         00000813            2065+ISGQUERYRSN_BADSEARCH EQU X'00000813'                                   01-ISGYCON 
                         00000814            2066+ISGQUERYRSN_BADENQTOKENADDRESS EQU X'00000814'                          01-ISGYCON 
                         00000815            2067+ISGQUERYRSN_BADENQTOKENALET EQU X'00000815'                             01-ISGYCON 
                         00000816            2068+ISGQUERYRSN_BADQNAMEMATCH EQU X'00000816'                               01-ISGYCON 
                         00000817            2069+ISGQUERYRSN_BADRNAMEMATCH EQU X'00000817'                               01-ISGYCON 
                         00000818            2070+ISGQUERYRSN_BADSCOPE EQU X'00000818'                                    01-ISGYCON 
                         00000819            2071+ISGQUERYRSN_BADSERIALIZEBY EQU X'00000819'                              01-ISGYCON 
                         0000081A            2072+ISGQUERYRSN_ANSLENTOOSMALL EQU X'0000081A'                              01-ISGYCON 
                         0000081B            2073+ISGQUERYRSN_RESUMETOKENNOTVALID EQU X'0000081B'                         01-ISGYCON 
                         0000081C            2074+ISGQUERYRSN_RESUMETOKENTOOOLD EQU X'0000081C'                           01-ISGYCON 
                         0000081D            2075+ISGQUERYRSN_ENQTOKENNOTVALID EQU X'0000081D'                            01-ISGYCON 
                         0000081E            2076+ISGQUERYRSN_BADREQUESTERLIMIT EQU X'0000081E'                           01-ISGYCON 
                         0000081F            2077+ISGQUERYRSN_NOPOSSIBLEMATCH EQU X'0000081F'                             01-ISGYCON 
                         00000820            2078+ISGQUERYRSN_BADANSDETAIL EQU X'00000820'                                01-ISGYCON 
                         00000821            2079+ISGQUERYRSN_NOTAUTHTOQSCAN EQU X'00000821'                              01-ISGYCON 
                         00000822            2080+ISGQUERYRSN_BADASID EQU X'00000822'                                     01-ISGYCON 
                         00000823            2081+ISGQUERYRSN_BADUSERDATAADDRESS EQU X'00000823'                          01-ISGYCON 
                         00000824            2082+ISGQUERYRSN_BADUSERDATAALET EQU X'00000824'                             01-ISGYCON 
                         00000825            2083+ISGQUERYRSN_BADUSERDATALEN EQU X'00000825'                              01-ISGYCON 
                         00000826            2084+ISGQUERYRSN_BADUSERDATAMATCH EQU X'00000826'                            01-ISGYCON 
                         0000000C            2085+ISGQUERYRC_ENVERROR EQU X'0000000C'                                     01-ISGYCON 
                         00000C01            2086+ISGQUERYRSN_SRBMODE EQU X'00000C01'                                     01-ISGYCON 
                         00000C02            2087+ISGQUERYRSN_NOTENABLED EQU X'00000C02'                                  01-ISGYCON 
                         00000C03            2088+ISGQUERYRSN_COMPLEXMIGRATING EQU X'00000C03'                            01-ISGYCON 
                         00000C04            2089+ISGQUERYRSN_CANNOTOBTAINLOCKS EQU X'00000C04'                           01-ISGYCON 
                         00000C05            2090+ISGQUERYRSN_LOCKHELD EQU X'00000C05'                                    01-ISGYCON 
                         00000C06            2091+ISGQUERYRSN_MAXCONCURRENTREQUESTS EQU X'00000C06'                       01-ISGYCON 
                         00000C07            2092+ISGQUERYRSN_RINGRESUMEINSTAR EQU X'00000C07'                            01-ISGYCON 
                         00000C08            2093+ISGQUERYRSN_INSUFFICIENTSTORAGE EQU X'00000C08'                         01-ISGYCON 
                         00000010            2094+ISGQUERYRC_COMPERROR EQU X'00000010'                                    01-ISGYCON 
                                             2095+*                                                                                  
                                             2096+*   ISGENQ Return and Reason Codes                                                 
                                             2097+*   (Note that the reason codes are of the form "xxxxYYYY" where                   
                                             2098+*    "xxxx" is used to contain the module id of the failing module.                
                                             2099+*    Module ids can be found in ISGYMT or ISGFID)                                  
                                             2100+*    Use ISGRsnCodeMask to remove the module id from the reason codes              
                                             2101+*                                                                                  
                                             2102+*                                                                                  
                                             2103+*                                                                                  
                         00000000            2104+ISGENQRC_OK EQU X'00000000'                                             01-ISGYCON 
                         00000004            2105+ISGENQRC_WARN EQU X'00000004'                                           01-ISGYCON 
                         00000401            2106+ISGENQRSN_NONZERORETURNCODES EQU X'00000401'                            01-ISGYCON 
                         00000402            2107+ISGENQRSN_REQUESTNOTPROCESSED EQU X'00000402'                           01-ISGYCON 
                         00000403            2108+ISGENQRSN_ECBWILLBEPOSTED EQU X'00000403'                               01-ISGYCON 
                         00000404            2109+ISGENQRSN_NOTIMMEDIATELYAVAILABLE EQU X'00000404'                       01-ISGYCON 
                         00000405            2110+ISGENQRSN_TASKOWNSEXCLUSIVE EQU X'00000405'                             01-ISGYCON 
                         00000406            2111+ISGENQRSN_TASKOWNSSHARED EQU X'00000406'                                01-ISGYCON 
                         00000407            2112+ISGENQRSN_TASKWAITING EQU X'00000407'                                   01-ISGYCON 
                         00000409            2113+ISGENQRSN_OTHERSHAREDOWNERS EQU X'00000409'                             01-ISGYCON 
                         0000040A            2114+ISGENQRSN_TASKDOESNOTOWN EQU X'0000040A'                                01-ISGYCON 
                         0000040B            2115+ISGENQRSN_TASKSUSPENDEDFORRESOURCE EQU X'0000040B'                      01-ISGYCON 
                         0000040D            2116+ISGENQRSN_UNPROTECTEDQNAME EQU X'0000040D'                              01-ISGYCON 
1         ISGYCON  - Constants for users of GRS services                                                        Page   45            
   Active Usings: RETURN_STRUC,R3  ISGYQUAAHDR,R4  LTORG,R10  ISGQUERY,R11  CEECAA,R12  CEEDSA,R13                                   
0D-Loc    Object Code      Addr1    Addr2    Stmt  Source Statement                          HLASM R6.0  2012/03/05 10.22            
0                        0000040E            2117+ISGENQRSN_UNPROTECTEDEXITQNAME EQU X'0000040E'                          01-ISGYCON 
                         0000040F            2118+ISGENQRSN_ECBATLEASTONEREQUESTFAILED EQU X'0000040F'                    01-ISGYCON 
                         00000008            2119+ISGENQRC_PARMERROR EQU X'00000008'                                      01-ISGYCON 
                         00000801            2120+ISGENQRSN_BADPLISTADDRESS EQU X'00000801'                               01-ISGYCON 
                         00000802            2121+ISGENQRSN_BADPLISTALET EQU X'00000802'                                  01-ISGYCON 
                         00000803            2122+ISGENQRSN_BADPLISTVERSION EQU X'00000803'                               01-ISGYCON 
                         00000804            2123+ISGENQRSN_RESERVEDFIELDNOTNULL EQU X'00000804'                          01-ISGYCON 
                         00000805            2124+ISGENQRSN_MUTUALLYEXCLUSIVE EQU X'00000805'                             01-ISGYCON 
                         00000806            2125+ISGENQRSN_BADREQUEST EQU X'00000806'                                    01-ISGYCON 
                         00000807            2126+ISGENQRSN_BADCONTENTIONACT EQU X'00000807'                              01-ISGYCON 
                         00000808            2127+ISGENQRSN_BADOWNINGTTOKEN EQU X'00000808'                               01-ISGYCON 
                         00000809            2128+ISGENQRSN_BADANSAREAADDRESS EQU X'00000809'                             01-ISGYCON 
                         0000080A            2129+ISGENQRSN_BADANSAREAALET EQU X'0000080A'                                01-ISGYCON 
                         0000080B            2130+ISGENQRSN_ANSLENTOOSMALL EQU X'0000080B'                                01-ISGYCON 
                         0000080C            2131+ISGENQRSN_BADRNAMEADDRESS EQU X'0000080C'                               01-ISGYCON 
                         0000080D            2132+ISGENQRSN_BADRNAMEALET EQU X'0000080D'                                  01-ISGYCON 
                         0000080E            2133+ISGENQRSN_BADRNAMELEN EQU X'0000080E'                                   01-ISGYCON 
                         0000080F            2134+ISGENQRSN_BADSCOPE EQU X'0000080F'                                      01-ISGYCON 
                         00000810            2135+ISGENQRSN_BADUCB@ EQU X'00000810'                                       01-ISGYCON 
                         00000811            2136+ISGENQRSN_BADCOND EQU X'00000811'                                       01-ISGYCON 
                         00000812            2137+ISGENQRSN_BADSYNCHRES EQU X'00000812'                                   01-ISGYCON 
                         00000813            2138+ISGENQRSN_BADENQTOKENADDRESS EQU X'00000813'                            01-ISGYCON 
                         00000814            2139+ISGENQRSN_BADENQTOKENALET EQU X'00000814'                               01-ISGYCON 
                         00000815            2140+ISGENQRSN_BADENQTOKEN EQU X'00000815'                                   01-ISGYCON 
                         00000816            2141+ISGENQRSN_BADNUMRES EQU X'00000816'                                     01-ISGYCON 
                         00000817            2142+ISGENQRSN_BADRESTABLEADDRESS EQU X'00000817'                            01-ISGYCON 
                         00000818            2143+ISGENQRSN_BADRESTABLEALET EQU X'00000818'                               01-ISGYCON 
                         00000819            2144+ISGENQRSN_BADRESTABLE EQU X'00000819'                                   01-ISGYCON 
                         0000081A            2145+ISGENQRSN_BADENQTOKENTBLADDRESS EQU X'0000081A'                         01-ISGYCON 
                         0000081B            2146+ISGENQRSN_BADENQTOKENTBLALET EQU X'0000081B'                            01-ISGYCON 
                         0000081C            2147+ISGENQRSN_BADRETURNTABLEADDRESS EQU X'0000081C'                         01-ISGYCON 
                         0000081D            2148+ISGENQRSN_BADRETURNTABLEALET EQU X'0000081D'                            01-ISGYCON 
                         0000081E            2149+ISGENQRSN_NOTAUTHORIZEDFORQNAME EQU X'0000081E'                         01-ISGYCON 
                         0000081F            2150+ISGENQRSN_NOTAUTHORIZEDFOREXITQNAME EQU X'0000081F'                     01-ISGYCON 
                         00000820            2151+ISGENQRSN_NOTAUTHORIZEDFORECB EQU X'00000820'                           01-ISGYCON 
                         00000821            2152+ISGENQRSN_NOTAUTHORIZEDFOROWNINGTTOKEN EQU X'00000821'                  01-ISGYCON 
                         00000822            2153+ISGENQRSN_BADUSERDATAADDRESS EQU X'00000822'                            01-ISGYCON 
                         00000823            2154+ISGENQRSN_BADUSERDATAALET EQU X'00000823'                               01-ISGYCON 
                         00000824            2155+ISGENQRSN_DEVICENOTALLOCATED EQU X'00000824'                            01-ISGYCON 
                         00000825            2156+ISGENQRSN_EXITDEVICENOTALLOCATED EQU X'00000825'                        01-ISGYCON 
                         00000826            2157+ISGENQRSN_BADCONTROL EQU X'00000826'                                    01-ISGYCON 
                         00000827            2158+ISGENQRSN_BADEXITUCB@ EQU X'00000827'                                   01-ISGYCON 
                         00000828            2159+ISGENQRSN_NOTAUTHORIZEDFORENQMAX EQU X'00000828'                        01-ISGYCON 
                         0000000C            2160+ISGENQRC_ENVERROR EQU X'0000000C'                                       01-ISGYCON 
                         00000C01            2161+ISGENQRSN_REQUESTLIMITEXCEEDED EQU X'00000C01'                          01-ISGYCON 
                         00000C05            2162+ISGENQRSN_ABENDINEXIT EQU X'00000C05'                                   01-ISGYCON 
                         00000C0A            2163+ISGENQRSN_TASKENDING EQU X'00000C0A'                                    01-ISGYCON 
                         00000C0B            2164+ISGENQRSN_FRRHELD EQU X'00000C0B'                                       01-ISGYCON 
                         00000C0C            2165+ISGENQRSN_LOCKHELD EQU X'00000C0C'                                      01-ISGYCON 
                         00000C0D            2166+ISGENQRSN_SRBMODE EQU X'00000C0D'                                       01-ISGYCON 
                         00000C0E            2167+ISGENQRSN_NOTENABLED EQU X'00000C0E'                                    01-ISGYCON 
                         00000C0F            2168+ISGENQRSN_MASIDTARGET EQU X'00000C0F'                                   01-ISGYCON 
                         00000010            2169+ISGENQRC_COMPERROR EQU X'00000010'                                      01-ISGYCON 
                         00001002            2170+ISGENQRSN_CANNOTOBTAINHOMESTORAGE EQU X'00001002'                       01-ISGYCON 
                         00001003            2171+ISGENQRSN_CANNOTOBTAINCOMMONSTORAGE EQU X'00001003'                     01-ISGYCON 
1         ISGYCON  - Constants for users of GRS services                                                        Page   46            
   Active Usings: RETURN_STRUC,R3  ISGYQUAAHDR,R4  LTORG,R10  ISGQUERY,R11  CEECAA,R12  CEEDSA,R13                                   
0D-Loc    Object Code      Addr1    Addr2    Stmt  Source Statement                          HLASM R6.0  2012/03/05 10.22            
0                        00001004            2172+ISGENQRSN_CANNOTOBTAINPRIMARYALET EQU X'00001004'                       01-ISGYCON 
                         00001006            2173+ISGENQRSN_SYNCHRESFLUSHFAILED EQU X'00001006'                           01-ISGYCON 
                         00001007            2174+ISGENQRSN_RESERVESTARTFAILED EQU X'00001007'                            01-ISGYCON 
                         00001008            2175+ISGENQRSN_RESERVECOUNTOVERFLOW EQU X'00001008'                          01-ISGYCON 
                         00001009            2176+ISGENQRSN_CANNOTOBTAINDSQE EQU X'00001009'                              01-ISGYCON 
                         0000100A            2177+ISGENQRSN_RESERVEDONEFAILED EQU X'0000100A'                             01-ISGYCON 
                         0000100B            2178+ISGENQRSN_CANNOTOBTAINPRIMARYSTORAGE EQU X'0000100B'                    01-ISGYCON 
                                             2179+*                                                                                  
                                             2180+*   ISGADMIN Return and Reason Codes                                               
                                             2181+*   (Note that the reason codes are of the form "xxxxYYYY" where                   
                                             2182+*    "xxxx" is used to contain the module id of the failing module.                
                                             2183+*    Module ids can be found in ISGYMT or ISGFID)                                  
                                             2184+*    Use ISGRsnCodeMask to remove the module id from the reason codes              
                                             2185+*                                                                                  
                                             2186+*                                                                                  
                                             2187+*                                                                                  
                         00000000            2188+ISGADMINRC_OK EQU X'00000000'                                           01-ISGYCON 
                         00000004            2189+ISGADMINRC_WARN EQU X'00000004'                                         01-ISGYCON 
                         00000401            2190+ISGADMINRSN_ENQMAXVALUELOW EQU X'00000401'                              01-ISGYCON 
                         00000402            2191+ISGADMINRSN_RESETENQMAXIGNORED EQU X'00000402'                          01-ISGYCON 
                         00000008            2192+ISGADMINRC_PARMERROR EQU X'00000008'                                    01-ISGYCON 
                         00000801            2193+ISGADMINRSN_BADPLISTADDRESS EQU X'00000801'                             01-ISGYCON 
                         00000802            2194+ISGADMINRSN_BADPLISTALET EQU X'00000802'                                01-ISGYCON 
                         00000803            2195+ISGADMINRSN_BADPLISTVERSION EQU X'00000803'                             01-ISGYCON 
                         00000804            2196+ISGADMINRSN_RESERVEDFIELDNOTNULL EQU X'00000804'                        01-ISGYCON 
                         00000805            2197+ISGADMINRSN_BADREQUEST EQU X'00000805'                                  01-ISGYCON 
                         00000806            2198+ISGADMINRSN_ENQMAXVALUETOOLOW EQU X'00000806'                           01-ISGYCON 
                         00000807            2199+ISGADMINRSN_BADMOVINGWAITERADDRESS EQU X'00000807'                      01-ISGYCON 
                         00000808            2200+ISGADMINRSN_BADMOVINGWAITERALET EQU X'00000808'                         01-ISGYCON 
                         00000809            2201+ISGADMINRSN_BADMOVINGWAITER EQU X'00000809'                             01-ISGYCON 
                         0000080A            2202+ISGADMINRSN_BADBEFOREREQUESTERADDRESS EQU X'0000080A'                   01-ISGYCON 
                         0000080B            2203+ISGADMINRSN_BADBEFOREREQUESTERALET EQU X'0000080B'                      01-ISGYCON 
                         0000080C            2204+ISGADMINRSN_BADBEFOREREQUESTER EQU X'0000080C'                          01-ISGYCON 
                         0000080D            2205+ISGADMINRSN_SAMEREQUESTER EQU X'0000080D'                               01-ISGYCON 
                         0000080E            2206+ISGADMINRSN_INCONSISTENTRESOURCE EQU X'0000080E'                        01-ISGYCON 
                         0000080F            2207+ISGADMINRSN_BADSCOPE EQU X'0000080F'                                    01-ISGYCON 
                         00000810            2208+ISGADMINRSN_BADCONTROL EQU X'00000810'                                  01-ISGYCON 
                         00000811            2209+ISGADMINRSN_CANNOTMOVEOWNER EQU X'00000811'                             01-ISGYCON 
                         00000812            2210+ISGADMINRSN_ALREADYBEFOREREQUESTER EQU X'00000812'                      01-ISGYCON 
                         00000813            2211+ISGADMINRSN_CANNOTMOVEBEFOREOWNER EQU X'00000813'                       01-ISGYCON 
                         00000814            2212+ISGADMINRSN_CANNOTMOVEAFTERSHAREDOWNER EQU X'00000814'                  01-ISGYCON 
                         00000815            2213+ISGADMINRSN_CANNOTMAKEANOTHEROWNER EQU X'00000815'                      01-ISGYCON 
                         00000816            2214+ISGADMINRSN_ALREADYLASTREQUESTER EQU X'00000816'                        01-ISGYCON 
                         00000817            2215+ISGADMINRSN_CANNOTMOVEMASIDUSER EQU X'00000817'                         01-ISGYCON 
                         00000818            2216+ISGADMINRSN_MASIDCONTROLCONFLICT EQU X'00000818'                        01-ISGYCON 
                         0000000C            2217+ISGADMINRC_ENVERROR EQU X'0000000C'                                     01-ISGYCON 
                         00000C01            2218+ISGADMINRSN_NOTAUTHORIZED EQU X'00000C01'                               01-ISGYCON 
                         00000C02            2219+ISGADMINRSN_FRRHELD EQU X'00000C02'                                     01-ISGYCON 
                         00000C03            2220+ISGADMINRSN_LOCKHELD EQU X'00000C03'                                    01-ISGYCON 
                         00000C04            2221+ISGADMINRSN_SRBMODE EQU X'00000C04'                                     01-ISGYCON 
                         00000C05            2222+ISGADMINRSN_NOTENABLED EQU X'00000C05'                                  01-ISGYCON 
                         00000C06            2223+ISGADMINRSN_QUEUEDAMAGE1 EQU X'00000C06'                                01-ISGYCON 
                         00000C07            2224+ISGADMINRSN_QUEUEDAMAGE2 EQU X'00000C07'                                01-ISGYCON 
                         00000010            2225+ISGADMINRC_COMPERROR EQU X'00000010'                                    01-ISGYCON 
                                             2226+*                                                                                  
1         ISGYCON  - Constants for users of GRS services                                                        Page   47            
   Active Usings: RETURN_STRUC,R3  ISGYQUAAHDR,R4  LTORG,R10  ISGQUERY,R11  CEECAA,R12  CEEDSA,R13                                   
0D-Loc    Object Code      Addr1    Addr2    Stmt  Source Statement                          HLASM R6.0  2012/03/05 10.22            
0                                            2227+* ********************************************************************             
                                             2228+* * Declares for ENQMAXx values in GRSCNFxx, SETGRS, and ISGADMIN:   *             
                                             2229+* * These are smallest possible maximums for authorized and          *             
                                             2230+* * unauthorized requesters, to help prevent the installation        *             
                                             2231+* * from inadvertently causing excessive ABEND538s.                                
                                             2232+* ********************************************************************             
                                             2233+*                                                                                  
                                             2234+*                                                                                  
                         0003D090            2235+ENQMAXA_SMALLESTMAXIMUM EQU 250000                                      01-ISGYCON 
                         00004000            2236+ENQMAXU_SMALLESTMAXIMUM EQU 16384                                       01-ISGYCON 
                                             2237          ISGRNLE                                                                   
                                             2238+**/                                                                                
                                             2239+*%PLSRNLE: ;                                                                       
                                             2240+*/** START OF SPECIFICATIONS  *****************************************            
                                             2241+*                                                                                  
                                             2242+*01*  MACRO-NAME = ISGRNLE                                                         
                                             2243+*                                                                                  
                                             2244+*01*  MACRO-DATE = 11/10/03                                        @P1C            
                                             2245+*                                                                                  
                                             2246+*01*  DESCRIPTIVE-NAME = RESOURCE NAME LIST ENTRY                                  
                                             2247+*                                                                                  
                                             2248+*01*  DSECT NAME = RNLE, RNL_HEADER                                                
                                             2249+*                                                                                  
                                             2250+*01*  COMPONENT = GLOBAL RESOURCE SERIALIZATION (SCSDS)                            
                                             2251+*                                                                                  
                                             2252+*01*  PROPRIETARY STATEMENT =                                                      
                                             2253+*                                                                                  
                                             2254+*     LICENSED MATERIALS - PROPERTY OF IBM                                         
                                             2255+*     "RESTRICTED MATERIALS OF IBM"                                                
                                             2256+*     5694-A01                                                                     
                                             2257+*     (C) COPYRIGHT IBM CORP. 1982,  2004                                          
                                             2258+*                                                                                  
                                             2259+*01*  STATUS = HBB7709                                                             
                                             2260+*                                                                                  
                                             2261+*01*  EXTERNAL CLASSIFICATION: PI                                                  
                                             2262+*01*  END OF EXTERNAL CLASSIFICATION:                                              
                                             2263+*                                                                                  
                                             2264+*01*  FUNCTION = DEFINES RESOURCES THAT ARE TO BE INCLUDED OR                      
                                             2265+*                EXCLUDED FROM GLOBAL RESOURCE SERIALIZATION AND ALSO              
                                             2266+*                DEFINES RESERVE RESOURCES THAT ARE TO BE CONVERTED TO             
                                             2267+*                GLOBAL ENQS                                                       
                                             2268+*                                                                                  
                                             2269+*01*  METHOD-OF-ACCESS = PLS - DCL RNLE PTR(31)                                    
                                             2270+*                              %INCLUDE SYSLIB(ISGRNLE)                            
                                             2271+*                        BAL - DSECT IS PRODUCED REQUIRING A                       
                                             2272+*                              USING ON THE RNLE.                                  
                                             2273+*                                                                                  
                                             2274+*01*  CREATED-BY = THE RNLES ARE CREATED BY ISGNRNLP AT SYSTEM                     
                                             2275+*                  INITIALIZATION OR BY ISGCRNLP DURING A DYNAMIC RNL              
                                             2276+*                  CHANGE.                                                         
                                             2277+*                                                                                  
                                             2278+*01* STORAGE ATTRIBUTES:                                                           
                                             2279+*02*  SUBPOOL = 245                                                                
                                             2280+*02*  KEY = 0                                                                      
                                             2281+*02*  RESIDENCY = ABOVE THE 16M LINE                                               
1         ISGYCON  - Constants for users of GRS services                                                        Page   48            
   Active Usings: RETURN_STRUC,R3  ISGYQUAAHDR,R4  LTORG,R10  ISGQUERY,R11  CEECAA,R12  CEEDSA,R13                                   
0D-Loc    Object Code      Addr1    Addr2    Stmt  Source Statement                          HLASM R6.0  2012/03/05 10.22            
0                                            2282+*                                                                                  
                                             2283+*01* SIZE = 10 BYTES + VARIABLE LENGTH RNAME                                       
                                             2284+*                                                                                  
                                             2285+*01* EYE-CATCHER:  N/A                                                             
                                             2286+*02*  OFFSET:  N/A                                                                 
                                             2287+*02*  LENGTH:  N/A                                                                 
                                             2288+*                                                                                  
                                             2289+*01*  DELETED-BY = AFTER A DYNAMIC RNL CHANGE, THE OLD RNLS ARE                    
                                             2290+*                  DELETED BY ISGCIRC, ISGCIRS, ISGCPRC, ISGCPRS,                  
                                             2291+*                  DEPENDING ON THE GRS MODE AND WHETHER OR NOT THE                
                                             2292+*                  SYSTEM INITIATED OR PARTICIPATED THE RNL CHANGE.                
                                             2293+*                                                                                  
                                             2294+*01*  POINTED-TO-BY = THERE ARE THREE LISTS OF RNLES:                              
                                             2295+*                     GVTSERNL POINTS TO THE FIRST RNLE IN THE                     
                                             2296+*                       SYSTEMS EXCLUSION LIST                                     
                                             2297+*                     GVTSIRNL POINTS TO THE FIRST RNLE IN THE                     
                                             2298+*                       SYSTEM INCLUSION LIST                                      
                                             2299+*                     GVTRCRNL POINTS TO THE FIRST RNLE IN THE                     
                                             2300+*                       RESERVE CONVERSION LIST                                    
                                             2301+*                                                                                  
                                             2302+*01*  SERIALIZATION = CHANGES TO THE RNLS ARE SERIALIZED BY THE                    
                                             2303+*                     CMSEQDQ LOCK                                                 
                                             2304+*                                                                                  
                                             2305+*01*  CHANGE-ACTIVITY =                                                            
                                             2306+*$L1=RNLPRMLB,JBB2125,820608,PD1M: RNLS IN PARMLIB                 @L1A            
                                             2307+*$L2=GRSW1   ,HBB4410,890206,PDDX: GRSRNL=EXCLUDE SUPPORT          @L2A            
                                             2308+*$L3=GRSW1   ,HBB4410,890403,PDEN: ADD RNLEFXDP                    @L3A            
                                             2309+*$L4=DRNL    ,HBB4410,891127,PDEN: ADD RNL_HEADER                  @L4A            
                                             2310+*$L5=GRSWC   ,HBB7705,991128,PDWL: ADD PATTERN ENTRIES             @L5A            
                                             2311+*$P0=PX00029 ,HBB7705,000105,PDWI: REMOVE RNLESPEC BIT             @P0A            
                                             2312+*$P1=PJK0745 ,HBB7709,031110,PDFX: GENERAL DOC CHANGES                             
                                             2313+*                                                                                  
                                             2314+******  END OF SPECIFICATIONS  ***************************************/            
                                             2315+*/*A000000-999999                                            @G381PYC*/            
                                             2316+*        %GOTO PLSRNLE1;                                             /*            
 00000000                00000000 0000000A   2317+RNLE     DSECT                            RNLE ENTRY                    01-ISGRNLE 
 00000000                                    2318+RNLEFXDP DS    0CL10                      FIXED PORTION OF RNLE    @L3A 01-ISGRNLE 
 00000000                                    2319+RNLEFLGS DS    B                          FLAG BYTE                     01-ISGRNLE 
                         00000080            2320+RNLELAST EQU   X'80'                      WHEN 1, THIS IS A DUMMY RNLE  01-ISGRNLE 
                                             2321+*                                         INDICATING THE END OF THE                
                                             2322+*                                         LIST                     @P1C            
                         00000040            2323+RNLEGENR EQU   X'40'                      WHEN 1, GENERIC ENTRY         01-ISGRNLE 
                         00000020            2324+RNLEXALL EQU   X'20'                      WHEN 1, GRSRNL=EXCLUDE,       01-ISGRNLE 
                                             2325+*                                         INDICATED ON A DUMMY RNLE                
                                             2326+*                                                                  @P1C            
                         00000010            2327+RNLEPATT EQU   X'10'                      WHEN 1, PATTERN ENTRY    @L5C 01-ISGRNLE 
                         00000008            2328+RNLEFR04 EQU   X'08'                      RESERVED                 @P0C 01-ISGRNLE 
                         00000004            2329+RNLEFR03 EQU   X'04'                      RESERVED                      01-ISGRNLE 
                         00000002            2330+RNLEFR02 EQU   X'02'                      RESERVED                      01-ISGRNLE 
                         00000001            2331+RNLEFR01 EQU   X'01'                      RESERVED                      01-ISGRNLE 
 00000001                                    2332+RNLERNML DS    AL(1)                      LENGTH OF RNAME               01-ISGRNLE 
 00000002                                    2333+RNLEQNME DS    CL8                        QNAME                         01-ISGRNLE 
 0000000A                                    2334+RNLERNME DS    0C                         RNAME (VARIABLE LENGTH)       01-ISGRNLE 
                                             2335+*                                                                                  
 00000000                00000000 0000000C   2336+RNL_HEADDR  DSECT                         RNL HEADER              3@L4A 01-ISGRNLE 
1         ISGYCON  - Constants for users of GRS services                                                        Page   49            
   Active Usings: RETURN_STRUC,R3  ISGYQUAAHDR,R4  LTORG,R10  ISGQUERY,R11  CEECAA,R12  CEEDSA,R13                                   
0D-Loc    Object Code      Addr1    Addr2    Stmt  Source Statement                          HLASM R6.0  2012/03/05 10.22            
000000000                                    2337+RNLTYPE  DS CL8                           TYPE OF RNL                   01-ISGRNLE 
 00000008                                    2338+RNL_LENGTH   DS F                         LENGTH OF RNL                 01-ISGRNLE 
 00000000                00000000 00000090   2339 GQDSECT  DSECT                                                                     
                                             2340          ISGQUERY MF=(L,GQSCAN)                                                    
                                             2341+*                    MACDATE -02/27/08-<2>                                         
                                             2342+              PUSH  PRINT                                               01-ISGQUERY
                                             2343+                    PRINT ON                                            01-ISGQUERY
                         00000000            2344+M00M0023 EQU   GQSCAN             ++ ISGQUERY NAME                      01-ISGQUERY
 00000000                                    2345+GQSCAN   DS    0D                 ++ ISGQUERY PARM LIST                 01-ISGQUERY
 00000000                                    2346+GQSCAN_XVERSION DS XL1            ++ INPUT XVERSION                     01-ISGQUERY
 00000001                                    2347+GQSCAN_XREQINFO DS XL1            ++  XREQINFO                          01-ISGQUERY
                         00000001            2348+GQSCAN_XREQINFO_RNLSEARCH EQU 1   ++ XREQINFO.RNLSEARCH KEYWORD         01-ISGQUERY
                         00000002            2349+GQSCAN_XREQINFO_QSCAN EQU 2       ++ XREQINFO.QSCAN KEYWORD             01-ISGQUERY
                         00000003            2350+GQSCAN_XREQINFO_ENQSTATS EQU 3    ++ XREQINFO.ENQSTATS KEYWORD          01-ISGQUERY
 00000002                                    2351+GQSCAN_XSCOPE DS XL1              ++  XSCOPE                            01-ISGQUERY
                         00000000            2352+GQSCAN_XSCOPE_ANY EQU 0           ++ XSCOPE.ANY KEYWORD                 01-ISGQUERY
                         00000001            2353+GQSCAN_XSCOPE_STEP EQU 1          ++ XSCOPE.STEP KEYWORD                01-ISGQUERY
                         00000002            2354+GQSCAN_XSCOPE_SYSTEM EQU 2        ++ XSCOPE.SYSTEM KEYWORD              01-ISGQUERY
                         00000003            2355+GQSCAN_XSCOPE_SYSTEMS EQU 3       ++ XSCOPE.SYSTEMS KEYWORD             01-ISGQUERY
                         00000003            2356+GQSCAN_XSCOPE_SYSPLEX EQU 3       ++ XSCOPE.SYSPLEX KEYWORD             01-ISGQUERY
 00000003                                    2357+GQSCAN_XSCANACTION DS XL1         ++  XSCANACTION                       01-ISGQUERY
                         00000001            2358+GQSCAN_XSCANACTION_START EQU 1    ++ XSCANACTION.START KEYWORD          01-ISGQUERY
                         00000002            2359+GQSCAN_XSCANACTION_RESUME EQU 2   ++ XSCANACTION.RESUME KEYWORD         01-ISGQUERY
                         00000003            2360+GQSCAN_XSCANACTION_QUIT EQU 3     ++ XSCANACTION.QUIT KEYWORD           01-ISGQUERY
 00000004                                    2361+GQSCAN_XFLAGS1 DS BL.8            ++ FIELD_LABEL                        01-ISGQUERY
                         00000080            2362+GQSCAN_XQNAMEMATCH_PATTERN EQU B'10000000'                             X01-ISGQUERY
                                                 +                                  ++ XQNAMEMATCH.PATTERN KEYWORD                   
                         00000040            2363+GQSCAN_XRNAMEMATCH_SPECIFIC EQU B'01000000'                            X01-ISGQUERY
                                                 +                                  ++ XRNAMEMATCH.SPECIFIC KEYWORD                  
                         00000020            2364+GQSCAN_XRNAMEMATCH_PATTERN EQU B'00100000'                             X01-ISGQUERY
                                                 +                                  ++ XRNAMEMATCH.PATTERN KEYWORD                   
                         00000010            2365+GQSCAN_XSERIALIZEBY_RESERVE EQU B'00010000'                            X01-ISGQUERY
                                                 +                                  ++ XSERIALIZEBY.RESERVE KEYWORD                  
                         00000008            2366+GQSCAN_XSERIALIZEBY_ENQ_ONLY EQU B'00001000'                           X01-ISGQUERY
                                                 +                                  ++ XSERIALIZEBY.ENQ_ONLY KEYWORD                 
                         00000004            2367+GQSCAN_XUSERDATAMATCH_SPECIFIC EQU B'00000100'                         X01-ISGQUERY
                                                 +                                  ++ XUSERDATAMATCH.SPECIFIC KEYWORD               
                         00000002            2368+GQSCAN_XUSERDATAMATCH_PATTERN EQU B'00000010'                          X01-ISGQUERY
                                                 +                                  ++ XUSERDATAMATCH.PATTERN KEYWORD                
                         00000001            2369+GQSCAN_XMINREQUESTERS_NO_MINREQ EQU B'00000001'                        X01-ISGQUERY
                                                 +                                  ++ XMINREQUESTERS.NO_MINREQ KEYWORD              
 00000005                                    2370+GQSCAN_XFLAGS2 DS BL.8            ++ FIELD_LABEL                        01-ISGQUERY
                         00000001            2371+GQSCAN_XMINOWNERS_NO_MINOWN EQU B'00000001'                            X01-ISGQUERY
                                                 +                                  ++ XMINOWNERS.NO_MINOWN KEYWORD                  
 00000006                                    2372+GQSCAN_XFLAGS3 DS BL.8            ++ FIELD_LABEL                        01-ISGQUERY
                         00000001            2373+GQSCAN_XMINWAITERS_NO_MINWAIT EQU B'00000001'                          X01-ISGQUERY
                                                 +                                  ++ XMINWAITERS.NO_MINWAIT KEYWORD                
 00000007                                    2374+GQSCAN_XRSV0100 DS CL1            ++ RESERVED                           01-ISGQUERY
 00000008                                    2375+GQSCAN_XTTOKEN DS CL16            ++                                    01-ISGQUERY
 00000018                                    2376+GQSCAN_XQNAME DS CL8              ++                                    01-ISGQUERY
 00000020                                    2377+GQSCAN_XSYSNAME DS CL8            ++                                    01-ISGQUERY
 00000028                                    2378+GQSCAN_XJOBNAME DS CL8            ++                                    01-ISGQUERY
 00000030                                    2379+GQSCAN_XRNAME_ADDR3164 DS AD      ++  ADDR3164                          01-ISGQUERY
 00000038                                    2380+GQSCAN_XRNLE_ADDR3164 DS AD       ++  ADDR3164                          01-ISGQUERY
 00000040                                    2381+GQSCAN_XANSAREA_ADDR3164 DS AD    ++  ADDR3164                          01-ISGQUERY
1         ISGYCON  - Constants for users of GRS services                                                        Page   50            
   Active Usings: RETURN_STRUC,R3  ISGYQUAAHDR,R4  LTORG,R10  ISGQUERY,R11  CEECAA,R12  CEEDSA,R13                                   
0D-Loc    Object Code      Addr1    Addr2    Stmt  Source Statement                          HLASM R6.0  2012/03/05 10.22            
000000048                                    2382+GQSCAN_XENQTOKEN_ADDR3164 DS AD   ++  ADDR3164                          01-ISGQUERY
 00000050                                    2383+GQSCAN_XRESUMETOKEN_ADDR3164 DS AD                                     X01-ISGQUERY
                                                 +                                  ++  ADDR3164                                     
 00000058                                    2384+GQSCAN_XRNAME_ALET DS F           ++  ALET                              01-ISGQUERY
 0000005C                                    2385+GQSCAN_XRNLE_ALET DS F            ++  ALET                              01-ISGQUERY
 00000060                                    2386+GQSCAN_XANSAREA_ALET DS F         ++  ALET                              01-ISGQUERY
 00000064                                    2387+GQSCAN_XENQTOKEN_ALET DS F        ++  ALET                              01-ISGQUERY
 00000068                                    2388+GQSCAN_XRESUMETOKEN_ALET DS F     ++  ALET                              01-ISGQUERY
 0000006C                                    2389+GQSCAN_XANSLEN DS F               ++                                    01-ISGQUERY
 00000070                                    2390+GQSCAN_XMINREQUESTERS DS F        ++                                    01-ISGQUERY
 00000074                                    2391+GQSCAN_XMINOWNERS DS F            ++                                    01-ISGQUERY
 00000078                                    2392+GQSCAN_XMINWAITERS DS F           ++                                    01-ISGQUERY
 0000007C                                    2393+GQSCAN_XREQUESTERLIMIT DS XL2     ++                                    01-ISGQUERY
 0000007E                                    2394+GQSCAN_XASID DS XL2               ++                                    01-ISGQUERY
 00000080                                    2395+GQSCAN_XRNAMELEN DS XL1           ++                                    01-ISGQUERY
 00000081                                    2396+GQSCAN_XANSDETAIL DS XL1          ++  XANSDETAIL                        01-ISGQUERY
                         00000001            2397+GQSCAN_XANSDETAIL_SUMMARY EQU 1   ++ XANSDETAIL.SUMMARY KEYWORD         01-ISGQUERY
                         00000002            2398+GQSCAN_XANSDETAIL_FULL EQU 2      ++ XANSDETAIL.FULL KEYWORD            01-ISGQUERY
                         00000003            2399+GQSCAN_XANSDETAIL_FULL2 EQU 3     ++ XANSDETAIL.FULL2 KEYWORD           01-ISGQUERY
                         00000004            2400+GQSCAN_XANSDETAIL_FULL3 EQU 4     ++ XANSDETAIL.FULL3 KEYWORD           01-ISGQUERY
 00000082                                    2401+GQSCAN_XSEARCH DS XL1             ++  XSEARCH                           01-ISGQUERY
                         00000001            2402+GQSCAN_XSEARCH_BY_FILTER EQU 1    ++ XSEARCH.BY_FILTER KEYWORD          01-ISGQUERY
                         00000002            2403+GQSCAN_XSEARCH_BY_ENQTOKEN EQU 2  ++ XSEARCH.BY_ENQTOKEN KEYWORD        01-ISGQUERY
 00000083                                    2404+GQSCAN_XGATHERFROM DS XL1         ++  XGATHERFROM                       01-ISGQUERY
                         00000000            2405+GQSCAN_XGATHERFROM_SYSTEM EQU 0   ++ XGATHERFROM.SYSTEM KEYWORD         01-ISGQUERY
                         00000001            2406+GQSCAN_XGATHERFROM_SYSPLEX EQU 1  ++ XGATHERFROM.SYSPLEX KEYWORD        01-ISGQUERY
 00000084                                    2407+GQSCAN_XRNL DS XL1                ++  XRNL                              01-ISGQUERY
                         00000001            2408+GQSCAN_XRNL_SIRNL EQU 1           ++ XRNL.SIRNL KEYWORD                 01-ISGQUERY
                         00000002            2409+GQSCAN_XRNL_SERNL EQU 2           ++ XRNL.SERNL KEYWORD                 01-ISGQUERY
                         00000003            2410+GQSCAN_XRNL_RCRNL EQU 3           ++ XRNL.RCRNL KEYWORD                 01-ISGQUERY
 00000085                                    2411+GQSCAN_XRSV0200 DS CL1            ++ RESERVED                           01-ISGQUERY
 00000086                                    2412+GQSCAN_XUSERDATALEN DS XL2        ++                                    01-ISGQUERY
 00000088                                    2413+GQSCAN_XRSVNNNN DS CL8            ++ RESERVED                           01-ISGQUERY
                         00000090            2414+GQSCAN_PL_END EQU *               ++ END OF BASE PLIST                  01-ISGQUERY
                         00000090            2415+GQSCANL  EQU   *-GQSCAN           ++ LENGTH OF PLIST                    01-ISGQUERY
0                                            2417+         POP   PRINT                                                    01-ISGQUERY
                                             2418+*                                            ISGQUERY-2                            
000000000                00000000 00000139   2420 RETURN_STRUC DSECT                                                                 
 00000000                                    2421 RTN_QNAME DS   CL8                ISGYQUAARSQNAME                                  
 00000008                                    2422 RTN_JOBNAME DS CL8                ISGYQUAARQXJOBNAME                               
 00000010                                    2423 RTN_RLEN DS    F                  ISGYQUAARSRNAMELEN                               
 00000014                                    2424 RTN_SYSNAME DS CL8                ISGYQUAARQXSYSNAME                               
 0000001C                                    2425 RTN_EXCSHR DS  CL8                ISGYQUAARQFLAGS1                                 
                                             2426 *ISGYQUAARQCONTROL EQ X'80'       ON-SHARED                                        
                                             2427 *ISGYQUAARQOWNER   EQ X'08'                                                        
                                             2428 *ISGYQUAARQMATU    EQ X'04'                                                        
 00000024                                    2429 RTN_STATUS DS  CL8                                                                 
 0000002C                                    2430 RTN_SCOPE  DS  CL8                ISGYQUAARSSCOPE                                  
                                             2431 * ISGYQUAA_KSTEP                                                                   
                                             2432 * ISGYQUAA_KSYSTEM                                                                 
                                             2433 * ISGYQUAA_KSYSPLEX                                                                
 00000034                                    2434 RTN_TCB  DS    A                                                                   
 00000038                                    2435 RTN_ASID DS    H                                                                   
1         ISGYCON  - Constants for users of GRS services                                                        Page   51            
   Active Usings: RETURN_STRUC,R3  ISGYQUAAHDR,R4  LTORG,R10  ISGQUERY,R11  CEECAA,R12  CEEDSA,R13                                   
0D-Loc    Object Code      Addr1    Addr2    Stmt  Source Statement                          HLASM R6.0  2012/03/05 10.22            
00000003A                                    2436 RTN_RNAME DS   CL255                                                               
                         00000139            2437 RTN_NEXT EQU   *                                                                   
 00000000                                    2438          END   ISGQUERY                                                            
1                               Ordinary Symbol and Literal Cross Reference                                     Page   52            
-Symbol   Length   Value     Id    R Type Asm  Program   Defn References                     HLASM R6.0  2012/03/05 10.22            
0@END          4 00000088 FFFFFFFF     A  A               872  472M  605                                                             
 @RETURN       4 00000084 FFFFFFFF     A  A               871  470M  511   614                                                       
 ALISGANS      4 00000318 00000002     A  A               647  496   635                                                             
 CEECAA        1 00000000 FFFFFFFD     J                  922  417   419   430   435U                                                
 CEECAAEOS                                                                                                                           
               4 0000000C FFFFFFFD     A  A               934  417                                                                   
 CEECAAGETS                                                                                                                          
               4 000002BC FFFFFFFD     A  A              1067  419                                                                   
 CEECAALWS                                                                                                                           
               4 00000280 FFFFFFFD     A  A              1027  430                                                                   
 CEECAARS      4 000002D4 FFFFFFFD     X  X              1075 1211                                                                   
 CEEDSA        1 00000000 FFFFFFFF     J                  781  412M  413   423M  424M  425M  425   426M  429U  436U  821   867   912 
 CEEDSABKC                                                                                                                           
               4 00000004 FFFFFFFF     A  A               788  423M                                                                  
 CEEDSAEND                                                                                                                           
               8 00000080 FFFFFFFF     D  D               820  821                                                                   
 CEEDSAFLAGS                                                                                                                         
               2 00000000 FFFFFFFF     X  X               783  425M  425                                                             
 CEEDSAFWC                                                                                                                           
               4 00000008 FFFFFFFF     A  A               789  426M                                                                  
 CEEDSAHP_BIAS                                                                                                                       
            2048 00000000 FFFFFFFE     X  X               837  838                                                                   
 CEEDSAHP_FIXED                                                                                                                      
               1 00000800 FFFFFFFE     X  X               839  841   843   863                                                       
 CEEDSAHP8TO15                                                                                                                       
               4 00000810 FFFFFFFE     F  F               848  849                                                                   
 CEEDSALWS                                                                                                                           
               4 00000048 FFFFFFFF     A  A               805  430M                                                                  
 CEEDSANAB                                                                                                                           
               4 0000004C FFFFFFFF     A  A               806  413   424M                                                            
 CEEDSAR14                                                                                                                           
               4 0000000C FFFFFFFF     F  F               790  412M                                                                  
 CEESTART      1 00000000 00000003     T                  747  753                                                                   
 CEETIMES      4 000003B4 00000002     F  F               765  755                                                                   
 CEEX0004      1 00000036 00000002     U                  422  418B                                                                  
 CEEY0004      1 000139B8 00000002 A   U                  405  406   414   415   415                                                 
 CEEZ0004      1 00000014 00000002     U                  411  403B                                                                  
 CONT1         2 0000020C 00000002     H  H               575  571B                                                                  
 CONT2         2 00000274 00000002     H  H               599  596B                                                                  
 CONT3         2 00000254 00000002     H  H               590  581B  584B  587B                                                      
 CP_RNAME      6 00000200 00000002     I                  572  567X                                                                  
 DSASIZE       1 000139B8 FFFFFFFF A   U                  912  405                                                                   
 GO            2 00000078 00000002     H  H               447  438B                                                                  
 GOBACK        2 00000062 00000002     H  H               439  453B  456B  459B  462B  465B  468B  516B  546B  619B                  
 GQDSECT       1 00000000 FFFFFFF3     J                 2339  473U                                                                  
 GQSCAN        8 00000000 FFFFFFF3     D  D              2345 2344  2415                                                             
 ISGANS        8 00000138 FFFFFFFF     D  D               909  492   549   631   911                                                 
 ISGQUERY      1 00000000 00000002     J                  394  395   396   397   407   433   434U  756  2438                         
 ISGQUERY_PPA                                                                                                                        
               4 00000378 00000002     F  F               683  407                                                                   
 ISGYQUAA_KSTEP                                                                                                                      
               1 00000001 FFFFFFFD A   U                 1456  580                                                                   
 ISGYQUAA_KSYSPLEX                                                                                                                   
               1 00000003 FFFFFFFD A   U                 1459  586                                                                   
 ISGYQUAA_KSYSTEM                                                                                                                    
1                               Ordinary Symbol and Literal Cross Reference                                     Page   53            
-Symbol   Length   Value     Id    R Type Asm  Program   Defn References                     HLASM R6.0  2012/03/05 10.22            
0              1 00000002 FFFFFFFD A   U                 1457  583                                                                   
 ISGYQUAAHDR                                                                                                                         
               1 00000000 FFFFFFFC     J                 1472  550U 1496                                                             
 ISGYQUAAHDRFIRSTRECORD31                                                                                                            
               4 00000014 FFFFFFFC     A  A              1480  551                                                                   
 ISGYQUAARQ                                                                                                                          
               1 00000000 FFFFFFF9     J                 1580  557U 1612                                                             
 ISGYQUAARQCONTROL                                                                                                                   
               1 00000080 FFFFFFF9 A   U                 1584  568                                                                   
 ISGYQUAARQFLAGS1                                                                                                                    
               1 00000002 FFFFFFF9     B  B              1583  568   591   593  1592                                                 
 ISGYQUAARQFLAGS2                                                                                                                    
               1 00000003 FFFFFFF9     B  B              1593 1595                                                                   
 ISGYQUAARQMATU                                                                                                                      
               1 00000004 FFFFFFF9 A   U                 1589  593                                                                   
 ISGYQUAARQNEXT31                                                                                                                    
               4 0000000C FFFFFFF9     A  A              1599  608                                                                   
 ISGYQUAARQOWNER                                                                                                                     
               1 00000008 FFFFFFF9 A   U                 1588  591                                                                   
 ISGYQUAARQRQX31                                                                                                                     
               4 00000014 FFFFFFF9     A  A              1602  559                                                                   
 ISGYQUAARQTCB                                                                                                                       
               4 00000004 FFFFFFF9     A  A              1596  601                                                                   
 ISGYQUAARQX                                                                                                                         
               1 00000000 FFFFFFF8     J                 1622  560U 1682                                                             
 ISGYQUAARQXASID                                                                                                                     
               2 00000006 FFFFFFF8     H  H              1647  600                                                                   
 ISGYQUAARQXFLAGS1                                                                                                                   
               1 00000002 FFFFFFF8     B  B              1626 1635                                                                   
 ISGYQUAARQXFLAGS2                                                                                                                   
               1 00000003 FFFFFFF8     B  B              1636 1644                                                                   
 ISGYQUAARQXJOBNAME                                                                                                                  
               8 00000020 FFFFFFF8     C  C              1650  577                                                                   
 ISGYQUAARQXSYSNAME                                                                                                                  
               8 00000028 FFFFFFF8     C  C              1651  578                                                                   
 ISGYQUAARS                                                                                                                          
               1 00000000 FFFFFFFB     J                 1505  552U 1545                                                             
 ISGYQUAARSFIRSTRQ31                                                                                                                 
               4 00000014 FFFFFFFB     A  A              1518  556                                                                   
 ISGYQUAARSFLAGS1                                                                                                                    
               1 00000002 FFFFFFFB     B  B              1508 1511                                                                   
 ISGYQUAARSNEXT31                                                                                                                    
               4 0000000C FFFFFFFB     A  A              1515  611                                                                   
 ISGYQUAARSQNAME                                                                                                                     
               8 00000020 FFFFFFFB     C  C              1522  576                                                                   
 ISGYQUAARSRNAMELEN                                                                                                                  
               2 00000044 FFFFFFFB     H  H              1530  555                                                                   
 ISGYQUAARSRNAME31                                                                                                                   
               4 0000001C FFFFFFFB     A  A              1521  564                                                                   
 ISGYQUAARSSCOPE                                                                                                                     
               1 00000046 FFFFFFFB     X  X              1531  580   583   586   589                                                 
 ISGYQUAARSX                                                                                                                         
               1 00000000 FFFFFFFA     J                 1555 1571                                                                   
 ISGYQUAARSXFLAGS1                                                                                                                   
               1 00000002 FFFFFFFA     B  B              1558 1560                                                                   
1                               Ordinary Symbol and Literal Cross Reference                                     Page   54            
-Symbol   Length   Value     Id    R Type Asm  Program   Defn References                     HLASM R6.0  2012/03/05 10.22            
0ISGYQUAASP                                                                                                                          
               1 00000000 FFFFFFF6     J                 1728 1743                                                                   
 ISGYQUAASYS                                                                                                                         
               1 00000000 FFFFFFF7     J                 1692 1718                                                                   
 ISGYQUAASYSFLAGS1                                                                                                                   
               1 00000002 FFFFFFF7     B  B              1695 1697                                                                   
 LISGANS       1 00013880 FFFFFFFF A   U                  911  647                                                                   
 LOOP0         2 0000016A 00000002     H  H               513  645B                                                                  
 LOOP1         2 000001D0 00000002     H  H               553  612B                                                                  
 LOOP2         2 000001DA 00000002     H  H               558  609B                                                                  
 LTORG         8 00000318 00000002     D  D               646  448   449U                                                            
 MODIFIER      4 000000B4 FFFFFFFF     F  F               905  442   451M  454M  457M  460M  463M  466M  506M  521   603M  617M  617 
                                                               641M                                                                  
 MODIFIEX      4 000000BC FFFFFFFF     F  F               907  542M                                                                  
 NOWARN        2 000001C4 00000002     H  H               547  518B  523B                                                            
 OWNER         2 0000026E 00000002     H  H               597  592B  594B                                                            
 PPANL0015                                                                                                                           
               2 00000396 00000002     R  A               739  684                                                                   
 PPA20015      4 000003A0 00000002     F  F               748  703   755                                                             
 QUERY_QUIT                                                                                                                          
               2 0000018A 00000002     H  H               524  606B                                                                  
 QUERY_RC      4 00000080 FFFFFFFF     F  F               870  514M  618                                                             
 RETURN_CODE                                                                                                                         
               4 000000B0 FFFFFFFF     F  F               904  441   450M  505M  602M  616M  616   640M                              
 RETURN_CODX                                                                                                                         
               4 000000B8 FFFFFFFF     F  F               906  541M                                                                  
 RETURN_STRUC                                                                                                                        
               1 00000000 FFFFFFF2     J                 2420  562U                                                                  
 RNAMELEN      4 0000008C FFFFFFFF     F  F               873  474                                                                   
 RTN_ASID      2 00000038 FFFFFFF2     H  H              2435  600M                                                                  
 RTN_EXCSHR                                                                                                                          
               8 0000001C FFFFFFF2     C  C              2425  570M  574M                                                            
 RTN_JOBNAME                                                                                                                         
               8 00000008 FFFFFFF2     C  C              2422  577M                                                                  
 RTN_NEXT      1 00000139 FFFFFFF2     U                 2437  604                                                                   
 RTN_QNAME                                                                                                                           
               8 00000000 FFFFFFF2     C  C              2421  576M                                                                  
 RTN_RLEN      4 00000010 FFFFFFF2     F  F              2423  563M                                                                  
 RTN_RNAME                                                                                                                           
             255 0000003A FFFFFFF2     C  C              2436  572M                                                                  
 RTN_SCOPE                                                                                                                           
               8 0000002C FFFFFFF2     C  C              2430  579M  582M  585M  588M  589M                                          
 RTN_STATUS                                                                                                                          
               8 00000024 FFFFFFF2     C  C              2429  595M  598M                                                            
 RTN_SYSNAME                                                                                                                         
               8 00000014 FFFFFFF2     C  C              2424  578M                                                                  
 RTN_TCB       4 00000034 FFFFFFF2     A  A              2434  601M                                                                  
 R0            1 00000000 00000001 A   U                  376  521M  522                                                             
 R1            1 00000001 00000001 A   U                  377  452   565M  566M  567                                                 
 R10           1 0000000A 00000001 A   U                  386  448M  449U                                                            
 R11           1 0000000B 00000001 A   U                  387  433M  434U                                                            
 R12           1 0000000C 00000001 A   U                  388  435U                                                                  
 R13           1 0000000D 00000001 A   U                  389  436U                                                                  
 R15           1 0000000F 00000001 A   U                  391  514   515   517M  517   618M                                          
 R2            1 00000002 00000001 A   U                  378  474M  564M  572                                                       
1                               Ordinary Symbol and Literal Cross Reference                                     Page   55            
-Symbol   Length   Value     Id    R Type Asm  Program   Defn References                     HLASM R6.0  2012/03/05 10.22            
0R3            1 00000003 00000001 A   U                  379  511M  512M  512   562U  604M  605   615                               
 R4            1 00000004 00000001 A   U                  380  467M  469M  469   470   471M  471   472   549M  550U  614M  615       
 R5            1 00000005 00000001 A   U                  381  464M  473U  548M  551M  552U  611M  613D  620M                        
 R6            1 00000006 00000001 A   U                  382  461M  556M  557U  608M  610D                                          
 R7            1 00000007 00000001 A   U                  383  458M  559M  560U  607D                                                
 R8            1 00000008 00000001 A   U                  384  455M  555M  563   565                                                 
 R9            1 00000009 00000001 A   U                  385  452M  455   458   461   464   467   548   620                         
 SHARED        2 00000206 00000002     H  H               573  569B                                                                  
 TOKEN         4 00000090 FFFFFFFF     F  F               874  494   535   633                                                       
 =AL2(32767)                                                                                                                         
               2 0000036C 00000002     R                  663  497                                                                   
 =CL7'ERROR'                                                                                                                         
               7 0000036E 00000002     C                  664  588                                                                   
 =CL8'EXCL'                                                                                                                          
               8 00000320 00000002     C                  651  570                                                                   
 =CL8'OWNED'                                                                                                                         
               8 00000350 00000002     C                  657  598                                                                   
 =CL8'SHARED'                                                                                                                        
               8 00000328 00000002     C                  652  574                                                                   
 =CL8'STEP'                                                                                                                          
               8 00000330 00000002     C                  653  579                                                                   
 =CL8'SYSPLEX'                                                                                                                       
               8 00000340 00000002     C                  655  585                                                                   
 =CL8'SYSTEM'                                                                                                                        
               8 00000338 00000002     C                  654  582                                                                   
 =CL8'WAIT'                                                                                                                          
               8 00000348 00000002     C                  656  595                                                                   
 =F'1'         4 0000035C 00000002     F                  659  451   603                                                             
 =F'2'         4 00000360 00000002     F                  660  454   457   460   463                                                 
 =F'20'        4 00000358 00000002     F                  658  450                                                                   
 =F'24'        4 00000368 00000002     F                  662  602                                                                   
 =F'3'         4 00000364 00000002     F                  661  466                                                                   
1                                  Unreferenced Symbols Defined in CSECTs                                       Page   56            
-  Defn  Symbol                                                                              HLASM R6.0  2012/03/05 10.22            
0   479  M00M0010                                                                                                                    
    527  M00M0013                                                                                                                    
    623  M00M0014                                                                                                                    
    682  PPA10015                                                                                                                    
    756  PPA2M0015                                                                                                                   
    753  PPA2S0015                                                                                                                   
    390  R14                                                                                                                         
1                                          Macro and Copy Code Source Summary                                   Page   57            
- Con Source                                        Volume    Members                        HLASM R6.0  2012/03/05 10.22            
0     PRIMARY INPUT                                           B        BAL      BAS      BC       BCT      BE       BH               
                                                              BL       BM       BNE      BNH      BNL      BNM      BNO              
                                                              BNP      BNZ      BO       BP       BXH      BXLE     BZ               
   L2 CEE.SCEEMAC                                   I17RS3    CEECAA   CEEDNUT  CEEDSA   CEEENTRY CEEPPA   CEETERM                   
   L3 SYS1.MACLIB                                   I17RS2    IEABRC   IEABRCX  ISGQUERY ISGYCON  ISGYQUAA SPLEVEL                   
                                                              SYSSTATE YREGS                                                         
   L4 SYS1.MODGEN                                   I17RS1    ISGRNLE                                                                
1                                                Dsect Cross Reference                                          Page   58            
-Dsect     Length      Id       Defn                                                         HLASM R6.0  2012/03/05 10.22            
0CEECAA   000003F8  FFFFFFFD     922                                                                                                 
 CEEDSA   000139B8  FFFFFFFF     781                                                                                                 
 CEEDSAHP 00000840  FFFFFFFE     831                                                                                                 
 GQDSECT  00000090  FFFFFFF3    2339                                                                                                 
 ISGYQUAAHDR                                                                                                                         
          00000028  FFFFFFFC    1472                                                                                                 
 ISGYQUAARQ                                                                                                                          
          00000040  FFFFFFF9    1580                                                                                                 
 ISGYQUAARQX                                                                                                                         
          00000088  FFFFFFF8    1622                                                                                                 
 ISGYQUAARS                                                                                                                          
          00000050  FFFFFFFB    1505                                                                                                 
 ISGYQUAARSX                                                                                                                         
          00000030  FFFFFFFA    1555                                                                                                 
 ISGYQUAASP                                                                                                                          
          00000010  FFFFFFF6    1728                                                                                                 
 ISGYQUAASYS                                                                                                                         
          00000028  FFFFFFF7    1692                                                                                                 
 RETURN_STRUC                                                                                                                        
          00000139  FFFFFFF2    2420                                                                                                 
 RNL_HEADDR                                                                                                                          
          0000000C  FFFFFFF4    2336                                                                                                 
 RNLE     0000000A  FFFFFFF5    2317                                                                                                 
1                                                      Using Map                                                Page   59            
-                                                                                            HLASM R6.0  2012/03/05 10.22            
   Stmt  -----Location----- Action ----------------Using----------------- Reg Max     Last Label and Using Text                      
           Count      Id           Type          Value    Range     Id        Disp    Stmt                                           
0   398  00000000  00000002 PUSH                                                                                                     
    399  00000000  00000002 DROP                                           **                                                        
    400  00000000  00000002 USING  ORDINARY    00000000 00001000 00000002  15 00000        *,15                                      
    428  0000004A  00000002 POP                                                                                                      
    429  0000004A  00000002 USING  ORDINARY    00000000 00001000 FFFFFFFF  13 00048    430 CEEDSA,13                                 
    434  0000005E  00000002 USING  ORDINARY    00000000 00001000 00000002  11 00200    567 ISGQUERY,R11                              
    435  0000005E  00000002 USING  ORDINARY    00000000 00001000 FFFFFFFD  12 00000        CEECAA,R12                                
    436  0000005E  00000002 USING  ORDINARY    00000000 00001000 FFFFFFFF  13 00138    641 CEEDSA,R13                                
    449  0000007E  00000002 USING  ORDINARY    00000318 00001000 00000002  10 00056    635 LTORG,R10                                 
    473  000000F0  00000002 USING  ORDINARY    00000000 00001000 FFFFFFF3   5 00000        GQDSECT,R5                                
    550  000001CC  00000002 USING  ORDINARY    00000000 00001000 FFFFFFFC   4 00014    551 ISGYQUAAHDR,R4                            
    552  000001D0  00000002 USING  ORDINARY    00000000 00001000 FFFFFFFB   5 00046    611 ISGYQUAARS,R5                             
    557  000001DA  00000002 USING  ORDINARY    00000000 00001000 FFFFFFF9   6 00014    608 ISGYQUAARQ,R6                             
    560  000001DE  00000002 USING  ORDINARY    00000000 00001000 FFFFFFF8   7 00028    600 ISGYQUAARQX,R7                            
    562  000001DE  00000002 USING  ORDINARY    00000000 00001000 FFFFFFF2   3 00139    604 RETURN_STRUC,R3                           
    607  00000298  00000002 DROP                                            7              R7                                        
    610  000002A2  00000002 DROP                                            6              R6                                        
    613  000002AC  00000002 DROP                                            5              R5                                        
1                                   General Purpose Register Cross Reference                                    Page   60            
- Register  References (M=modified, B=branch, U=USING, D=DROP, N=index)                      HLASM R6.0  2012/03/05 10.22            
0    0(0)     412   414M  415M  416M  417   424   442M  506   521M  522   542   641                                                  
     1(1)     412   413M  416   421M  423   424   425   425   426   427   431M  432M  432   445M  452   482M  483   483   484   485  
              486   487   488   489   490   491   493   495   496   497   498   499   500   530M  531   531   532   533   534   536  
              565M  566M  567   626M  627   627   628   629   630   632   634   635                                                  
     2(2)     412   445M  474M  564M  572                                                                                            
     3(3)     412   445M  504M  511M  512M  512   540M  562U  604M  605   615   639M                                                 
     4(4)     412   445M  467M  469M  469   470   471M  471   472   504M  540M  549M  550U  614M  615   639M                         
     5(5)     412   445M  464M  473U  482   530   548M  551M  552U  611M  613D  620M  626                                            
     6(6)     412   445M  461M  498   556M  557U  608M  610D                                                                         
     7(7)     412   445M  458M  491   559M  560U  607D                                                                               
     8(8)     412   445M  455M  490   555M  563   565                                                                                
     9(9)     412   445M  452M  455   458   461   464   467   548   620                                                              
    10(A)     412   445M  448M  449U                                                                                                 
    11(B)     412   433M  434U  445M                                                                                                 
    12(C)     412   417   419   430   435U  445M                                                                                     
    13(D)     412   413   423   426   427M  429U  431N  436U  443M  443N  444   445                                                  
    14(E)     412   420M  444M  446B  492M  493   494M  495   501M  502M  502N  503M  503N  504   504M  535M  536   537M  538M  538N 
              539M  539N  540   540M  631M  632   633M  634   636M  637M  637N  638M  638N  639   639M                               
    15(F)     400U  410   412   419M  420B  421   441M  505   514   515   517M  517   541   618M  640                                
1                                  Diagnostic Cross Reference and Assembler Summary                             Page   61            
-                                                                                            HLASM R6.0  2012/03/05 10.22            
0     No Statements Flagged in this Assembly                                                                                         
 HIGH LEVEL ASSEMBLER, 5696-234, RELEASE 6.0, PTF UK67595                                                                            
0SYSTEM: z/OS 01.12.00              JOBNAME: TSH0096     STEPNAME: STEP1      PROCSTEP: (NOPROC)                                     
0Data Sets Allocated for this Assembly                                                                                               
  Con DDname   Data Set Name                                Volume  Member                                                           
   P1 SYSIN    /home/tsh009/utilities-1/isgquery.s                                                                                   
   L1 SYSLIB   /home/tsh009/utilities-1                                                                                              
   L2          CEE.SCEEMAC                                  I17RS3                                                                   
   L3          SYS1.MACLIB                                  I17RS2                                                                   
   L4          SYS1.MODGEN                                  I17RS1                                                                   
      SYSADATA /home/tsh009/utilities-1/isgquery.ad                                                                                  
      SYSLIN   /home/tsh009/utilities-1/isgquery.o                                                                                   
      SYSPRINT /home/tsh009/utilities-1/isgquery.listing                                                                             
      SYSTERM  /dev/fd2                                                                                                              
                                                                                                                                     
 1890420K allocated to Buffer Pool       Storage required    1460K                                                                   
     263 Primary Input Records Read        11634 Library Records Read                  0 Work File Reads                             
       0 ASMAOPT Records Read               3082 Primary Print Records Written         0 Work File Writes                            
      23 Object Records Written             4341 ADATA Records Written                                                               
0Assembly Start Time: 10.22.44 Stop Time: 10.22.45 Processor Time: 00.00.00.2016                                                     
 Return Code 000                                                                                                                     
