1                                         High Level Assembler Option Summary                   (PTF UK67595)   Page    1            
-                                                                                            HLASM R6.0  2012/03/05 10.22            
0  No Overriding ASMAOPT Parameters                                                                                                  
   Overriding Parameters-  OBJECT,LIST(MAX),TERM,ASA,ADATA,ADATA,EXIT(INX(FLOWASM),LBX(FLOWASM),PRX(FLOWASM))                        
   Process Statements-     ALIGN,NOCOMPAT,                                                                                           
                           DXREF,FLAG(ALIGN,CONT,RECORD)                                                                             
                           NOFOLD,NOINFO,PC(ON,DATA,GEN,MCALL),RENT,                                                                 
                           RA2,NORLD,MXREF,RXREF,USING(MAP,WARN(13))                                                                 
                           TYPECHECK(NOMAGNITUDE,REGISTER)                                                                           
                                                                                                                                     
                                                                                                                                     
   Options for this Assembly                                                                                                         
03   ADATA                                                                                                                           
 5   ALIGN                                                                                                                           
 3   ASA                                                                                                                             
     BATCH                                                                                                                           
     CODEPAGE(047C)                                                                                                                  
 5 NOCOMPAT                                                                                                                          
   NODBCS                                                                                                                            
   NODECK                                                                                                                            
 5   DXREF                                                                                                                           
     ESD                                                                                                                             
     EXIT                                                                                                                            
 3       INEXIT(FLOWASM)                                                                                                             
 3       LIBEXIT(FLOWASM)                                                                                                            
 3       PRTEXIT(FLOWASM)                                                                                                            
       NOOBJEXIT                                                                                                                     
       NOADEXIT                                                                                                                      
       NOTRMEXIT                                                                                                                     
 5   FLAG(0,ALIGN,CONT,EXLITW,NOIMPLEN,NOPAGE0,PUSH,RECORD,NOSUBSTR,USING0)                                                          
 5 NOFOLD                                                                                                                            
   NOGOFF                                                                                                                            
 5 NOINFO                                                                                                                            
     LANGUAGE(EN)                                                                                                                    
   NOLIBMAC                                                                                                                          
     LINECOUNT(60)                                                                                                                   
 3   LIST(MAX)                                                                                                                       
     MACHINE(,NOLIST)                                                                                                                
 5   MXREF(SOURCE)                                                                                                                   
 3   OBJECT                                                                                                                          
     OPTABLE(UNI,NOLIST)                                                                                                             
 5   PCONTROL(DATA,GEN,MCALL,ON)                                                                                                     
   NOPESTOP                                                                                                                          
   NOPROFILE                                                                                                                         
 5   RA2                                                                                                                             
 5   RENT                                                                                                                            
 5 NORLD                                                                                                                             
 5   RXREF                                                                                                                           
     SECTALGN(8)                                                                                                                     
     SIZE(MAX)                                                                                                                       
   NOSUPRWARN                                                                                                                        
     SYSPARM()                                                                                                                       
 3   TERM(WIDE)                                                                                                                      
   NOTEST                                                                                                                            
     THREAD                                                                                                                          
   NOTRANSLATE                                                                                                                       
 5   TYPECHECK(NOMAGNITUDE,REGISTER)                                                                                                 
1                                         High Level Assembler Option Summary                   (PTF UK67595)   Page    2            
-                                                                                            HLASM R6.0  2012/03/05 10.22            
05   USING(NOLIMIT,MAP,WARN(13))                                                                                                     
   NOWORKFILE                                                                                                                        
     XREF(SHORT,UNREFS)                                                                                                              
                                                                                                                                     
   Standard   DD Names- SYSLIN   SYSLIB   SYSIN    SYSPRINT SYSPUNCH SYSUT1   SYSTERM  SYSADATA ASMAOPT                              
   Overriding DD Names- SYS00014 SYS00004 SYS00012 SYS00013                   SYS00011 SYS00015                                      
1                                              External Symbol Dictionary                                       Page    3            
-Symbol   Type   Id     Address  Length   Owner Id Flags Alias-of                            HLASM R6.0  2012/03/05 10.22            
0LSENQ     SD 00000001 00000000 0000127C             0F                                                                              
 CEEINT    ER 00000002                                                                                                               
 CEEMAIN   SD 00000003 00001280 00000008             0F                                                                              
 CEETREC   ER 00000004                                                                                                               
 CEE3INF   ER 00000005                                                                                                               
 SPRINTF   ER 00000006                                                                                                               
 CEE3DMP   ER 00000007                                                                                                               
 ISGQUERY  ER 00000008                                                                                                               
 CEESTART  ER 00000009                                                                                                               
 CEEBETBL  ER 0000000A                                                                                                               
1                                                                                                               Page    4            
   Active Usings: None                                                                                                               
0  Loc    Object Code      Addr1    Addr2    Stmt  Source Statement                          HLASM R6.0  2012/03/05 10.22            
0                                               1 *PROCESS ALIGN,NOCOMPAT,                                                           
                                                2 *PROCESS DXREF,FLAG(ALIGN,CONT,RECORD)                                             
                                                3 *PROCESS NOFOLD,NOINFO,PC(ON,DATA,GEN,MCALL),RENT,                                 
                                                4 *PROCESS RA2,NORLD,MXREF,RXREF,USING(MAP,WARN(13))                                 
                                                5 *PROCESS TYPECHECK(NOMAGNITUDE,REGISTER)                                           
                                                6 *WARNING - THIS PROGRAM REQUIRES THE HIGH-LEVEL ASSEMBLER                          
                                                7 *          AS WELL AS LE/370                                                       
                                                8 *          THIS PROGRAM IS RE-ENTRANT.                                             
                                                9          AGO   .SKIP2                                                              
                                               10 .SKIP2   ANOP                                                                      
                                               11          SYSSTATE ASCENV=P,ARCHLVL=2                                               
                                               12+*        THE VALUE OF SYSSTATE IS NOW SET TO ASCENV=P AMODE64=NO ARCHLVX01-SYSSTATE
                                                 +               L=2 OSREL=00000000                                                  
                                               13          PUSH  PRINT                                                               
                                               14          LCLC  &NL,&TAB                                                            
                                               15 &NL      SETC  A2C(21)                                                             
                                               16 &NL      SETC  '&NL'(4,1)                                                          
                                               17 &TAB     SETC  A2C(05)                                                             
                                               18 &TAB     SETC  '&TAB'(4,1)                                                         
                                               19          PRINT NOGEN                                                               
                                               20          IEABRCX DEFINE                                                            
                                               21+         PUSH  PRINT,NOPRINT                                            01-IEABRCX 
                                               22+         PRINT OFF,NOPRINT                                              01-IEABRCX 
                                               23+***********************************************************************            
                                               24+*                                                                     *            
                                               25+*01* MACRO-NAME = IEABRC                                              *            
                                               26+*                                                                     *            
                                               27+*01* DESCRIPTIVE-NAME = RELATIVE BRANCH MACROS                        *            
                                               28+*                                                                     *            
                                               29+*01*  COPYRIGHT =                                                     *            
                                               30+*       LICENSED MATERIALS - PROPERTY OF IBM                          *            
                                               31+*       5694-A01 COPYRIGHT IBM CORP. 2000, 2008                       *            
                                               32+*                                                                     *            
                                               33+*01* STATUS = HBB7750                                                 *            
                                               34+*                                                                     *            
                                               35+*01* EXTERNAL CLASSIFICATION: PI                                      *            
                                               36+*01* END OF EXTERNAL CLASSIFICATION:                                  *            
                                               37+*                                                                     *            
                                               38+*01* FUNCTION = Allow use of OS/390 macros within an assembler        *            
                                               39+*       routine that uses relative branching                          *            
                                               40+*       It defines macros to intercept and change various             *            
                                               41+*       base-displacement branch instructions to their                *            
                                               42+*       relative branch equivalents.                                  *            
                                               43+*                                                                     *            
                                               44+*       Specify SYSSTATE ARCHLVL=x where x is a supported value       *            
                                               45+*       other than 0, when using IEABRC. This lets macro expansions   *            
                                               46+*       take advantage of the knowledge of the availability of        *            
                                               47+*       relative branching.                                           *            
                                               48+*                                                                     *            
                                               49+*02* METHOD OF INVOCATION                                             *            
                                               50+*       COPY  IEABRC                                                  *            
                                               51+*       placed prior to any base/displacement branch that needs       *            
                                               52+*       to be converted to a relative branch.                         *            
                                               53+*                                                                     *            
                                               54+*       This will automatically "enable" the conversion.              *            
1                                                                                                               Page    5            
   Active Usings: None                                                                                                               
0  Loc    Object Code      Addr1    Addr2    Stmt  Source Statement                          HLASM R6.0  2012/03/05 10.22            
0                                              55+*                                                                     *            
                                               56+*       It is now recommended that instead of this approach you       *            
                                               57+*       invoke IEABRCX DEFINE as that will allow you to take          *            
                                               58+*       better advantage of the IEABRCX DISABLE | ENABLE functions.   *            
                                               59+*                                                                     *            
                                               60+*02* NOTES:                                                           *            
                                               61+*       Branch condition instructions are converted to                *            
                                               62+*       relative branch condition instructions except when:           *            
                                               63+*       - The branch target ends with ")" and                         *            
                                               64+*         a "(" in 2nd or subsequent characters of the branch         *            
                                               65+*         target is not preceded by "+" or "-".                       *            
                                               66+*       For example,                                                  *            
                                               67+*         B   X(15)          -- remains base/displacement branch      *            
                                               68+*         B   X+(15)         -- converted to relative branch          *            
                                               69+*         B   X+Y            -- converted to relative branch          *            
                                               70+*                                                                     *            
                                               71+*01* MODULE-TYPE = MACRO                                              *            
                                               72+*                                                                     *            
                                               73+*02* PROCESSOR = HLASM                                                *            
                                               74+*                                                                     *            
                                               75+*01* MACROS = NONE                                                    *            
                                               76+*                                                                     *            
                                               77+*01* PARAMETERS:                                                      *            
                                               78+*        Same as used within assembler instructions                   *            
                                               79+*                                                                     *            
                                               80+*01* CHANGE-ACTIVITY =                                                *            
                                               81+*                                                                     *            
                                               82+*   $L0=64BITSUP HBB7703  980106  PD00XB: 64-BIT ROUTINES             *            
                                               83+*   $L1=ME10226  HBB7750  070501  PD00XB: Enable/Disable              *            
                                               84+*                                                                     *            
                                               85+*01* MNOTES = NONE                                                    *            
                                               86+*                                                                     *            
                                               87+*01* COMPONENT = SC1C5 (SUPERVISOR CONTROL)                           *            
                                               88+*                                                                     *            
                                               89+*01*  DISTRIBUTION-LIBRARY = AMACLIB                                  *            
                                               90+*                                                                     *            
                                               91+***********************************************************************            
                                               92+B_       OPSYN B                                                        01-IEABRCX 
                                               93+BAL_     OPSYN BAL                                                      01-IEABRCX 
                                               94+BAS_     OPSYN BAS                                                      01-IEABRCX 
                                               95+BC_      OPSYN BC                                                       01-IEABRCX 
                                               96+BCT_     OPSYN BCT                                                      01-IEABRCX 
                                               97+BE_      OPSYN BE                                                       01-IEABRCX 
                                               98+BH_      OPSYN BH                                                       01-IEABRCX 
                                               99+BL_      OPSYN BL                                                       01-IEABRCX 
                                              100+BM_      OPSYN BM                                                       01-IEABRCX 
                                              101+BNE_     OPSYN BNE                                                      01-IEABRCX 
                                              102+BNH_     OPSYN BNH                                                      01-IEABRCX 
                                              103+BNL_     OPSYN BNL                                                      01-IEABRCX 
                                              104+BNM_     OPSYN BNM                                                      01-IEABRCX 
                                              105+BNO_     OPSYN BNO                                                      01-IEABRCX 
                                              106+BNP_     OPSYN BNP                                                      01-IEABRCX 
                                              107+BNZ_     OPSYN BNZ                                                      01-IEABRCX 
                                              108+BO_      OPSYN BO                                                       01-IEABRCX 
                                              109+BP_      OPSYN BP                                                       01-IEABRCX 
1                                                                                                               Page    6            
   Active Usings: None                                                                                                               
0  Loc    Object Code      Addr1    Addr2    Stmt  Source Statement                          HLASM R6.0  2012/03/05 10.22            
0                                             110+BXH_     OPSYN BXH                                                      01-IEABRCX 
                                              111+BXLE_    OPSYN BXLE                                                     01-IEABRCX 
                                              112+BZ_      OPSYN BZ                                                       01-IEABRCX 
                                              113+*                                                                                  
                                              114          MACRO                                                          02350000   
                                              115 &NAME    B     &WHERE                                                   02400000   
                                              116 &NAME    BC    15,&WHERE                                                02450000   
                                              117          MEND                                                           02500000   
                                              118          MACRO                                                          02550000   
                                              119 &NAME    BE    &WHERE                                                   02600000   
                                              120 &NAME    BC    8,&WHERE                                                 02650000   
                                              121          MEND                                                           02700000   
                                              122          MACRO                                                          02750000   
                                              123 &NAME    BL    &WHERE                                                   02800000   
                                              124 &NAME    BC    4,&WHERE                                                 02850000   
                                              125          MEND                                                           02900000   
                                              126          MACRO                                                          02950000   
                                              127 &NAME    BH    &WHERE                                                   03000000   
                                              128 &NAME    BC    2,&WHERE                                                 03050000   
                                              129          MEND                                                           03100000   
                                              130          MACRO                                                          03150000   
                                              131 &NAME    BM    &WHERE                                                   03200000   
                                              132 &NAME    BC    4,&WHERE                                                 03250000   
                                              133          MEND                                                           03300000   
                                              134          MACRO                                                          03350000   
                                              135 &NAME    BNE   &WHERE                                                   03400000   
                                              136 &NAME    BC    7,&WHERE                                                 03450000   
                                              137          MEND                                                           03500000   
                                              138          MACRO                                                          03550000   
                                              139 &NAME    BNH   &WHERE                                                   03600000   
                                              140 &NAME    BC    13,&WHERE                                                03650000   
                                              141          MEND                                                           03700000   
                                              142          MACRO                                                          03750000   
                                              143 &NAME    BNL   &WHERE                                                   03800000   
                                              144 &NAME    BC    11,&WHERE                                                03850000   
                                              145          MEND                                                           03900000   
                                              146          MACRO                                                          03950000   
                                              147 &NAME    BNM   &WHERE                                                   04000000   
                                              148 &NAME    BC    11,&WHERE                                                04050000   
                                              149          MEND                                                           04100000   
                                              150          MACRO                                                          04150000   
                                              151 &NAME    BNO   &WHERE                                                   04200000   
                                              152 &NAME    BC    14,&WHERE                                                04250000   
                                              153          MEND                                                           04300000   
                                              154          MACRO                                                          04350000   
                                              155 &NAME    BNP   &WHERE                                                   04400000   
                                              156 &NAME    BC    13,&WHERE                                                04450000   
                                              157          MEND                                                           04500000   
                                              158          MACRO                                                          04550000   
                                              159 &NAME    BNZ   &WHERE                                                   04600000   
                                              160 &NAME    BC    7,&WHERE                                                 04650000   
                                              161          MEND                                                           04700000   
                                              162          MACRO                                                          04750000   
                                              163 &NAME    BO    &WHERE                                                   04800000   
                                              164 &NAME    BC    1,&WHERE                                                 04850000   
1                                                                                                               Page    7            
   Active Usings: None                                                                                                               
0  Loc    Object Code      Addr1    Addr2    Stmt  Source Statement                          HLASM R6.0  2012/03/05 10.22            
0                                             165          MEND                                                           04900000   
                                              166          MACRO                                                          04950000   
                                              167 &NAME    BP    &WHERE                                                   05000000   
                                              168 &NAME    BC    2,&WHERE                                                 05050000   
                                              169          MEND                                                           05100000   
                                              170          MACRO                                                          05150000   
                                              171 &NAME    BZ    &WHERE                                                   05200000   
                                              172 &NAME    BC    8,&WHERE                                                 05250000   
                                              173          MEND                                                           05300000   
                                              174          MACRO                                                          05350000   
                                              175 &NAME    BC    &COND,&WHERE                                             05400000   
                                              176          LCLA  &I,&X                                                    05450000   
                                              177          LCLC  &C                                                       05500000   
                                              178 &I       SETA  2                                                        05550000   
                                              179 &X       SETA  K'&WHERE                                                 05600000   
                                              180 &C       SETC  '&WHERE'(&X,1)                                           05650000   
                                              181          AIF   ('&C.' NE ')').NEW                                       05700000   
                                              182 .LOOP    ANOP                                                           05750000   
                                              183          AIF   (&I GE &X).NEW                                           05800000   
                                              184          AIF   ('&WHERE'(&I,1) NE '(').NEXT                             05850000   
                                              185          AIF   ('&WHERE'(&I-1,1) EQ '+').NEXT                           05900000   
                                              186          AIF   ('&WHERE'(&I-1,1) NE '-').OLD                            05950000   
                                              187 .NEXT    ANOP                                                           06000000   
                                              188 &I       SETA  &I+1                                                     06050000   
                                              189          AGO   .LOOP                                                    06100000   
                                              190 .NEW     ANOP                                                           06150000   
                                              191 &C       SETC  '  (&SYSMAC(1))'                                         06166600   
                                              192          AIF   ('&C' NE '  (OPEN CODE)').OC                             06183200   
                                              193 &C       SETC  ' '                                                      06199800   
                                              194 .OC      ANOP                                                           06216400   
                                              195 &NAME    BRC   &COND,&WHERE&C                                           06233000   
                                              196          MEXIT                                                          06250000   
                                              197 .OLD     ANOP                                                           06300000   
                                              198 &NAME    BC_   &COND,&WHERE                                             06350000   
                                              199          MEND                                                           06400000   
                                              200+*                                                                                  
                                              201          MACRO                                                          06500000   
                                              202 &NAME    BCT   &REG,&WHERE                                              06550000   
                                              203          LCLA  &I,&X                                                    06600000   
                                              204          LCLC  &C                                                       06650000   
                                              205 &I       SETA  2                                                        06700000   
                                              206 &X       SETA  K'&WHERE                                                 06750000   
                                              207 &C       SETC  '&WHERE'(&X,1)                                           06800000   
                                              208          AIF   ('&C.' NE ')').NEW                                       06850000   
                                              209 .LOOP    ANOP                                                           06900000   
                                              210          AIF   (&I GE &X).NEW                                           06950000   
                                              211          AIF   ('&WHERE'(&I,1) NE '(').NEXT                             07000000   
                                              212          AIF   ('&WHERE'(&I-1,1) EQ '+').NEXT                           07050000   
                                              213          AIF   ('&WHERE'(&I-1,1) NE '-').OLD                            07100000   
                                              214 .NEXT    ANOP                                                           07150000   
                                              215 &I       SETA  &I+1                                                     07200000   
                                              216          AGO   .LOOP                                                    07250000   
                                              217 .NEW     ANOP                                                           07300000   
                                              218 &C       SETC  '  (&SYSMAC(1))'                                         07316600   
                                              219          AIF   ('&C' NE '  (OPEN CODE)').OC                             07333200   
1                                                                                                               Page    8            
   Active Usings: None                                                                                                               
0  Loc    Object Code      Addr1    Addr2    Stmt  Source Statement                          HLASM R6.0  2012/03/05 10.22            
0                                             220 &C       SETC  ' '                                                      07349800   
                                              221 .OC      ANOP                                                           07366400   
                                              222 &NAME    BRCT  &REG,&WHERE&C                                            07383000   
                                              223          MEXIT                                                          07400000   
                                              224 .OLD     ANOP                                                           07450000   
                                              225 &NAME    BCT_  &REG,&WHERE                                              07500000   
                                              226          MEND                                                           07550000   
                                              227+*                                                                                  
                                              228          MACRO                                                          07650000   
                                              229 &NAME    BXLE  &REG,&REG2,&WHERE                                        07700000   
                                              230          LCLA  &I,&X                                                    07750000   
                                              231          LCLC  &C                                                       07800000   
                                              232 &I       SETA  2                                                        07850000   
                                              233 &X       SETA  K'&WHERE                                                 07900000   
                                              234 &C       SETC  '&WHERE'(&X,1)                                           07950000   
                                              235          AIF   ('&C.' NE ')').NEW                                       08000000   
                                              236 .LOOP    ANOP                                                           08050000   
                                              237          AIF   (&I GE &X).NEW                                           08100000   
                                              238          AIF   ('&WHERE'(&I,1) NE '(').NEXT                             08150000   
                                              239          AIF   ('&WHERE'(&I-1,1) EQ '+').NEXT                           08200000   
                                              240          AIF   ('&WHERE'(&I-1,1) NE '-').OLD                            08250000   
                                              241 .NEXT    ANOP                                                           08300000   
                                              242 &I       SETA  &I+1                                                     08350000   
                                              243          AGO   .LOOP                                                    08400000   
                                              244 .NEW     ANOP                                                           08450000   
                                              245 &C       SETC  '  (&SYSMAC(1))'                                         08466600   
                                              246          AIF   ('&C' NE '  (OPEN CODE)').OC                             08483200   
                                              247 &C       SETC  ' '                                                      08499800   
                                              248 .OC      ANOP                                                           08516400   
                                              249 &NAME    BRXLE &REG,&REG2,&WHERE&C                                      08533000   
                                              250          MEXIT                                                          08550000   
                                              251 .OLD     ANOP                                                           08600000   
                                              252 &NAME    BXLE_ &REG,&REG2,&WHERE                                        08650000   
                                              253          MEND                                                           08700000   
                                              254+*                                                                                  
                                              255          MACRO                                                          08800000   
                                              256 &NAME    BXH   &REG,&REG2,&WHERE                                        08850000   
                                              257          LCLA  &I,&X                                                    08900000   
                                              258          LCLC  &C                                                       08950000   
                                              259 &I       SETA  2                                                        09000000   
                                              260 &X       SETA  K'&WHERE                                                 09050000   
                                              261 &C       SETC  '&WHERE'(&X,1)                                           09100000   
                                              262          AIF   ('&C.' NE ')').NEW                                       09150000   
                                              263 .LOOP    ANOP                                                           09200000   
                                              264          AIF   (&I GE &X).NEW                                           09250000   
                                              265          AIF   ('&WHERE'(&I,1) NE '(').NEXT                             09300000   
                                              266          AIF   ('&WHERE'(&I-1,1) EQ '+').NEXT                           09350000   
                                              267          AIF   ('&WHERE'(&I-1,1) NE '-').OLD                            09400000   
                                              268 .NEXT    ANOP                                                           09450000   
                                              269 &I       SETA  &I+1                                                     09500000   
                                              270          AGO   .LOOP                                                    09550000   
                                              271 .NEW     ANOP                                                           09600000   
                                              272 &C       SETC  '  (&SYSMAC(1))'                                         09616600   
                                              273          AIF   ('&C' NE '  (OPEN CODE)').OC                             09633200   
                                              274 &C       SETC  ' '                                                      09649800   
1                                                                                                               Page    9            
   Active Usings: None                                                                                                               
0  Loc    Object Code      Addr1    Addr2    Stmt  Source Statement                          HLASM R6.0  2012/03/05 10.22            
0                                             275 .OC      ANOP                                                           09666400   
                                              276 &NAME    BRXH  &REG,&REG2,&WHERE&C                                      09683000   
                                              277          MEXIT                                                          09700000   
                                              278 .OLD     ANOP                                                           09750000   
                                              279 &NAME    BXH_  &REG,&REG2,&WHERE                                        09800000   
                                              280          MEND                                                           09850000   
                                              281+*                                                                                  
                                              282          MACRO                                                          09950000   
                                              283 &NAME    BAL   &REG,&WHERE                                              10000000   
                                              284          LCLA  &I,&X                                                    10050000   
                                              285          LCLC  &C                                                       10100000   
                                              286 &I       SETA  2                                                        10150000   
                                              287 &X       SETA  K'&WHERE                                                 10200000   
                                              288 &C       SETC  '&WHERE'(&X,1)                                           10250000   
                                              289          AIF   ('&C.' NE ')').NEW                                       10300000   
                                              290 .LOOP    ANOP                                                           10350000   
                                              291          AIF   (&I GE &X).NEW                                           10400000   
                                              292          AIF   ('&WHERE'(&I,1) NE '(').NEXT                             10450000   
                                              293          AIF   ('&WHERE'(&I-1,1) EQ '+').NEXT                           10500000   
                                              294          AIF   ('&WHERE'(&I-1,1) NE '-').OLD                            10550000   
                                              295 .NEXT    ANOP                                                           10600000   
                                              296 &I       SETA  &I+1                                                     10650000   
                                              297          AGO   .LOOP                                                    10700000   
                                              298 .NEW     ANOP                                                           10750000   
                                              299 &C       SETC  '  (&SYSMAC(1))'                                         10766600   
                                              300          AIF   ('&C' NE '  (OPEN CODE)').OC                             10783200   
                                              301 &C       SETC  ' '                                                      10799800   
                                              302 .OC      ANOP                                                           10816400   
                                              303 &NAME    BRAS  &REG,&WHERE&C                                            10833000   
                                              304          MEXIT                                                          10850000   
                                              305 .OLD     ANOP                                                           10900000   
                                              306 &NAME    BAL_  &REG,&WHERE                                              10950000   
                                              307          MEND                                                           11000000   
                                              308+*                                                                                  
                                              309          MACRO                                                          11100000   
                                              310 &NAME    BAS   &REG,&WHERE                                              11150000   
                                              311          LCLA  &I,&X                                                    11200000   
                                              312          LCLC  &C                                                       11250000   
                                              313 &I       SETA  2                                                        11300000   
                                              314 &X       SETA  K'&WHERE                                                 11350000   
                                              315 &C       SETC  '&WHERE'(&X,1)                                           11400000   
                                              316          AIF   ('&C.' NE ')').NEW                                       11450000   
                                              317 .LOOP    ANOP                                                           11500000   
                                              318          AIF   (&I GE &X).NEW                                           11550000   
                                              319          AIF   ('&WHERE'(&I,1) NE '(').NEXT                             11600000   
                                              320          AIF   ('&WHERE'(&I-1,1) EQ '+').NEXT                           11650000   
                                              321          AIF   ('&WHERE'(&I-1,1) NE '-').OLD                            11700000   
                                              322 .NEXT    ANOP                                                           11750000   
                                              323 &I       SETA  &I+1                                                     11800000   
                                              324          AGO   .LOOP                                                    11850000   
                                              325 .NEW     ANOP                                                           11900000   
                                              326 &C       SETC  '  (&SYSMAC(1))'                                         11916600   
                                              327          AIF   ('&C' NE '  (OPEN CODE)').OC                             11933200   
                                              328 &C       SETC  ' '                                                      11949800   
                                              329 .OC      ANOP                                                           11966400   
1                                                                                                               Page   10            
   Active Usings: None                                                                                                               
0  Loc    Object Code      Addr1    Addr2    Stmt  Source Statement                          HLASM R6.0  2012/03/05 10.22            
0                                             330 &NAME    BRAS  &REG,&WHERE&C                                            11983000   
                                              331          MEXIT                                                          12000000   
                                              332 .OLD     ANOP                                                           12050000   
                                              333 &NAME    BAS_  &REG,&WHERE                                              12100000   
                                              334          MEND                                                           12150000   
                                              335+_B_      OPSYN B                                                        01-IEABRCX 
                                              336+_BAL_    OPSYN BAL                                                      01-IEABRCX 
                                              337+_BAS_    OPSYN BAS                                                      01-IEABRCX 
                                              338+_BC_     OPSYN BC                                                       01-IEABRCX 
                                              339+_BCT_    OPSYN BCT                                                      01-IEABRCX 
                                              340+_BE_     OPSYN BE                                                       01-IEABRCX 
                                              341+_BH_     OPSYN BH                                                       01-IEABRCX 
                                              342+_BL_     OPSYN BL                                                       01-IEABRCX 
                                              343+_BM_     OPSYN BM                                                       01-IEABRCX 
                                              344+_BNE_    OPSYN BNE                                                      01-IEABRCX 
                                              345+_BNH_    OPSYN BNH                                                      01-IEABRCX 
                                              346+_BNL_    OPSYN BNL                                                      01-IEABRCX 
                                              347+_BNM_    OPSYN BNM                                                      01-IEABRCX 
                                              348+_BNO_    OPSYN BNO                                                      01-IEABRCX 
                                              349+_BNP_    OPSYN BNP                                                      01-IEABRCX 
                                              350+_BNZ_    OPSYN BNZ                                                      01-IEABRCX 
                                              351+_BO_     OPSYN BO                                                       01-IEABRCX 
                                              352+_BP_     OPSYN BP                                                       01-IEABRCX 
                                              353+_BXH_    OPSYN BXH                                                      01-IEABRCX 
                                              354+_BXLE_   OPSYN BXLE                                                     01-IEABRCX 
                                              355+_BZ_     OPSYN BZ                                                       01-IEABRCX 
                                              356+         POP   PRINT,NOPRINT                                            01-IEABRCX 
                                              357          IEABRCX DISABLE                                                           
                                              358+         PUSH  PRINT,NOPRINT                                            01-IEABRCX 
                                              359+         PRINT OFF,NOPRINT                                              01-IEABRCX 
                                              360+B        OPSYN B_                                                       01-IEABRCX 
                                              361+BAL      OPSYN BAL_                                                     01-IEABRCX 
                                              362+BAS      OPSYN BAS_                                                     01-IEABRCX 
                                              363+BC       OPSYN BC_                                                      01-IEABRCX 
                                              364+BCT      OPSYN BCT_                                                     01-IEABRCX 
                                              365+BE       OPSYN BE_                                                      01-IEABRCX 
                                              366+BH       OPSYN BH_                                                      01-IEABRCX 
                                              367+BL       OPSYN BL_                                                      01-IEABRCX 
                                              368+BM       OPSYN BM_                                                      01-IEABRCX 
                                              369+BNE      OPSYN BNE_                                                     01-IEABRCX 
                                              370+BNH      OPSYN BNH_                                                     01-IEABRCX 
                                              371+BNL      OPSYN BNL_                                                     01-IEABRCX 
                                              372+BNM      OPSYN BNM_                                                     01-IEABRCX 
                                              373+BNO      OPSYN BNO_                                                     01-IEABRCX 
                                              374+BNP      OPSYN BNP_                                                     01-IEABRCX 
                                              375+BNZ      OPSYN BNZ_                                                     01-IEABRCX 
                                              376+BO       OPSYN BO_                                                      01-IEABRCX 
                                              377+BP       OPSYN BP_                                                      01-IEABRCX 
                                              378+BXH      OPSYN BXH_                                                     01-IEABRCX 
                                              379+BXLE     OPSYN BXLE_                                                    01-IEABRCX 
                                              380+BZ       OPSYN BZ_                                                      01-IEABRCX 
                                              381+         POP   PRINT,NOPRINT                                            01-IEABRCX 
                                              382          IEABRCX ENABLE                                                            
                                              383+         PUSH  PRINT,NOPRINT                                            01-IEABRCX 
                                              384+         PRINT OFF,NOPRINT                                              01-IEABRCX 
1                                                                                                               Page   11            
   Active Usings: None                                                                                                               
0  Loc    Object Code      Addr1    Addr2    Stmt  Source Statement                          HLASM R6.0  2012/03/05 10.22            
0                                             385+B        OPSYN _B_                                                      01-IEABRCX 
                                              386+BAL      OPSYN _BAL_                                                    01-IEABRCX 
                                              387+BAS      OPSYN _BAS_                                                    01-IEABRCX 
                                              388+BC       OPSYN _BC_                                                     01-IEABRCX 
                                              389+BCT      OPSYN _BCT_                                                    01-IEABRCX 
                                              390+BE       OPSYN _BE_                                                     01-IEABRCX 
                                              391+BH       OPSYN _BH_                                                     01-IEABRCX 
                                              392+BL       OPSYN _BL_                                                     01-IEABRCX 
                                              393+BM       OPSYN _BM_                                                     01-IEABRCX 
                                              394+BNE      OPSYN _BNE_                                                    01-IEABRCX 
                                              395+BNH      OPSYN _BNH_                                                    01-IEABRCX 
                                              396+BNL      OPSYN _BNL_                                                    01-IEABRCX 
                                              397+BNM      OPSYN _BNM_                                                    01-IEABRCX 
                                              398+BNO      OPSYN _BNO_                                                    01-IEABRCX 
                                              399+BNP      OPSYN _BNP_                                                    01-IEABRCX 
                                              400+BNZ      OPSYN _BNZ_                                                    01-IEABRCX 
                                              401+BO       OPSYN _BO_                                                     01-IEABRCX 
                                              402+BP       OPSYN _BP_                                                     01-IEABRCX 
                                              403+BXH      OPSYN _BXH_                                                    01-IEABRCX 
                                              404+BXLE     OPSYN _BXLE_                                                   01-IEABRCX 
                                              405+BZ       OPSYN _BZ_                                                     01-IEABRCX 
                                              406+         POP   PRINT,NOPRINT                                            01-IEABRCX 
                                              407 _BALR    OPSYN BALR                                                                
                                              408 BALR     OPSYN BASR                                                                
                                              409 _CSECT   OPSYN CSECT                                                               
                                              410 CSECT    OPSYN RSECT                                                               
                                              411 *_LA      OPSYN LA                                                                 
                                              412 *LA       OPSYN LAY                                                                
                                              413 *_L       OPSYN L                                                                  
                                              414 *L        OPSYN LY                                                                 
                                              415 *_ST      OPSYN ST                                                                 
                                              416 *ST       OPSYN STY                                                                
                                              417 *         LONGDISP A                                                               
                                              418 *         LONGDISP AH                                                              
                                              419 *         LONGDISP AL                                                              
                                              420 *         LONGDISP C                                                               
                                              421 *         LONGDISP CH                                                              
                                              422 *         LONGDISP CL                                                              
                                              423 *         LONGDISP CLM                                                             
                                              424 *         LONGDISP CS                                                              
                                              425 *         LONGDISP CVB                                                             
                                              426 *         LONGDISP CVD                                                             
                                              427 *         LONGDISP IC                                                              
                                              428 *         LONGDISP L                                                               
                                              429 *         LONGDISP LA                                                              
                                              430 *         LONGDISP LAE                                                             
                                              431 *         LONGDISP LAM                                                             
                                              432 *         LONGDISP LD                                                              
                                              433 *         LONGDISP LE                                                              
                                              434 *         LONGDISP LM                                                              
                                              435 *         LONGDISP LRA                                                             
                                              436 *         LONGDISP MS                                                              
                                              437 *         LONGDISP N                                                               
                                              438 *         LONGDISP NI                                                              
                                              439 *         LONGDISP O                                                               
1                                                                                                               Page   12            
   Active Usings: None                                                                                                               
0  Loc    Object Code      Addr1    Addr2    Stmt  Source Statement                          HLASM R6.0  2012/03/05 10.22            
0                                             440 *         LONGDISP OI                                                              
                                              441 *         LONGDISP S                                                               
                                              442 *         LONGDISP SH                                                              
                                              443 *         LONGDISP SL                                                              
                                              444 *         LONGDISP ST                                                              
                                              445 *         LONGDISP STAM                                                            
                                              446 *         LONGDISP STC                                                             
                                              447 *         LONGDISP STD                                                             
                                              448 *         LONGDISP STH                                                             
                                              449 *         LONGDISP STM                                                             
                                              450 *         LONGDISP TM                                                              
                                              451 *         LONGDISP X                                                               
                                              452 *         LONGDISP XI                                                              
                                              453          POP   PRINT                                                               
                                              454 LSENQ    CEEENTRY PPA=LSENQ_PPA,                                       X           
                                                                 MAIN=YES,                                               X           
                                                                 AUTO=DSASIZE,                                           X           
                                                                 BASE=R11_32                                                         
 00000000                00000000 0000127C    455+LSENQ   CSECT ,                                                         01-CEEENTRY
                                              456+LSENQ   RMODE ANY                                                 @D2A  01-CEEENTRY
                                              457+LSENQ   AMODE ANY                                                 @D2A  01-CEEENTRY
                                              458+           ENTRY LSENQ                                                  01-CEEENTRY
                                              459+         PUSH  USING                                                    01-CEEENTRY
                                              460+         DROP  ,                                                  @02A  01-CEEENTRY
                     R:F 00000000             461+         USING *,15                                                     01-CEEENTRY
                                              462+         B     CEEZ0005                                                 01-CEEENTRY
                                              463+         BC    15,CEEZ0005                                              02-00000116
 00000000 A7F4 000A               00000014    464+         BRC   15,CEEZ0005  (B)                                         03-00000195
 00000004 00C3C5C5                            465+         DC    X'00C3C5C5'                                              01-CEEENTRY
                         000009F0             466+CEEY0005    EQU ((DSASIZE+7)/8)*8 . Size of automatic storage.    @P1A  01-CEEENTRY
 00000008 000009F0                            467+         DC    A(CEEY0005)        . Size of automatic storage.    @P1C  01-CEEENTRY
 0000000C 00001208                            468+         DC    A(LSENQ_PPA-LSENQ) . Address of PPA for this program     01-CEEENTRY
                                              469+         B     1(,15)                                                   01-CEEENTRY
                                              470+         BC    15,1(,15)                                                02-00000116
 00000010 47F0 F001               00000001    471+         BC_   15,1(,15)                                                03-00000198
                         00000014             472+CEEZ0005    EQU *                                                       01-CEEENTRY
 00000014 90EC D00C               0000000C    473+         STM   14,12,CEEDSAR14-CEEDSA(13)                               01-CEEENTRY
 00000018 5820 F050               00000050    474+         L     2,CEEINPL0005        R2=addr(CEEINPL)        5@01D @01C  01-CEEENTRY
 0000001C 58F0 F054               00000054    475+         L     15,CEEINT0005        R15=addr(CEEINT)              @01C  01-CEEENTRY
                                              476+         DROP  15                                                 @01A  01-CEEENTRY
 00000020 0DEF                                477+         BALR  14,15                Call CEEINT to init LE              01-CEEENTRY
 00000022 1821                                478+         LR    2,1                  Save input R1 value temporarily     01-CEEENTRY
 00000024 58E0 C2F0               000002F0    479+         L     14,752(,12)          Get EDB address                     01-CEEENTRY
 00000028 9680 E008      00000008             480+         OI    8(14),X'80'          Turn CEEEDBMAINI flag ON            01-CEEENTRY
 0000002C 5810 D04C               0000004C    481+         L     1,CEEDSANAB-CEEDSA(,13)  Get the current NAB             01-CEEENTRY
 00000030 A502 0000               00000000    482+         IILH  0,CEEY0005/65536        Load high half of AUTO size@P1A  01-CEEENTRY
 00000034 A503 09F0               000009F0    483+         IILL  0,CEEY0005-(CEEY0005/65536*65536)       and low    @P1A  01-CEEENTRY
 00000038 1E01                                484+         ALR   0,1                     Compute new value.               01-CEEENTRY
 0000003A 5500 C00C               0000000C    485+         CL    0,CEECAAEOS-CEECAA(,12)  Compare with EOS.               01-CEEENTRY
 0000003E A7D4 000D               00000058    486+         JNH   CEEX0005                                           @P1C  01-CEEENTRY
 00000042 58F0 C2BC               000002BC    487+         L     15,CEECAAGETS-CEECAA(,12) Get address overflow routine   01-CEEENTRY
 00000046 0DEF                                488+         BALR  14,15                   Get another stack segment.       01-CEEENTRY
 00000048 181F                                489+         LR    1,15                                                     01-CEEENTRY
 0000004A A7F4 0007               00000058    490+         J     CEEX0005                Branch around statics      @P1C  01-CEEENTRY
1                                                                                                               Page   13            
   Active Usings (1):None                                                                                                            
0R-Loc    Object Code      Addr1    Addr2    Stmt  Source Statement                          HLASM R6.0  2012/03/05 10.22            
00000004E 0000                                   +                                                                                   
 00000050 00001230                            491+CEEINPL0005    DC    A(CEEINPL)                                   @01A  01-CEEENTRY
 00000054 00000000                            492+CEEINT0005     DC    V(CEEINT)                                    @01A  01-CEEENTRY
                         00000058             493+CEEX0005    EQU *                                                       01-CEEENTRY
 00000058 50D0 1004               00000004    494+         ST    13,CEEDSABKC-CEEDSA(,1)  Set back chain.                 01-CEEENTRY
 0000005C 5000 104C               0000004C    495+         ST    0,CEEDSANAB-CEEDSA(,1)   Set new NAB value               01-CEEENTRY
 00000060 D701 1000 1000 00000000 00000000    496+         XC    CEEDSAFLAGS-CEEDSA(,1),CEEDSAFLAGS-CEEDSA(1) . Clear     01-CEEENTRY
 00000066 5010 D008               00000008    497+         ST    1,CEEDSAFWC-CEEDSA(,13)  Set forward chain.              01-CEEENTRY
 0000006A 18D1                                498+         LR    13,1                    Set save area address            01-CEEENTRY
                                              499+         POP   USING                   Clear any temporary usings @P1M  01-CEEENTRY
                     R:D 00000000             500+         USING CEEDSA,13               Addresability to SF     V1R2M0   01-CEEENTRY
 0000006C D203 D048 C280 00000048 00000280    501+         MVC   CEEDSALWS,CEECAALWS-CEECAA(12) Get LWS addr     V1R2M0   01-CEEENTRY
 00000072 1812                                502+         LR    1,2                     Move input r1 value to PARMREG   01-CEEENTRY
 00000074 C0B0 FFFF FFC6          00000000    503+         LARL  R11_32,LSENQ             Load EP into 1st base reg @P1C  01-CEEENTRY
                     R:B 00000000             504+         USING LSENQ,R11_32                                       @P1M  01-CEEENTRY
                     R:C 00000000             505          USING CEECAA,R12_32                                                       
                     R:D 00000000             506          USING CEEDSA,R13_32                                                       
 0000007A A7F4 001D               000000B4    507          J     GO                                                                  
 0000007E                                     508 GOBACK   DS    0H                                                                  
 0000007E C0B0 FFFF FFC1          00000000    509          LARL  R11_32,LSENQ                                                        
                                              510          CEETERM RC=RETURN_CODE,                                       X           
                                                                 MODIFIER=MODIFIER,                                      X           
                                                                 MF=(E,CEETERM_BLOCK)                                                
 00000084 D203 D190 D17C 00000190 0000017C    511+         MVC  CEETERM_BLOCK+8,MODIFIER                                 X01-CEETERM 
                                                 +                                 move Modifier to 3rd word of plist                
 0000008A D203 D194 D178 00000194 00000178    512+         MVC  CEETERM_BLOCK+12,RETURN_CODE                             X01-CEETERM 
                                                 +                               move RC to 4th word of plist                        
 00000090 4110 D190               00000190    513+         LA   1,CEETERM_BLOCK+8                                         01-CEETERM 
 00000094 5010 D188               00000188    514+         ST   1,CEETERM_BLOCK                                           01-CEETERM 
 00000098 4110 1004               00000004    515+         LA   1,4(,1)                                                   01-CEETERM 
 0000009C 5010 D18C               0000018C    516+         ST   1,CEETERM_BLOCK+4                                         01-CEETERM 
 000000A0 9680 D18C      0000018C             517+         OI   CEETERM_BLOCK+4,X'80'                                    X01-CEETERM 
                                                 +                                  turn on high order bit                           
 000000A4 4110 D188               00000188    518+         LA   1,CEETERM_BLOCK                                          X01-CEETERM 
                                                 +                        get address of termination list                            
 000000A8 58F0 B0B0               000000B0    519+         L    15,=V(CEETREC)       Get address of termination rtn       01-CEETERM 
 000000AC 0DEF                                520+         BALR 14,15                Call termination routine.            01-CEETERM 
 00001280                00001280 00000008    521+CEEMAIN  CSECT                                                          01-CEETERM 
                                              522+CEEMAIN  RMODE ANY                                                      01-CEETERM 
                                              523+CEEMAIN  AMODE ANY                                                      01-CEETERM 
 00001280 00000000                            524+         DC    A(LSENQ)                                           @04A  01-CEETERM 
 00001284 00000000                            525+         DC    F'0'                                                     01-CEETERM 
 000000AE                00000000 0000127C    526+LSENQ      CSECT                                                        01-CEETERM 
 000000B0                                     527          LTORG                                                                     
 000000B0 00000000                            528                =V(CEETREC)                                                         
 000000B4                                     529 GO       DS    0H                                                                  
                                              530          DROP  R11_32                                                              
 000000B4 C0B0 0000 0486          000009C0    531          LARL  R11_32,CONSTANTS                                                    
                     R:B 000009C0             532          USING CONSTANTS,R11_32                                                    
 000000BA 1891                                533          LR    R9_32,R1_32        SAVE R1 UPON ENTRY                               
                     R:9 00000000             534          USING PARMS,R9_32                                                         
 000000BC C0F0 0000 081D          000010F6    535          LARL  R15_32,DO_DOT                                                       
 000000C2 50F0 D094               00000094    536          ST    R15_32,ENCODE@                                                      
 000000C6 4110 D198               00000198    537          LA    R1_32,CALLX                                                         
 000000CA 58F0 B054               00000A14    538          L     R15_32,CEE3INF                                                      
1                                                                                                               Page   14            
   Active Usings: PARMS,R9  CONSTANTS,R11  CEECAA,R12  CEEDSA,R13                                                                    
0R-Loc    Object Code      Addr1    Addr2    Stmt  Source Statement                          HLASM R6.0  2012/03/05 10.22            
0                                             539          CALL  (15),(SYS,ENV,MEMBER,GPID,FC),VL,                       X           
                                                                 MF=(E,(1)),LINKINST=BASR                                            
                                              540+         SYSSTATE TEST                                             @L3A 01-CALL    
 000000CE                                     541+         DS    0H                                                       01-CALL    
                                              542+         IHBOPLTX (15),(SYS,ENV,MEMBER,GPID,FC),,MF=(E,(1))        @L1C 01-CALL    
                                              543+         SYSSTATE TEST                  TEST ASC ENVIRONMENT       @L1A 02-IHBOPLTX
                                              544+         IHBINNRR (1)                       LOAD REG 1 WITH LIST ADDR   02-IHBOPLTX
                                              545+         SYSSTATE TEST                  TEST ASC ENVIRONMENT       @L1A 03-IHBINNRR
 000000CE 4100 D160               00000160    546+         LA    0,SYS              PICKUP  PARAMETER                     02-IHBOPLTX
 000000D2 5000 1000               00000000    547+         ST    0,0(0,1)                          STORE INTO PARAM. LIST 02-IHBOPLTX
 000000D6 4100 D164               00000164    548+         LA    0,ENV              PICKUP  PARAMETER                     02-IHBOPLTX
 000000DA 5000 1004               00000004    549+         ST    0,4(0,1)                          STORE INTO PARAM. LIST 02-IHBOPLTX
 000000DE 4100 D168               00000168    550+         LA    0,MEMBER           PICKUP  PARAMETER                     02-IHBOPLTX
 000000E2 5000 1008               00000008    551+         ST    0,8(0,1)                          STORE INTO PARAM. LIST 02-IHBOPLTX
 000000E6 4100 D16C               0000016C    552+         LA    0,GPID             PICKUP  PARAMETER                     02-IHBOPLTX
 000000EA 5000 100C               0000000C    553+         ST    0,12(0,1)                         STORE INTO PARAM. LIST 02-IHBOPLTX
 000000EE 4100 D170               00000170    554+         LA    0,FC               PICKUP  PARAMETER                     02-IHBOPLTX
 000000F2 5000 1010               00000010    555+         ST    0,16(0,1)                         STORE INTO PARAM. LIST 02-IHBOPLTX
 000000F6 9680 1010      00000010             556+         OI    16(1),X'80'                SET LAST WORD BIT ON @G860P40 02-IHBOPLTX
 000000FA 0DEF                                557+         BASR      14,15                                                01-CALL    
 000000FC A7F8 0001               00000001    558          LHI   R15_32,1                                                            
 00000100 50F0 D17C               0000017C    559          ST    R15_32,MODIFIER                                                     
 00000104 A778 0010               00000010    560          LHI   R7_32,16                                                            
 00000108 9102 D160      00000160             561          TM    SYS,X'02'          UNIX?                                            
 0000010C A7E4 0404               00000914    562          JNO   INITERR            NO                                               
                                              563          LOAD  EP=BPX1WRT                                                          
                                              564+         SYSSTATE TEST                                           000815 01-LOAD    
 00000110                                     565+         CNOP  0,4                                                 @L2P 01-LOAD    
 00000110 A7F5 0006               0000011C    566+         BRAS  15,LOAD2_0017      BRANCH AROUND CONSTANT(S)             01-LOAD    
 00000114                                     567+LD2_0017    DS 0H                                                       01-LOAD    
 00000114 C2D7E7F1E6D9E340                    568+LE2_0017    DC CL8'BPX1WRT'       ENTRY POINT NAME                      01-LOAD    
 0000011C                                     569+LOAD2_0017    DS 0H                                                     01-LOAD    
 0000011C 4100 F000               00000000    570+         LA    0,LE2_0017-LD2_0017(,15)         ADDR OF PARAMETER       01-LOAD    
 00000120 1B11                                571+         SR    1,1                SHOW NO DCB PRESENT                   01-LOAD    
 00000122 0A08                                572+         SVC   8                                                        01-LOAD    
 00000124 5000 D144               00000144    573          ST    R0_32,BPX1WRT                                                       
                                              574          LOAD  EP=BPX1WRV                                                          
                                              575+         SYSSTATE TEST                                           000815 01-LOAD    
 00000128                                     576+         CNOP  0,4                                                 @L2P 01-LOAD    
 00000128 A7F5 0006               00000134    577+         BRAS  15,LOAD2_0019      BRANCH AROUND CONSTANT(S)             01-LOAD    
 0000012C                                     578+LD2_0019    DS 0H                                                       01-LOAD    
 0000012C C2D7E7F1E6D9E540                    579+LE2_0019    DC CL8'BPX1WRV'       ENTRY POINT NAME                      01-LOAD    
 00000134                                     580+LOAD2_0019    DS 0H                                                     01-LOAD    
 00000134 4100 F000               00000000    581+         LA    0,LE2_0019-LD2_0019(,15)         ADDR OF PARAMETER       01-LOAD    
 00000138 1B11                                582+         SR    1,1                SHOW NO DCB PRESENT                   01-LOAD    
 0000013A 0A08                                583+         SVC   8                                                        01-LOAD    
 0000013C 5000 D148               00000148    584          ST    R0_32,BPX1WRV                                                       
 00000140 D28F D0B4 B428 000000B4 00000DE8    585          MVC   GQLST(GQPARML),GQPARM                                               
 00000146 C000 0000 049C          00000A7E    586          LARL  R0_32,TAB          point to default tab                             
 0000014C 5000 D218               00000218    587          ST    R0_32,TAB@         save address                                     
 00000150 A708 0001               00000001    588          LHI   R0_32,1            length of default seperator                      
 00000154 5000 D21C               0000021C    589          ST    R0_32,TABL         save length                                      
 00000158 0670                                590          BCTR  R7_32,0            15                                               
 0000015A 5820 9000               00000000    591          L     R2_32,@ARGC        &NUMBER OF ARGUMENTS                             
 0000015E 5830 9004               00000004    592          L     R3_32,@ARGVL       &LENGTH OF ARGUMENTS                             
1                                                                                                               Page   15            
   Active Usings: PARMS,R9  CONSTANTS,R11  CEECAA,R12  CEEDSA,R13                                                                    
0R-Loc    Object Code      Addr1    Addr2    Stmt  Source Statement                          HLASM R6.0  2012/03/05 10.22            
000000162 5840 9008               00000008    593          L     R4_32,@ARGV        &VALUE OF ARGUMENTS                              
 00000166 5020 D17C               0000017C    594          ST    R2_32,MODIFIER                                                      
 0000016A 5820 2000               00000000    595          L     R2_32,0(,R2_32)    get number of arguments                          
 0000016E A72E 0002               00000002    596          CHI   R2_32,2            AT LEAST 2 ARGUMENTS?                            
 00000172 A778 000F               0000000F    597          LHI   R7_32,15                                                            
 00000176 A744 00C1               000002F8    598          JL    IShelp             NO, output help info                             
 0000017A D703 D080 D080 00000080 00000080    599          XC    QNAME@,QNAME@      ZERO OUT QNAME ADDRESS                           
 00000180 D203 D084 D080 00000084 00000080    600          MVC   QNAMEL,QNAME@      AND LENGTH                                       
 00000186 D203 D08C D080 0000008C 00000080    601          MVC   RNAMEL,QNAME@      ZERO OUT RNAME LENGTH                            
 0000018C D203 D088 D080 00000088 00000080    602          MVC   RNAME@,QNAME@      AND ADDRESS                                      
                                              603 *                                                                                  
                                              604 * PROCESS ARGUMENTS                                                                
 00000192 0620                                605          BCTR  R2_32,0            DON'T BOTHER counting ARGV[0]                    
 00000194 4130 3004               00000004    606          LA    R3_32,4(,R3_32)    nor its length                                   
 00000198 4140 4004               00000004    607          LA    R4_32,4(,R4_32)    nor its address                                  
 0000019C                                     608 ARGLP    DS    0H                                                                  
 0000019C 5850 3000               00000000    609          L     R5_32,0(,R3_32)    &LENGTH                                          
 000001A0 5860 4000               00000000    610          L     R6_32,0(,R4_32)    &VALUE                                           
 000001A4 E350 5000 0012          00000000    611          LT    R5_32,0(,R5_32)    LENGTH                                           
 000001AA A784 0175               00000494    612          JZ    ARGNEXT            Ignore NULL parameters                           
 000001AE 9140 D9E8      000009E8             613          TM    ONOFF,X'40'        -- SEEN ALREADY?                                 
 000001B2 A714 0006               000001BE    614          JO    NOTOPT             YES, - NO LONGER INDICATES OPTION                
 000001B6 9560 6000      00000000             615          CLI   0(R6_32),C'-'      OPTION?                                          
 000001BA A784 004A               0000024E    616          JE    IS_OPTION                                                           
 000001BE                                     617 NOTOPT   DS    0H                                                                  
 000001BE D503 D088 B018 00000088 000009D8    618          CLC   RNAME@,=A(0)                                                        
 000001C4 A784 0164               0000048C    619          JZ    MBRNAME                                                             
 000001C8 D503 D080 B018 00000080 000009D8    620          CLC   QNAME@,=A(0)                                                        
 000001CE A774 0012               000001F2    621          JNZ   ERROR2             TOO MANY ARGUMENTS                               
 000001D2 D203 D080 D088 00000080 00000088    622          MVC   QNAME@,RNAME@                                                       
 000001D8 D203 D084 D08C 00000084 0000008C    623          MVC   QNAMEL,RNAMEL                                                       
 000001DE A7F4 0157               0000048C    624          J     MBRNAME                                                             
 000001E2 D703 D088 D088 00000088 00000088    625          XC    RNAME@,RNAME@      ZERO RNAME ADDRESS                               
 000001E8 D203 D08C D088 0000008C 00000088    626          MVC   RNAMEL,RNAME@      AND LENGTH                                       
 000001EE A7F4 0153               00000494    627          J     ARGNEXT                                                             
 000001F2                                     628 ERROR2   DS    0H                                                                  
 000001F2 D203 D150 B01C 00000150 000009DC    629          MVC   BUFFERA,=A(PARMSGT2)                                                
 000001F8 A758 002D               0000002D    630          LHI   R5_32,LPARMSGT2                                                     
 000001FC 5050 D14C               0000014C    631          ST    R5_32,COUNT                                                         
 00000200 58F0 D144               00000144    632          L     R15_32,BPX1WRT                                                      
 00000204 4110 D198               00000198    633          LA    R1_32,CALLX                                                         
                                              634          CALL  (15),(STDERR,BUFFERA,ALET,COUNT,                        X           
                                                                 RETVAL,                                                 X           
                                                                 RETCODE,                                                X           
                                                                 RSNCODE),VL,                                            X           
                                                                 MF=(E,(1)),LINKINST=BASR                                            
                                              635+         SYSSTATE TEST                                             @L3A 01-CALL    
 00000208                                     636+         DS    0H                                                       01-CALL    
                                              637+         IHBOPLTX (15),(STDERR,BUFFERA,ALET,COUNT,RETVAL,RETCODE,RSNCODX01-CALL    
                                                 +               E),,MF=(E,(1))                                      @L1C            
                                              638+         SYSSTATE TEST                  TEST ASC ENVIRONMENT       @L1A 02-IHBOPLTX
                                              639+         IHBINNRR (1)                       LOAD REG 1 WITH LIST ADDR   02-IHBOPLTX
                                              640+         SYSSTATE TEST                  TEST ASC ENVIRONMENT       @L1A 03-IHBINNRR
 00000208 4100 B04C               00000A0C    641+         LA    0,STDERR           PICKUP  PARAMETER                     02-IHBOPLTX
 0000020C 5000 1000               00000000    642+         ST    0,0(0,1)                          STORE INTO PARAM. LIST 02-IHBOPLTX
1                                                                                                               Page   16            
   Active Usings: PARMS,R9  CONSTANTS,R11  CEECAA,R12  CEEDSA,R13                                                                    
0R-Loc    Object Code      Addr1    Addr2    Stmt  Source Statement                          HLASM R6.0  2012/03/05 10.22            
000000210 4100 D150               00000150    643+         LA    0,BUFFERA          PICKUP  PARAMETER                     02-IHBOPLTX
 00000214 5000 1004               00000004    644+         ST    0,4(0,1)                          STORE INTO PARAM. LIST 02-IHBOPLTX
 00000218 4100 B050               00000A10    645+         LA    0,ALET             PICKUP  PARAMETER                     02-IHBOPLTX
 0000021C 5000 1008               00000008    646+         ST    0,8(0,1)                          STORE INTO PARAM. LIST 02-IHBOPLTX
 00000220 4100 D14C               0000014C    647+         LA    0,COUNT            PICKUP  PARAMETER                     02-IHBOPLTX
 00000224 5000 100C               0000000C    648+         ST    0,12(0,1)                         STORE INTO PARAM. LIST 02-IHBOPLTX
 00000228 4100 D154               00000154    649+         LA    0,RETVAL           PICKUP  PARAMETER                     02-IHBOPLTX
 0000022C 5000 1010               00000010    650+         ST    0,16(0,1)                         STORE INTO PARAM. LIST 02-IHBOPLTX
 00000230 4100 D158               00000158    651+         LA    0,RETCODE          PICKUP  PARAMETER                     02-IHBOPLTX
 00000234 5000 1014               00000014    652+         ST    0,20(0,1)                         STORE INTO PARAM. LIST 02-IHBOPLTX
 00000238 4100 D15C               0000015C    653+         LA    0,RSNCODE          PICKUP  PARAMETER                     02-IHBOPLTX
 0000023C 5000 1018               00000018    654+         ST    0,24(0,1)                         STORE INTO PARAM. LIST 02-IHBOPLTX
 00000240 9680 1018      00000018             655+         OI    24(1),X'80'                SET LAST WORD BIT ON @G860P40 02-IHBOPLTX
 00000244 0DEF                                656+         BASR      14,15                                                01-CALL    
 00000246 A778 000E               0000000E    657          LHI   R7_32,14                                                            
 0000024A A7F4 0365               00000914    658          J     INITERR                                                             
 0000024E                                     659 IS_OPTION DS   0H                                                                  
 0000024E A75E 0002               00000002    660          CHI   R5_32,2 ONLY A DASH?                                                
 00000252 A784 00DC               0000040A    661          JE    BADOPT             MUST BE                                          
 00000256 9596 6001      00000001             662          CLI   1(R6_32),C'o'      OCTAL?                                           
 0000025A A784 00C2               000003DE    663          JE    MBOCTAL                                                             
 0000025E 9588 6001      00000001             664          CLI   1(R6_32),C'h'      HEXADECIMAN?                                     
 00000262 A784 00C9               000003F4    665          JE    MBHEX                                                               
 00000266 9584 6001      00000001             666          CLI   1(R6_32),C'd'      Debug output?                                    
 0000026A A784 00B2               000003CE    667          JE    MBdbug                                                              
 0000026E 9560 6001      00000001             668          CLI   1(R6_32),C'-'      End of options?                                  
 00000272 A784 00A6               000003BE    669          JE    MBeopts                                                             
 00000276 95A3 6001      00000001             670          CLI   1(R6_32),C't'      Change field separator?                          
 0000027A A784 0008               0000028A    671          JE    MBtabchar                                                           
 0000027E 956F 6001      00000001             672          CLI   1(R6_32),C'?'      Help ?                                           
 00000282 A784 0037               000002F0    673          JE    MBhelp                                                              
 00000286 A7F4 00C2               0000040A    674          J     BADOPT                                                              
 0000028A                                     675 MBtabchar DS   0H                                                                  
 0000028A A75E 0003               00000003    676          CHI   R5_32,3            Separator text in argument?                      
 0000028E A7D4 000C               000002A6    677          JNH   TSTNextArg         no check next arg                                
 00000292 A75A FFFD               FFFFFFFD    678          AHI   R5_32,-3           Decrement length                                 
 00000296 5050 D21C               0000021C    679          ST    R5_32,TABL         Save as length                                   
 0000029A 4110 6002               00000002    680          LA    R1_32,2(,R6_32)    Get address of next char                         
 0000029E 5010 D218               00000218    681          ST    R1_32,TAB@         Save as separator                                
 000002A2 A7F4 00F9               00000494    682          J     ARGNEXT                                                             
 000002A6                                     683 TSTNextArg DS  0h                                                                  
 000002A6 A72E 0001               00000001    684          CHI   R2_32,1            Was this the last argument?                      
 000002AA A784 00FB               000004A0    685          JE    ARGEND             Yes, well, ain't that a kick?                    
 000002AE 4150 3004               00000004    686          LA    R5_32,4(,R3_32)    Point to next length                             
 000002B2 4160 4004               00000004    687          LA    R6_32,4(,R4_32)    Point to next value address                      
 000002B6 5860 6000               00000000    688          L     R6_32,0(,R6_32)    Load addr of next value                          
 000002BA E350 5000 0012          00000000    689          LT    R5_32,0(,R5_32)    Load addr of length                              
 000002C0 A784 0010               000002E0    690          JZ    TSTIgn             IGNORE NULL Address                              
 000002C4 E350 5000 0012          00000000    691          LT    R5_32,0(,R5_32)    Load length                                      
 000002CA A784 000B               000002E0    692          JZ    TSTIgn             IGNORE NULL                                      
 000002CE 9560 6000      00000000             693          CLI   0(R6_32),C'-' DASH?                                                 
 000002D2 A784 00E1               00000494    694          JE    ARGNEXT                                                             
 000002D6 0650                                695          BCTR  R5_32,0                                                             
 000002D8 5050 D21C               0000021C    696          ST    R5_32,TABL                                                          
 000002DC 5060 D218               00000218    697          ST    R6_32,TAB@                                                          
1                                                                                                               Page   17            
   Active Usings: PARMS,R9  CONSTANTS,R11  CEECAA,R12  CEEDSA,R13                                                                    
0R-Loc    Object Code      Addr1    Addr2    Stmt  Source Statement                          HLASM R6.0  2012/03/05 10.22            
0                                             698 *                                                                                  
                                              699 * absorb the argument I just stole                                                 
 000002E0                                     700 TSTIgn   DS    0H                                                                  
 000002E0 4130 3004               00000004    701          LA    R3_32,4(,R3_32)                                                     
 000002E4 4140 4004               00000004    702          LA    R4_32,4(,R4_32)                                                     
 000002E8 A726 00D6               00000494    703          BRCT  R2_32,ARGNEXT                                                       
 000002EC A7F4 00DA               000004A0    704          J     ARGEND             I used up the last argument                      
 000002F0                                     705 MBhelp   DS    0H                                                                  
 000002F0 A75E 0003               00000003    706          CHI   R5_32,3                                                             
 000002F4 A774 008B               0000040A    707          JNE   BADOPT                                                              
 000002F8                                     708 IShelp   DS    0H                                                                  
 000002F8 D203 D150 B020 00000150 000009E0    709          MVC   BUFFERA,=A(HELPMSG)                                                 
 000002FE A758 01BE               000001BE    710          LHI   R5_32,LHELPMSG                                                      
 00000302 5050 D14C               0000014C    711          ST    R5_32,COUNT                                                         
 00000306 58F0 D144               00000144    712          L     R15_32,BPX1WRT                                                      
 0000030A 4110 D198               00000198    713          LA    R1_32,CALLX                                                         
                                              714          CALL  (15),(STDERR,BUFFERA,ALET,COUNT,                        X           
                                                                 RETVAL,                                                 X           
                                                                 RETCODE,                                                X           
                                                                 RSNCODE),VL,                                            X           
                                                                 MF=(E,(1)),LINKINST=BASR                                            
                                              715+         SYSSTATE TEST                                             @L3A 01-CALL    
 0000030E                                     716+         DS    0H                                                       01-CALL    
                                              717+         IHBOPLTX (15),(STDERR,BUFFERA,ALET,COUNT,RETVAL,RETCODE,RSNCODX01-CALL    
                                                 +               E),,MF=(E,(1))                                      @L1C            
                                              718+         SYSSTATE TEST                  TEST ASC ENVIRONMENT       @L1A 02-IHBOPLTX
                                              719+         IHBINNRR (1)                       LOAD REG 1 WITH LIST ADDR   02-IHBOPLTX
                                              720+         SYSSTATE TEST                  TEST ASC ENVIRONMENT       @L1A 03-IHBINNRR
 0000030E 4100 B04C               00000A0C    721+         LA    0,STDERR           PICKUP  PARAMETER                     02-IHBOPLTX
 00000312 5000 1000               00000000    722+         ST    0,0(0,1)                          STORE INTO PARAM. LIST 02-IHBOPLTX
 00000316 4100 D150               00000150    723+         LA    0,BUFFERA          PICKUP  PARAMETER                     02-IHBOPLTX
 0000031A 5000 1004               00000004    724+         ST    0,4(0,1)                          STORE INTO PARAM. LIST 02-IHBOPLTX
 0000031E 4100 B050               00000A10    725+         LA    0,ALET             PICKUP  PARAMETER                     02-IHBOPLTX
 00000322 5000 1008               00000008    726+         ST    0,8(0,1)                          STORE INTO PARAM. LIST 02-IHBOPLTX
 00000326 4100 D14C               0000014C    727+         LA    0,COUNT            PICKUP  PARAMETER                     02-IHBOPLTX
 0000032A 5000 100C               0000000C    728+         ST    0,12(0,1)                         STORE INTO PARAM. LIST 02-IHBOPLTX
 0000032E 4100 D154               00000154    729+         LA    0,RETVAL           PICKUP  PARAMETER                     02-IHBOPLTX
 00000332 5000 1010               00000010    730+         ST    0,16(0,1)                         STORE INTO PARAM. LIST 02-IHBOPLTX
 00000336 4100 D158               00000158    731+         LA    0,RETCODE          PICKUP  PARAMETER                     02-IHBOPLTX
 0000033A 5000 1014               00000014    732+         ST    0,20(0,1)                         STORE INTO PARAM. LIST 02-IHBOPLTX
 0000033E 4100 D15C               0000015C    733+         LA    0,RSNCODE          PICKUP  PARAMETER                     02-IHBOPLTX
 00000342 5000 1018               00000018    734+         ST    0,24(0,1)                         STORE INTO PARAM. LIST 02-IHBOPLTX
 00000346 9680 1018      00000018             735+         OI    24(1),X'80'                SET LAST WORD BIT ON @G860P40 02-IHBOPLTX
 0000034A 0DEF                                736+         BASR      14,15                                                01-CALL    
 0000034C D703 D178 D178 00000178 00000178    737          XC    RETURN_CODE,RETURN_CODE                                             
 00000352 5810 9000               00000000    738          L     R1_32,@ARGC                                                         
 00000356 5810 1000               00000000    739          L     R1_32,0(,R1_32)                                                     
 0000035A A71E 0002               00000002    740          CHI   R1_32,2                                                             
 0000035E A7D4 FE90               0000007E    741          JNH   GOBACK                                                              
 00000362                                     742 ERROR4   DS    0H                                                                  
 00000362 D203 D150 B024 00000150 000009E4    743          MVC   BUFFERA,=A(PARMSbd4)                                                
 00000368 A758 0028               00000028    744          LHI   R5_32,LPARMSbd4                                                     
 0000036C 5050 D14C               0000014C    745          ST    R5_32,COUNT                                                         
 00000370 58F0 D144               00000144    746          L     R15_32,BPX1WRT                                                      
 00000374 4110 D198               00000198    747          LA    R1_32,CALLX                                                         
1                                                                                                               Page   18            
   Active Usings: PARMS,R9  CONSTANTS,R11  CEECAA,R12  CEEDSA,R13                                                                    
0R-Loc    Object Code      Addr1    Addr2    Stmt  Source Statement                          HLASM R6.0  2012/03/05 10.22            
0                                             748          CALL  (15),(STDERR,BUFFERA,ALET,COUNT,                        X           
                                                                 RETVAL,                                                 X           
                                                                 RETCODE,                                                X           
                                                                 RSNCODE),VL,                                            X           
                                                                 MF=(E,(1)),LINKINST=BASR                                            
                                              749+         SYSSTATE TEST                                             @L3A 01-CALL    
 00000378                                     750+         DS    0H                                                       01-CALL    
                                              751+         IHBOPLTX (15),(STDERR,BUFFERA,ALET,COUNT,RETVAL,RETCODE,RSNCODX01-CALL    
                                                 +               E),,MF=(E,(1))                                      @L1C            
                                              752+         SYSSTATE TEST                  TEST ASC ENVIRONMENT       @L1A 02-IHBOPLTX
                                              753+         IHBINNRR (1)                       LOAD REG 1 WITH LIST ADDR   02-IHBOPLTX
                                              754+         SYSSTATE TEST                  TEST ASC ENVIRONMENT       @L1A 03-IHBINNRR
 00000378 4100 B04C               00000A0C    755+         LA    0,STDERR           PICKUP  PARAMETER                     02-IHBOPLTX
 0000037C 5000 1000               00000000    756+         ST    0,0(0,1)                          STORE INTO PARAM. LIST 02-IHBOPLTX
 00000380 4100 D150               00000150    757+         LA    0,BUFFERA          PICKUP  PARAMETER                     02-IHBOPLTX
 00000384 5000 1004               00000004    758+         ST    0,4(0,1)                          STORE INTO PARAM. LIST 02-IHBOPLTX
 00000388 4100 B050               00000A10    759+         LA    0,ALET             PICKUP  PARAMETER                     02-IHBOPLTX
 0000038C 5000 1008               00000008    760+         ST    0,8(0,1)                          STORE INTO PARAM. LIST 02-IHBOPLTX
 00000390 4100 D14C               0000014C    761+         LA    0,COUNT            PICKUP  PARAMETER                     02-IHBOPLTX
 00000394 5000 100C               0000000C    762+         ST    0,12(0,1)                         STORE INTO PARAM. LIST 02-IHBOPLTX
 00000398 4100 D154               00000154    763+         LA    0,RETVAL           PICKUP  PARAMETER                     02-IHBOPLTX
 0000039C 5000 1010               00000010    764+         ST    0,16(0,1)                         STORE INTO PARAM. LIST 02-IHBOPLTX
 000003A0 4100 D158               00000158    765+         LA    0,RETCODE          PICKUP  PARAMETER                     02-IHBOPLTX
 000003A4 5000 1014               00000014    766+         ST    0,20(0,1)                         STORE INTO PARAM. LIST 02-IHBOPLTX
 000003A8 4100 D15C               0000015C    767+         LA    0,RSNCODE          PICKUP  PARAMETER                     02-IHBOPLTX
 000003AC 5000 1018               00000018    768+         ST    0,24(0,1)                         STORE INTO PARAM. LIST 02-IHBOPLTX
 000003B0 9680 1018      00000018             769+         OI    24(1),X'80'                SET LAST WORD BIT ON @G860P40 02-IHBOPLTX
 000003B4 0DEF                                770+         BASR      14,15                                                01-CALL    
 000003B6 A778 000D               0000000D    771          LHI   R7_32,13                                                            
 000003BA A7F4 02AD               00000914    772          J     INITERR                                                             
 000003BE                                     773 MBeopts  ds    0h                                                                  
 000003BE A75E 0003               00000003    774          CHI   R5_32,3                                                             
 000003C2 A774 0024               0000040A    775          JNE   BADOPT                                                              
 000003C6 9640 D9E8      000009E8             776          OI    ONOFF,X'40'                                                         
 000003CA A7F4 0065               00000494    777          J     ARGNEXT                                                             
 000003CE                                     778 MBdbug   DS    0H                                                                  
 000003CE A75E 0003               00000003    779          CHI   R5_32,3                                                             
 000003D2 A774 001C               0000040A    780          JNE   BADOPT                                                              
 000003D6 9680 D9E8      000009E8             781          OI    ONOFF,X'80'                                                         
 000003DA A7F4 005D               00000494    782          J     ARGNEXT                                                             
 000003DE                                     783 MBOCTAL  DS    0H                                                                  
 000003DE A75E 0003               00000003    784          CHI   R5_32,3                                                             
 000003E2 A774 0014               0000040A    785          JNE   BADOPT                                                              
 000003E6 C0F0 0000 06D7          00001194    786          LARL  R15_32,DO_OCTAL                                                     
 000003EC 50F0 D094               00000094    787          ST    R15_32,ENCODE@                                                      
 000003F0 A7F4 0052               00000494    788          J     ARGNEXT                                                             
 000003F4                                     789 MBHEX    DS    0H                                                                  
 000003F4 A75E 0003               00000003    790          CHI   R5_32,3                                                             
 000003F8 A774 0009               0000040A    791          JNE   BADOPT                                                              
 000003FC C0F0 0000 069D          00001136    792          LARL  R15_32,DO_HEX                                                       
 00000402 50F0 D094               00000094    793          ST    R15_32,ENCODE@                                                      
 00000406 A7F4 0047               00000494    794          J     ARGNEXT                                                             
 0000040A                                     795 BADOPT   DS    0H                                                                  
 0000040A C000 0000 0537          00000E78    796          LARL  R0_32,OPTMSG1                                                       
 00000410 A718 000F               0000000F    797          LHI   R1_32,OPTMSG1L                                                      
1                                                                                                               Page   19            
   Active Usings: PARMS,R9  CONSTANTS,R11  CEECAA,R12  CEEDSA,R13                                                                    
0R-Loc    Object Code      Addr1    Addr2    Stmt  Source Statement                          HLASM R6.0  2012/03/05 10.22            
000000414 9001 D958               00000958    798          STM   R0_32,R1_32,FIELD1@                                                 
 00000418 D707 D960 D960 00000960 00000960    799          XC    TAB1(8),TAB1                                                        
 0000041E 5050 D96C               0000096C    800          ST    R5_32,FIELD2L                                                       
 00000422 5060 D968               00000968    801          ST    R6_32,FIELD2@                                                       
 00000426 9801 B000               000009C0    802          LM    R0_32,R1_32,=A(NL,1)                                                
 0000042A 9001 D970               00000970    803          STM   R0_32,R1_32,TAB2                                                    
 0000042E A708 0004               00000004    804          LHI   R0_32,4                                                             
 00000432 5000 D210               00000210    805          ST    R0_32,IOV_COUNT                                                     
 00000436 4110 D198               00000198    806          LA    R1_32,CALLX                                                         
 0000043A 58F0 D148               00000148    807          L     R15_32,BPX1WRV                                                      
                                              808          CALL  (15),                                                   X           
                                                                 (STDERR,IOV_COUNT,IOV_STRUC,                            X           
                                                                 IOV_ALET,IOV_BUFFER_ALET,                               X           
                                                                 RETURN_VALUE,RETURN_CODE,REASON_CODE),VL,               X           
                                                                 MF=(E,(1)),LINKINST=BASR                                            
                                              809+         SYSSTATE TEST                                             @L3A 01-CALL    
 0000043E                                     810+         DS    0H                                                       01-CALL    
                                              811+         IHBOPLTX (15),(STDERR,IOV_COUNT,IOV_STRUC,IOV_ALET,IOV_BUFFER_X01-CALL    
                                                 +               ALET,RETURN_VALUE,RETURN_CODE,REASON_CODE),,MF=(E,(1))  X           
                                                 +                                                                   @L1C            
                                              812+         SYSSTATE TEST                  TEST ASC ENVIRONMENT       @L1A 02-IHBOPLTX
                                              813+         IHBINNRR (1)                       LOAD REG 1 WITH LIST ADDR   02-IHBOPLTX
                                              814+         SYSSTATE TEST                  TEST ASC ENVIRONMENT       @L1A 03-IHBINNRR
 0000043E 4100 B04C               00000A0C    815+         LA    0,STDERR           PICKUP  PARAMETER                     02-IHBOPLTX
 00000442 5000 1000               00000000    816+         ST    0,0(0,1)                          STORE INTO PARAM. LIST 02-IHBOPLTX
 00000446 4100 D210               00000210    817+         LA    0,IOV_COUNT        PICKUP  PARAMETER                     02-IHBOPLTX
 0000044A 5000 1004               00000004    818+         ST    0,4(0,1)                          STORE INTO PARAM. LIST 02-IHBOPLTX
 0000044E 4100 D958               00000958    819+         LA    0,IOV_STRUC        PICKUP  PARAMETER                     02-IHBOPLTX
 00000452 5000 1008               00000008    820+         ST    0,8(0,1)                          STORE INTO PARAM. LIST 02-IHBOPLTX
 00000456 4100 B050               00000A10    821+         LA    0,IOV_ALET         PICKUP  PARAMETER                     02-IHBOPLTX
 0000045A 5000 100C               0000000C    822+         ST    0,12(0,1)                         STORE INTO PARAM. LIST 02-IHBOPLTX
 0000045E 4100 B050               00000A10    823+         LA    0,IOV_BUFFER_ALET  PICKUP  PARAMETER                     02-IHBOPLTX
 00000462 5000 1010               00000010    824+         ST    0,16(0,1)                         STORE INTO PARAM. LIST 02-IHBOPLTX
 00000466 4100 D180               00000180    825+         LA    0,RETURN_VALUE     PICKUP  PARAMETER                     02-IHBOPLTX
 0000046A 5000 1014               00000014    826+         ST    0,20(0,1)                         STORE INTO PARAM. LIST 02-IHBOPLTX
 0000046E 4100 D178               00000178    827+         LA    0,RETURN_CODE      PICKUP  PARAMETER                     02-IHBOPLTX
 00000472 5000 1018               00000018    828+         ST    0,24(0,1)                         STORE INTO PARAM. LIST 02-IHBOPLTX
 00000476 4100 D184               00000184    829+         LA    0,REASON_CODE      PICKUP  PARAMETER                     02-IHBOPLTX
 0000047A 5000 101C               0000001C    830+         ST    0,28(0,1)                         STORE INTO PARAM. LIST 02-IHBOPLTX
 0000047E 9680 101C      0000001C             831+         OI    28(1),X'80'                SET LAST WORD BIT ON @G860P40 02-IHBOPLTX
 00000482 0DEF                                832+         BASR      14,15                                                01-CALL    
 00000484 A778 000C               0000000C    833          LHI   R7_32,12                                                            
 00000488 A7F4 0006               00000494    834          J     ARGNEXT                                                             
 0000048C                                     835 MBRNAME  DS    0H                                                                  
 0000048C 5050 D08C               0000008C    836          ST    R5_32,RNAMEL                                                        
 00000490 5060 D088               00000088    837          ST    R6_32,RNAME@                                                        
 00000494                                     838 ARGNEXT  DS    0H                                                                  
 00000494 4130 3004               00000004    839          LA    R3_32,4(,R3_32)                                                     
 00000498 4140 4004               00000004    840          LA    R4_32,4(,R4_32)                                                     
 0000049C A726 FE80               0000019C    841          BRCT  R2_32,ARGLP                                                         
 000004A0                                     842 ARGEND   DS    0H                                                                  
                                              843 * END OF ARGUMENT LOOP                                                             
                                              844 *                                                                                  
 000004A0 4100 D080               00000080    845          LA    R0_32,QNAME@                                                        
 000004A4 D503 D088 B018 00000088 000009D8    846          CLC   RNAME@,=A(0)                                                        
1                                                                                                               Page   20            
   Active Usings: PARMS,R9  CONSTANTS,R11  CEECAA,R12  CEEDSA,R13                                                                    
0R-Loc    Object Code      Addr1    Addr2    Stmt  Source Statement                          HLASM R6.0  2012/03/05 10.22            
0000004AA A774 0030               0000050A    847          JNZ   DOQNAME                                                             
 000004AE D203 D150 B028 00000150 000009E8    848          MVC   BUFFERA,=A(PARMSLT2)                                                
 000004B4 A758 0031               00000031    849          LHI   R5_32,LPARMSLT2                                                     
 000004B8 5050 D14C               0000014C    850          ST    R5_32,COUNT                                                         
 000004BC 58F0 D144               00000144    851          L     R15_32,BPX1WRT                                                      
 000004C0 4110 D198               00000198    852          LA    R1_32,CALLX                                                         
                                              853          CALL  (15),(STDERR,BUFFERA,ALET,COUNT,                        X           
                                                                 RETVAL,                                                 X           
                                                                 RETCODE,                                                X           
                                                                 RSNCODE),VL,                                            X           
                                                                 MF=(E,(1)),LINKINST=BASR                                            
                                              854+         SYSSTATE TEST                                             @L3A 01-CALL    
 000004C4                                     855+         DS    0H                                                       01-CALL    
                                              856+         IHBOPLTX (15),(STDERR,BUFFERA,ALET,COUNT,RETVAL,RETCODE,RSNCODX01-CALL    
                                                 +               E),,MF=(E,(1))                                      @L1C            
                                              857+         SYSSTATE TEST                  TEST ASC ENVIRONMENT       @L1A 02-IHBOPLTX
                                              858+         IHBINNRR (1)                       LOAD REG 1 WITH LIST ADDR   02-IHBOPLTX
                                              859+         SYSSTATE TEST                  TEST ASC ENVIRONMENT       @L1A 03-IHBINNRR
 000004C4 4100 B04C               00000A0C    860+         LA    0,STDERR           PICKUP  PARAMETER                     02-IHBOPLTX
 000004C8 5000 1000               00000000    861+         ST    0,0(0,1)                          STORE INTO PARAM. LIST 02-IHBOPLTX
 000004CC 4100 D150               00000150    862+         LA    0,BUFFERA          PICKUP  PARAMETER                     02-IHBOPLTX
 000004D0 5000 1004               00000004    863+         ST    0,4(0,1)                          STORE INTO PARAM. LIST 02-IHBOPLTX
 000004D4 4100 B050               00000A10    864+         LA    0,ALET             PICKUP  PARAMETER                     02-IHBOPLTX
 000004D8 5000 1008               00000008    865+         ST    0,8(0,1)                          STORE INTO PARAM. LIST 02-IHBOPLTX
 000004DC 4100 D14C               0000014C    866+         LA    0,COUNT            PICKUP  PARAMETER                     02-IHBOPLTX
 000004E0 5000 100C               0000000C    867+         ST    0,12(0,1)                         STORE INTO PARAM. LIST 02-IHBOPLTX
 000004E4 4100 D154               00000154    868+         LA    0,RETVAL           PICKUP  PARAMETER                     02-IHBOPLTX
 000004E8 5000 1010               00000010    869+         ST    0,16(0,1)                         STORE INTO PARAM. LIST 02-IHBOPLTX
 000004EC 4100 D158               00000158    870+         LA    0,RETCODE          PICKUP  PARAMETER                     02-IHBOPLTX
 000004F0 5000 1014               00000014    871+         ST    0,20(0,1)                         STORE INTO PARAM. LIST 02-IHBOPLTX
 000004F4 4100 D15C               0000015C    872+         LA    0,RSNCODE          PICKUP  PARAMETER                     02-IHBOPLTX
 000004F8 5000 1018               00000018    873+         ST    0,24(0,1)                         STORE INTO PARAM. LIST 02-IHBOPLTX
 000004FC 9680 1018      00000018             874+         OI    24(1),X'80'                SET LAST WORD BIT ON @G860P40 02-IHBOPLTX
 00000500 0DEF                                875+         BASR      14,15                                                01-CALL    
 00000502 A778 000B               0000000B    876          LHI   R7_32,11                                                            
 00000506 A7F4 0207               00000914    877          J     INITERR                                                             
 0000050A                                     878 DOQNAME  DS    0H                                                                  
 0000050A E350 D084 0012          00000084    879          LT    R5_32,QNAMEL       QNAME specified?                                 
 00000510 A774 000C               00000528    880          JNZ   GOTQNAME           Yes                                              
                                              881 *                                                                                  
                                              882 * INITIAIZE QNAME TO DEFAULT OF SYSDSN                                             
 00000514 C000 0000 02B6          00000A80    883          LARL  R0_32,SYSDSN                                                        
 0000051A 5000 D080               00000080    884          ST    R0_32,QNAME@                                                        
 0000051E A708 0007               00000007    885          LHI   R0_32,1+L'SYSDSN                                                    
 00000522 5000 D084               00000084    886          ST    R0_32,QNAMEL                                                        
                                              887 *                                                                                  
 00000526 1850                                888          LR    R5_32,R0_32                                                         
 00000528                                     889 GOTQNAME DS    0H                                                                  
 00000528 5860 D080               00000080    890          L     R6_32,QNAME@                                                        
 0000052C A75A FFFE               FFFFFFFE    891          AHI   R5_32,-2           DEC BY 1 FOR TRAILING 0x00 AND                   
                                              892 *                                 ANOTHER 1 FOR EX                                 
 00000530 D207 D220 B008 00000220 000009C8    893          MVC   QNAME,=CL8' '                                                       
 00000536 4450 B064               00000A24    894          EX    R5_32,CP_QNAME                                                      
 0000053A                                     895 DORNAME  DS    0H                                                                  
 0000053A 5850 D08C               0000008C    896          L     R5_32,RNAMEL                                                        
1                                                                                                               Page   21            
   Active Usings: PARMS,R9  CONSTANTS,R11  CEECAA,R12  CEEDSA,R13                                                                    
0R-Loc    Object Code      Addr1    Addr2    Stmt  Source Statement                          HLASM R6.0  2012/03/05 10.22            
00000053E 0650                                897          BCTR  R5_32,0            IGNORE TRAILING 0x00                             
 00000540 5860 D088               00000088    898          L     R6_32,RNAME@                                                        
 00000544 A75E 00FF               000000FF    899          CHI   R5_32,255          CHECK AGAINST MAX LENGTH                         
 00000548 A7D4 0030               000005A8    900          JNH   RLENOK             TOO LONG                                         
 0000054C                                     901 ERROR3   DS    0H                                                                  
 0000054C D203 D150 B02C 00000150 000009EC    902          MVC   BUFFERA,=A(PARMSGT3)                                                
 00000552 A758 0025               00000025    903          LHI   R5_32,LPARMSGT3                                                     
 00000556 5050 D14C               0000014C    904          ST    R5_32,COUNT                                                         
 0000055A 58F0 D144               00000144    905          L     R15_32,BPX1WRT                                                      
 0000055E 4110 D198               00000198    906          LA    R1_32,CALLX                                                         
                                              907          CALL  (15),(STDERR,BUFFERA,ALET,COUNT,                        X           
                                                                 RETVAL,                                                 X           
                                                                 RETCODE,                                                X           
                                                                 RSNCODE),VL,                                            X           
                                                                 MF=(E,(1)),LINKINST=BASR                                            
                                              908+         SYSSTATE TEST                                             @L3A 01-CALL    
 00000562                                     909+         DS    0H                                                       01-CALL    
                                              910+         IHBOPLTX (15),(STDERR,BUFFERA,ALET,COUNT,RETVAL,RETCODE,RSNCODX01-CALL    
                                                 +               E),,MF=(E,(1))                                      @L1C            
                                              911+         SYSSTATE TEST                  TEST ASC ENVIRONMENT       @L1A 02-IHBOPLTX
                                              912+         IHBINNRR (1)                       LOAD REG 1 WITH LIST ADDR   02-IHBOPLTX
                                              913+         SYSSTATE TEST                  TEST ASC ENVIRONMENT       @L1A 03-IHBINNRR
 00000562 4100 B04C               00000A0C    914+         LA    0,STDERR           PICKUP  PARAMETER                     02-IHBOPLTX
 00000566 5000 1000               00000000    915+         ST    0,0(0,1)                          STORE INTO PARAM. LIST 02-IHBOPLTX
 0000056A 4100 D150               00000150    916+         LA    0,BUFFERA          PICKUP  PARAMETER                     02-IHBOPLTX
 0000056E 5000 1004               00000004    917+         ST    0,4(0,1)                          STORE INTO PARAM. LIST 02-IHBOPLTX
 00000572 4100 B050               00000A10    918+         LA    0,ALET             PICKUP  PARAMETER                     02-IHBOPLTX
 00000576 5000 1008               00000008    919+         ST    0,8(0,1)                          STORE INTO PARAM. LIST 02-IHBOPLTX
 0000057A 4100 D14C               0000014C    920+         LA    0,COUNT            PICKUP  PARAMETER                     02-IHBOPLTX
 0000057E 5000 100C               0000000C    921+         ST    0,12(0,1)                         STORE INTO PARAM. LIST 02-IHBOPLTX
 00000582 4100 D154               00000154    922+         LA    0,RETVAL           PICKUP  PARAMETER                     02-IHBOPLTX
 00000586 5000 1010               00000010    923+         ST    0,16(0,1)                         STORE INTO PARAM. LIST 02-IHBOPLTX
 0000058A 4100 D158               00000158    924+         LA    0,RETCODE          PICKUP  PARAMETER                     02-IHBOPLTX
 0000058E 5000 1014               00000014    925+         ST    0,20(0,1)                         STORE INTO PARAM. LIST 02-IHBOPLTX
 00000592 4100 D15C               0000015C    926+         LA    0,RSNCODE          PICKUP  PARAMETER                     02-IHBOPLTX
 00000596 5000 1018               00000018    927+         ST    0,24(0,1)                         STORE INTO PARAM. LIST 02-IHBOPLTX
 0000059A 9680 1018      00000018             928+         OI    24(1),X'80'                SET LAST WORD BIT ON @G860P40 02-IHBOPLTX
 0000059E 0DEF                                929+         BASR      14,15                                                01-CALL    
 000005A0 A778 000A               0000000A    930          LHI   R7_32,10                                                            
 000005A4 A7F4 01B8               00000914    931          J     INITERR                                                             
 000005A8                                     932 RLENOK   DS    0H                                                                  
 000005A8 0670                                933          BCTR  R7_32,0            7                                                
 000005AA 5050 D214               00000214    934          ST    R5_32,RNAME_LEN                                                     
 000005AE 0650                                935          BCTR  R5_32,0            DECREMENT BY 1                                   
 000005B0 4450 B06A               00000A2A    936          EX    R5_32,CP_RNAME                                                      
                                              937 *                                                                                  
                                              938 * FOR CONVIENCE, I WILL FORCE RNAMES TO UPPER CASE IF                              
                                              939 * THE QNAME IS DEFAULTED TO SYSDSN                                                 
 000005B4 D507 D220 B010 00000220 000009D0    940          CLC   QNAME,=CL8'SYSDSN'                                                  
 000005BA A774 0007               000005C8    941          JNE   OK1                                                                 
 000005BE 5850 D214               00000214    942          L     R5_32,RNAME_LEN                                                     
 000005C2 0650                                943          BCTR  R5_32,0                                                             
 000005C4 4450 B070               00000A30    944          EX    R5_32,TR_RNAME                                                      
 000005C8                                     945 OK1      DS    0H                                                                  
 000005C8 9180 D9E8      000009E8             946          TM    ONOFF,X'80'                                                         
1                                                                                                               Page   22            
   Active Usings: PARMS,R9  CONSTANTS,R11  CEECAA,R12  CEEDSA,R13                                                                    
0R-Loc    Object Code      Addr1    Addr2    Stmt  Source Statement                          HLASM R6.0  2012/03/05 10.22            
0000005CC A7E4 005D               00000686    947          JNO   NOWRT                                                               
 000005D0 4180 D327               00000327    948          LA    R8_32,QNAMEX       RECEIVING FIELD                                  
 000005D4 5080 D958               00000958    949          ST    R8_32,FIELD1@                                                       
 000005D8 A798 0008               00000008    950          LHI   R9_32,8                                                             
 000005DC 41A0 D220               00000220    951          LA    R10_32,QNAME                                                        
                                              952 *        AGO   .DOWRT1                                                             
 000005E0 C0E5 0000 0588          000010F0    953          BRASL R14_32,DO_ENCODE                                                    
 000005E6 5F80 D958               00000958    954          SL    R8_32,FIELD1@                                                       
 000005EA 5080 D95C               0000095C    955          ST    R8_32,FIELD1L                                                       
 000005EE A78E 0020               00000020    956          CHI   R8_32,8*4                                                           
 000005F2 A724 0001               000005F4    957          JH    *+2                                                                 
 000005F6 5800 D218               00000218    958          L     R0_32,TAB@                                                          
 000005FA 5810 D21C               0000021C    959          L     R1_32,TABL                                                          
 000005FE 9001 D960               00000960    960          STM   R0_32,R1_32,TAB1                                                    
 00000602 4180 D357               00000357    961          LA    R8_32,RNAMEX                                                        
 00000606 5080 D968               00000968    962          ST    R8_32,FIELD2@                                                       
 0000060A 5890 D214               00000214    963          L     R9_32,RNAME_LEN                                                     
 0000060E 41A0 D228               00000228    964          LA    R10_32,RNAME                                                        
 00000612 C0E5 0000 056F          000010F0    965          BRASL R14_32,DO_ENCODE                                                    
 00000618 5F80 D968               00000968    966          SL    R8_32,FIELD2@                                                       
 0000061C 5080 D96C               0000096C    967          ST    R8_32,FIELD2L                                                       
 00000620 A78E 03FC               000003FC    968          CHI   R8_32,255*4                                                         
 00000624 A724 0001               00000626    969          JH    *+2                                                                 
 00000628 9801 B000               000009C0    970          LM    R0_32,R1_32,=A(NL,1)                                                
 0000062C 9001 D970               00000970    971          STM   R0_32,R1_32,TAB2                                                    
 00000630 A708 0004               00000004    972          LHI   R0_32,4                                                             
 00000634 5000 D210               00000210    973          ST    R0_32,IOV_COUNT                                                     
 00000638 4110 D198               00000198    974          LA    R1_32,CALLX                                                         
 0000063C 58F0 D148               00000148    975          L     R15_32,BPX1WRV                                                      
                                              976          CALL  (15),                                                   X           
                                                                 (STDERR,IOV_COUNT,IOV_STRUC,                            X           
                                                                 IOV_ALET,IOV_BUFFER_ALET,                               X           
                                                                 RETURN_VALUE,RETURN_CODE,REASON_CODE),VL,               X           
                                                                 MF=(E,(1)),LINKINST=BASR                                            
                                              977+         SYSSTATE TEST                                             @L3A 01-CALL    
 00000640                                     978+         DS    0H                                                       01-CALL    
                                              979+         IHBOPLTX (15),(STDERR,IOV_COUNT,IOV_STRUC,IOV_ALET,IOV_BUFFER_X01-CALL    
                                                 +               ALET,RETURN_VALUE,RETURN_CODE,REASON_CODE),,MF=(E,(1))  X           
                                                 +                                                                   @L1C            
                                              980+         SYSSTATE TEST                  TEST ASC ENVIRONMENT       @L1A 02-IHBOPLTX
                                              981+         IHBINNRR (1)                       LOAD REG 1 WITH LIST ADDR   02-IHBOPLTX
                                              982+         SYSSTATE TEST                  TEST ASC ENVIRONMENT       @L1A 03-IHBINNRR
 00000640 4100 B04C               00000A0C    983+         LA    0,STDERR           PICKUP  PARAMETER                     02-IHBOPLTX
 00000644 5000 1000               00000000    984+         ST    0,0(0,1)                          STORE INTO PARAM. LIST 02-IHBOPLTX
 00000648 4100 D210               00000210    985+         LA    0,IOV_COUNT        PICKUP  PARAMETER                     02-IHBOPLTX
 0000064C 5000 1004               00000004    986+         ST    0,4(0,1)                          STORE INTO PARAM. LIST 02-IHBOPLTX
 00000650 4100 D958               00000958    987+         LA    0,IOV_STRUC        PICKUP  PARAMETER                     02-IHBOPLTX
 00000654 5000 1008               00000008    988+         ST    0,8(0,1)                          STORE INTO PARAM. LIST 02-IHBOPLTX
 00000658 4100 B050               00000A10    989+         LA    0,IOV_ALET         PICKUP  PARAMETER                     02-IHBOPLTX
 0000065C 5000 100C               0000000C    990+         ST    0,12(0,1)                         STORE INTO PARAM. LIST 02-IHBOPLTX
 00000660 4100 B050               00000A10    991+         LA    0,IOV_BUFFER_ALET  PICKUP  PARAMETER                     02-IHBOPLTX
 00000664 5000 1010               00000010    992+         ST    0,16(0,1)                         STORE INTO PARAM. LIST 02-IHBOPLTX
 00000668 4100 D180               00000180    993+         LA    0,RETURN_VALUE     PICKUP  PARAMETER                     02-IHBOPLTX
 0000066C 5000 1014               00000014    994+         ST    0,20(0,1)                         STORE INTO PARAM. LIST 02-IHBOPLTX
 00000670 4100 D178               00000178    995+         LA    0,RETURN_CODE      PICKUP  PARAMETER                     02-IHBOPLTX
1                                                                                                               Page   23            
   Active Usings: PARMS,R9  CONSTANTS,R11  CEECAA,R12  CEEDSA,R13                                                                    
0R-Loc    Object Code      Addr1    Addr2    Stmt  Source Statement                          HLASM R6.0  2012/03/05 10.22            
000000674 5000 1018               00000018    996+         ST    0,24(0,1)                         STORE INTO PARAM. LIST 02-IHBOPLTX
 00000678 4100 D184               00000184    997+         LA    0,REASON_CODE      PICKUP  PARAMETER                     02-IHBOPLTX
 0000067C 5000 101C               0000001C    998+         ST    0,28(0,1)                         STORE INTO PARAM. LIST 02-IHBOPLTX
 00000680 9680 101C      0000001C             999+         OI    28(1),X'80'                SET LAST WORD BIT ON @G860P40 02-IHBOPLTX
 00000684 0DEF                               1000+         BASR      14,15                                                01-CALL    
 00000686                                    1001 NOWRT    DS    0H                                                                  
                                             1002          ago   .nowrt1                                                             
                                             1003 .nowrt1  anop                                                                      
 00000686 5820 B044               00000A04   1004          L     R2_32,STORAGE_LENGTH                                                
                                             1005          STORAGE OBTAIN,                                               X           
                                                                 LENGTH=(2),                                             X           
                                                                 SP=10,                                                  X           
                                                                 BNDRY=PAGE                                                          
                                             1006+         SYSSTATE TEST            This macro sets SYSASCE and      @L8A 01-STORAGE 
 0000068A 1802                               1007+         LR     0,2                          .STORAGE LENGTH            01-STORAGE 
 0000068C 58F0 B030               000009F0   1008+         L      15,=AL1(B'00000000',(0*16),(10),B'00000110')           X01-STORAGE 
                                                 +                                             .CONTROL INFORMATION  @P9C            
 00000690 58E0 0010               00000010   1009+         L      14,16(0,0)                   .CVT ADDRESS               01-STORAGE 
 00000694 58EE 0304               00000304   1010+         L      14,772(14,0)                 .ADDR SYST LINKAGE TABLE   01-STORAGE 
 00000698 58EE 00A0               000000A0   1011+         L      14,160(14,0)                 .OBTAIN LX/EX FOR OBTAIN   01-STORAGE 
 0000069C B218 E000      00000000            1012+         PC     0(14)                        .PC TO STORAGE RTN         01-STORAGE 
 000006A0 5010 D0B0               000000B0   1013          ST    R1_32,RETURN@                                                       
 000006A4 D203 1000 B044 00000000 00000A04   1014          MVC   0(4,R1_32),STORAGE_LENGTH                                           
 000006AA 4110 D198               00000198   1015          LA    R1_32,CALLX                                                         
 000006AE 58F0 B060               00000A20   1016          L     R15_32,ISGQUERY                                                     
                                             1017          CALL  (15),                                                   X           
                                                                 (QNAME,RNAME,RNAME_LEN+3,GQLST,RETURN@),                X           
                                                                 VL,                                                     X           
                                                                 MF=(E,(1)),LINKINST=BASR                                            
                                             1018+         SYSSTATE TEST                                             @L3A 01-CALL    
 000006B2                                    1019+         DS    0H                                                       01-CALL    
                                             1020+         IHBOPLTX (15),(QNAME,RNAME,RNAME_LEN+3,GQLST,RETURN@),,MF=(E,(X01-CALL    
                                                 +               1))                                                 @L1C            
                                             1021+         SYSSTATE TEST                  TEST ASC ENVIRONMENT       @L1A 02-IHBOPLTX
                                             1022+         IHBINNRR (1)                       LOAD REG 1 WITH LIST ADDR   02-IHBOPLTX
                                             1023+         SYSSTATE TEST                  TEST ASC ENVIRONMENT       @L1A 03-IHBINNRR
 000006B2 4100 D220               00000220   1024+         LA    0,QNAME            PICKUP  PARAMETER                     02-IHBOPLTX
 000006B6 5000 1000               00000000   1025+         ST    0,0(0,1)                          STORE INTO PARAM. LIST 02-IHBOPLTX
 000006BA 4100 D228               00000228   1026+         LA    0,RNAME            PICKUP  PARAMETER                     02-IHBOPLTX
 000006BE 5000 1004               00000004   1027+         ST    0,4(0,1)                          STORE INTO PARAM. LIST 02-IHBOPLTX
 000006C2 4100 D217               00000217   1028+         LA    0,RNAME_LEN+3      PICKUP  PARAMETER                     02-IHBOPLTX
 000006C6 5000 1008               00000008   1029+         ST    0,8(0,1)                          STORE INTO PARAM. LIST 02-IHBOPLTX
 000006CA 4100 D0B4               000000B4   1030+         LA    0,GQLST            PICKUP  PARAMETER                     02-IHBOPLTX
 000006CE 5000 100C               0000000C   1031+         ST    0,12(0,1)                         STORE INTO PARAM. LIST 02-IHBOPLTX
 000006D2 4100 D0B0               000000B0   1032+         LA    0,RETURN@          PICKUP  PARAMETER                     02-IHBOPLTX
 000006D6 5000 1010               00000010   1033+         ST    0,16(0,1)                         STORE INTO PARAM. LIST 02-IHBOPLTX
 000006DA 9680 1010      00000010            1034+         OI    16(1),X'80'                SET LAST WORD BIT ON @G860P40 02-IHBOPLTX
 000006DE 0DEF                               1035+         BASR      14,15                                                01-CALL    
 000006E0 50F0 D178               00000178   1036          ST    R15_32,RETURN_CODE                                                  
 000006E4 12FF                               1037          LTR   R15_32,R15_32                                                       
 000006E6 A784 0062               000007AA   1038          JZ    GOOD1                                                               
 000006EA A7FE 0004               00000004   1039          CHI   R15_32,4           RC==4?                                           
 000006EE A774 000E               0000070A   1040          JNE   ERROR1             NO                                               
 000006F2 90F0 D0A8               000000A8   1041          STM   R15_32,R0_32,F_RC                                                   
                                             1042 *                                                                                  
1                                                                                                               Page   24            
   Active Usings: PARMS,R9  CONSTANTS,R11  CEECAA,R12  CEEDSA,R13                                                                    
0R-Loc    Object Code      Addr1    Addr2    Stmt  Source Statement                          HLASM R6.0  2012/03/05 10.22            
0                                            1043 * IF RC==4 AND MODIFIER=X'....0404' THIS MEANS                                     
                                             1044 * THAT NOTHING WAS FOUND. THIS IS FINE.                                            
 000006F6 D501 B040 D0AE 00000A00 000000AE   1045          CLC   =X'0404',F_MODIFIER+2                                               
                                             1046 *        CLHHSI F_MODIFIER+2,X'0404'                                               
 000006FC A774 0007               0000070A   1047          JNE   ERROR1                                                              
 00000700 D703 D178 D178 00000178 00000178   1048          XC    RETURN_CODE,RETURN_CODE                                             
 00000706 A7F4 003E               00000782   1049          J     GOOD2                                                               
                                             1050 .NOWRT2  ANOP                                                                      
 0000070A                                    1051 ERROR1   DS    0H                                                                  
 0000070A 4110 D198               00000198   1052          LA    R1_32,CALLX                                                         
 0000070E 9834 D0A8               000000A8   1053          LM    R3_32,R4_32,F_RC                                                    
 00000712 5820 D0B0               000000B0   1054          L     R2_32,RETURN@                                                       
 00000716 4120 2008               00000008   1055          LA    R2_32,8(,R2_32)                                                     
 0000071A 5020 D150               00000150   1056          ST    R2_32,BUFFERA                                                       
 0000071E 58F0 B058               00000A18   1057          L     R15_32,SPRINTF                                                      
                                             1058          CALL  (15),                                                   X           
                                                                 ((2),FORMAT,(3),(4)),                                   X           
                                                                 MF=(E,(1)),LINKINST=BASR                                            
                                             1059+         SYSSTATE TEST                                             @L3A 01-CALL    
 00000722                                    1060+         DS    0H                                                       01-CALL    
                                             1061+         IHBOPLTX (15),((2),FORMAT,(3),(4)),,MF=(E,(1))            @L1C 01-CALL    
                                             1062+         SYSSTATE TEST                  TEST ASC ENVIRONMENT       @L1A 02-IHBOPLTX
                                             1063+         IHBINNRR (1)                       LOAD REG 1 WITH LIST ADDR   02-IHBOPLTX
                                             1064+         SYSSTATE TEST                  TEST ASC ENVIRONMENT       @L1A 03-IHBINNRR
 00000722 5020 1000               00000000   1065+         ST    (2),0(0,1)                        STORE INTO PARAM. LIST 02-IHBOPLTX
 00000726 4100 B076               00000A36   1066+         LA    0,FORMAT           PICKUP  PARAMETER                     02-IHBOPLTX
 0000072A 5000 1004               00000004   1067+         ST    0,4(0,1)                          STORE INTO PARAM. LIST 02-IHBOPLTX
 0000072E 5030 1008               00000008   1068+         ST    (3),8(0,1)                        STORE INTO PARAM. LIST 02-IHBOPLTX
 00000732 5040 100C               0000000C   1069+         ST    (4),12(0,1)                       STORE INTO PARAM. LIST 02-IHBOPLTX
 00000736 0DEF                               1070+         BASR      14,15                                                01-CALL    
 00000738 50F0 D14C               0000014C   1071          ST    R15_32,COUNT                                                        
 0000073C 58F0 D144               00000144   1072          L     R15_32,BPX1WRT                                                      
 00000740 4110 D198               00000198   1073          LA    R1_32,CALLX                                                         
                                             1074          CALL  (15),(STDERR,BUFFERA,ALET,COUNT,                        X           
                                                                 RETVAL,                                                 X           
                                                                 RETCODE,                                                X           
                                                                 RSNCODE),VL,                                            X           
                                                                 MF=(E,(1)),LINKINST=BASR                                            
                                             1075+         SYSSTATE TEST                                             @L3A 01-CALL    
 00000744                                    1076+         DS    0H                                                       01-CALL    
                                             1077+         IHBOPLTX (15),(STDERR,BUFFERA,ALET,COUNT,RETVAL,RETCODE,RSNCODX01-CALL    
                                                 +               E),,MF=(E,(1))                                      @L1C            
                                             1078+         SYSSTATE TEST                  TEST ASC ENVIRONMENT       @L1A 02-IHBOPLTX
                                             1079+         IHBINNRR (1)                       LOAD REG 1 WITH LIST ADDR   02-IHBOPLTX
                                             1080+         SYSSTATE TEST                  TEST ASC ENVIRONMENT       @L1A 03-IHBINNRR
 00000744 4100 B04C               00000A0C   1081+         LA    0,STDERR           PICKUP  PARAMETER                     02-IHBOPLTX
 00000748 5000 1000               00000000   1082+         ST    0,0(0,1)                          STORE INTO PARAM. LIST 02-IHBOPLTX
 0000074C 4100 D150               00000150   1083+         LA    0,BUFFERA          PICKUP  PARAMETER                     02-IHBOPLTX
 00000750 5000 1004               00000004   1084+         ST    0,4(0,1)                          STORE INTO PARAM. LIST 02-IHBOPLTX
 00000754 4100 B050               00000A10   1085+         LA    0,ALET             PICKUP  PARAMETER                     02-IHBOPLTX
 00000758 5000 1008               00000008   1086+         ST    0,8(0,1)                          STORE INTO PARAM. LIST 02-IHBOPLTX
 0000075C 4100 D14C               0000014C   1087+         LA    0,COUNT            PICKUP  PARAMETER                     02-IHBOPLTX
 00000760 5000 100C               0000000C   1088+         ST    0,12(0,1)                         STORE INTO PARAM. LIST 02-IHBOPLTX
 00000764 4100 D154               00000154   1089+         LA    0,RETVAL           PICKUP  PARAMETER                     02-IHBOPLTX
 00000768 5000 1010               00000010   1090+         ST    0,16(0,1)                         STORE INTO PARAM. LIST 02-IHBOPLTX
1                                                                                                               Page   25            
   Active Usings: PARMS,R9  CONSTANTS,R11  CEECAA,R12  CEEDSA,R13                                                                    
0R-Loc    Object Code      Addr1    Addr2    Stmt  Source Statement                          HLASM R6.0  2012/03/05 10.22            
00000076C 4100 D158               00000158   1091+         LA    0,RETCODE          PICKUP  PARAMETER                     02-IHBOPLTX
 00000770 5000 1014               00000014   1092+         ST    0,20(0,1)                         STORE INTO PARAM. LIST 02-IHBOPLTX
 00000774 4100 D15C               0000015C   1093+         LA    0,RSNCODE          PICKUP  PARAMETER                     02-IHBOPLTX
 00000778 5000 1018               00000018   1094+         ST    0,24(0,1)                         STORE INTO PARAM. LIST 02-IHBOPLTX
 0000077C 9680 1018      00000018            1095+         OI    24(1),X'80'                SET LAST WORD BIT ON @G860P40 02-IHBOPLTX
 00000780 0DEF                               1096+         BASR      14,15                                                01-CALL    
 00000782                                    1097 GOOD2    DS    0H                                                                  
 00000782 E310 D0B0 0012          000000B0   1098          LT    R1_32,RETURN@                                                       
 00000788 A784 FC7B               0000007E   1099          JZ    GOBACK                                                              
 0000078C 5820 1000               00000000   1100          L     R2_32,0(,R1)                                                        
                                             1101          STORAGE RELEASE,                                              X           
                                                                 LENGTH=(2),                                             X           
                                                                 SP=10,                                                  X           
                                                                 ADDR=(1)                                                            
                                             1102+         SYSSTATE TEST            This macro sets SYSASCE and      @L8A 01-STORAGE 
 00000790 1802                               1103+         LR     0,2                          .STORAGE LENGTH            01-STORAGE 
 00000792 58F0 B034               000009F4   1104+         L      15,=AL1(B'00000000',(0*16),(10),B'00000011')           X01-STORAGE 
                                                 +                                             .CONTROL INFORMATION  @P9C            
 00000796 58E0 0010               00000010   1105+         L      14,16(0,0)                   .CVT ADDRESS               01-STORAGE 
 0000079A 58EE 0304               00000304   1106+         L      14,772(14,0)                 .ADDR SYST LINKAGE TABLE   01-STORAGE 
 0000079E 58EE 00CC               000000CC   1107+         L      14,204(14,0)                 .OBTAIN LX/EX FOR RELEASE  01-STORAGE 
 000007A2 B218 E000      00000000            1108+         PC     0(14)                        .PC TO STORAGE RTN         01-STORAGE 
 000007A6 A7F4 FC6C               0000007E   1109          J     GOBACK                                                              
 000007AA                                    1110 GOOD1    DS    0H                                                                  
 000007AA 5820 D0B0               000000B0   1111          L     R2_32,RETURN@                                                       
 000007AE 4130 2008               00000008   1112          LA    R3_32,8(,R2_32)                                                     
                     R:3 00000000            1113          USING RETURN_STRUC,R3_32                                                  
 000007B2 5800 D218               00000218   1114          L     R0_32,TAB@                                                          
 000007B6 5810 D21C               0000021C   1115          L     R1_32,TABL                                                          
 000007BA 9001 D960               00000960   1116          STM   R0_32,R1_32,TAB1                                                    
 000007BE 9001 D970               00000970   1117          STM   R0_32,R1_32,TAB2                                                    
 000007C2 9001 D980               00000980   1118          STM   R0_32,R1_32,TAB3                                                    
 000007C6 9001 D990               00000990   1119          STM   R0_32,R1_32,TAB4                                                    
 000007CA 9001 D9A0               000009A0   1120          STM   R0_32,R1_32,TAB5                                                    
 000007CE 9001 D9B0               000009B0   1121          STM   R0_32,R1_32,TAB6                                                    
 000007D2 9001 D9C0               000009C0   1122          STM   R0_32,R1_32,TAB7                                                    
 000007D6 9001 D9D0               000009D0   1123          STM   R0_32,R1_32,TAB8                                                    
 000007DA 9801 B000               000009C0   1124          LM    R0_32,R1_32,=A(NL,1)                                                
 000007DE 9001 D9E0               000009E0   1125          STM   R0_32,R1_32,NL1                                                     
 000007E2                                    1126 PRINT    DS    0H                                                                  
 000007E2 5530 2004               00000004   1127          CL    R3_32,4(,R2_32)                                                     
 000007E6 A7B4 FFCE               00000782   1128          JNL   GOOD2                                                               
 000007EA 4180 D327               00000327   1129          LA    R8_32,QNAMEX                                                        
 000007EE 5080 D958               00000958   1130          ST    R8_32,FIELD1@                                                       
 000007F2 A798 0008               00000008   1131          LHI   R9_32,8                                                             
 000007F6 41A0 3000               00000000   1132          LA    R10_32,RTN_QNAME                                                    
 000007FA C0E5 0000 047B          000010F0   1133          BRASL R14_32,DO_ENCODE                                                    
 00000800 A708 0008               00000008   1134          LHI   R0_32,8                                                             
 00000804 5F80 D958               00000958   1135          SL    R8_32,FIELD1@                                                       
 00000808 5080 D95C               0000095C   1136          ST    R8_32,FIELD1L                                                       
 0000080C A78E 0020               00000020   1137          chi   r8_32,8*4                                                           
 00000810 A724 0001               00000812   1138          JH    *+2                                                                 
 00000814 4110 3008               00000008   1139          LA    R1_32,RTN_JOBNAME                                                   
 00000818 5010 D978               00000978   1140          ST    R1_32,FIELD3@                                                       
 0000081C 5000 D97C               0000097C   1141          ST    R0_32,FIELD3L                                                       
1                                                                                                               Page   26            
   Active Usings: RETURN_STRUC,R3  PARMS,R9  CONSTANTS,R11  CEECAA,R12  CEEDSA,R13                                                   
0R-Loc    Object Code      Addr1    Addr2    Stmt  Source Statement                          HLASM R6.0  2012/03/05 10.22            
000000820 4110 301C               0000001C   1142          LA    R1_32,RTN_EXCSHR                                                    
 00000824 5010 D998               00000998   1143          ST    R1_32,FIELD5@                                                       
 00000828 5000 D99C               0000099C   1144          ST    R0_32,FIELD5L                                                       
 0000082C 4110 3014               00000014   1145          LA    R1_32,RTN_SYSNAME                                                   
 00000830 5010 D988               00000988   1146          ST    R1_32,FIELD4@                                                       
 00000834 5000 D98C               0000098C   1147          ST    R0_32,FIELD4L                                                       
 00000838 4110 3024               00000024   1148          LA    R1_32,RTN_STATUS                                                    
 0000083C 5010 D9A8               000009A8   1149          ST    R1_32,FIELD6@                                                       
 00000840 5000 D9AC               000009AC   1150          ST    R0_32,FIELD6L                                                       
 00000844 4110 302C               0000002C   1151          LA    R1_32,RTN_SCOPE                                                     
 00000848 5010 D9B8               000009B8   1152          ST    R1_32,FIELD7@                                                       
 0000084C 5000 D9BC               000009BC   1153          ST    R0_32,FIELD7L                                                       
 00000850 F384 D098 3034 00000098 00000034   1154          UNPK  D_RC(9),RTN_TCB(5)                                                  
 00000856 DC07 D098 B226 00000098 00000BE6   1155          TR    D_RC(8),TOHEX-X'F0'                                                 
 0000085C 4110 D098               00000098   1156          LA    R1_32,D_RC                                                          
 00000860 5010 D9C8               000009C8   1157          ST    R1_32,FIELD8@                                                       
 00000864 5000 D9CC               000009CC   1158          ST    R0_32,FIELD8L                                                       
 00000868 F342 D0A8 3038 000000A8 00000038   1159          UNPK  F_RC(5),RTN_ASID(3)                                                 
 0000086E DC03 D0A8 B226 000000A8 00000BE6   1160          TR    F_RC(4),TOHEX-X'F0'                                                 
 00000874 4110 D0A8               000000A8   1161          LA    R1_32,F_RC                                                          
 00000878 5010 D9D8               000009D8   1162          ST    R1_32,FIELD9@                                                       
 0000087C D203 D9DC B038 000009DC 000009F8   1163          MVC   FIELD9L,=F'4'                                                       
 00000882 4180 D357               00000357   1164          LA    R8_32,RNAMEX                                                        
 00000886 5080 D968               00000968   1165          ST    R8_32,FIELD2@                                                       
 0000088A 5890 3010               00000010   1166          L     R9_32,RTN_RLEN                                                      
 0000088E 41A0 303A               0000003A   1167          LA    R10_32,RTN_RNAME                                                    
 00000892 C0E5 0000 042F          000010F0   1168          BRASL R14_32,DO_ENCODE                                                    
 00000898 A708 0008               00000008   1169          LHI   R0_32,8                                                             
 0000089C 5F80 D968               00000968   1170          SL    R8_32,FIELD2@                                                       
 000008A0 5080 D96C               0000096C   1171          ST    R8_32,FIELD2L                                                       
 000008A4 D203 D210 B03C 00000210 000009FC   1172          MVC   IOV_COUNT,=A(IOV_STRUC_L/8)                                         
 000008AA 58A0 D210               00000210   1173          L     R10_32,IOV_COUNT                                                    
 000008AE A78E 03FC               000003FC   1174          chi   r8_32,255*4                                                         
 000008B2 A724 0001               000008B4   1175          jh    *+2                                                                 
 000008B6 A7AE 0012               00000012   1176          chi   r10_32,iov_struc_l/8                                                
 000008BA A724 0001               000008BC   1177          jh    *+2                                                                 
 000008BE 4110 D198               00000198   1178          LA    R1_32,CALLX                                                         
 000008C2 58F0 D148               00000148   1179          L     R15_32,BPX1WRV                                                      
                                             1180          CALL  (15),                                                   X           
                                                                 (STDOUT,IOV_COUNT,IOV_STRUC,                            X           
                                                                 IOV_ALET,IOV_BUFFER_ALET,                               X           
                                                                 RETURN_VALUE,RETURN_CODE,REASON_CODE),VL,               X           
                                                                 MF=(E,(1)),LINKINST=BASR                                            
                                             1181+         SYSSTATE TEST                                             @L3A 01-CALL    
 000008C6                                    1182+         DS    0H                                                       01-CALL    
                                             1183+         IHBOPLTX (15),(STDOUT,IOV_COUNT,IOV_STRUC,IOV_ALET,IOV_BUFFER_X01-CALL    
                                                 +               ALET,RETURN_VALUE,RETURN_CODE,REASON_CODE),,MF=(E,(1))  X           
                                                 +                                                                   @L1C            
                                             1184+         SYSSTATE TEST                  TEST ASC ENVIRONMENT       @L1A 02-IHBOPLTX
                                             1185+         IHBINNRR (1)                       LOAD REG 1 WITH LIST ADDR   02-IHBOPLTX
                                             1186+         SYSSTATE TEST                  TEST ASC ENVIRONMENT       @L1A 03-IHBINNRR
 000008C6 4100 B048               00000A08   1187+         LA    0,STDOUT           PICKUP  PARAMETER                     02-IHBOPLTX
 000008CA 5000 1000               00000000   1188+         ST    0,0(0,1)                          STORE INTO PARAM. LIST 02-IHBOPLTX
 000008CE 4100 D210               00000210   1189+         LA    0,IOV_COUNT        PICKUP  PARAMETER                     02-IHBOPLTX
 000008D2 5000 1004               00000004   1190+         ST    0,4(0,1)                          STORE INTO PARAM. LIST 02-IHBOPLTX
1                                                                                                               Page   27            
   Active Usings: RETURN_STRUC,R3  PARMS,R9  CONSTANTS,R11  CEECAA,R12  CEEDSA,R13                                                   
0R-Loc    Object Code      Addr1    Addr2    Stmt  Source Statement                          HLASM R6.0  2012/03/05 10.22            
0000008D6 4100 D958               00000958   1191+         LA    0,IOV_STRUC        PICKUP  PARAMETER                     02-IHBOPLTX
 000008DA 5000 1008               00000008   1192+         ST    0,8(0,1)                          STORE INTO PARAM. LIST 02-IHBOPLTX
 000008DE 4100 B050               00000A10   1193+         LA    0,IOV_ALET         PICKUP  PARAMETER                     02-IHBOPLTX
 000008E2 5000 100C               0000000C   1194+         ST    0,12(0,1)                         STORE INTO PARAM. LIST 02-IHBOPLTX
 000008E6 4100 B050               00000A10   1195+         LA    0,IOV_BUFFER_ALET  PICKUP  PARAMETER                     02-IHBOPLTX
 000008EA 5000 1010               00000010   1196+         ST    0,16(0,1)                         STORE INTO PARAM. LIST 02-IHBOPLTX
 000008EE 4100 D180               00000180   1197+         LA    0,RETURN_VALUE     PICKUP  PARAMETER                     02-IHBOPLTX
 000008F2 5000 1014               00000014   1198+         ST    0,20(0,1)                         STORE INTO PARAM. LIST 02-IHBOPLTX
 000008F6 4100 D178               00000178   1199+         LA    0,RETURN_CODE      PICKUP  PARAMETER                     02-IHBOPLTX
 000008FA 5000 1018               00000018   1200+         ST    0,24(0,1)                         STORE INTO PARAM. LIST 02-IHBOPLTX
 000008FE 4100 D184               00000184   1201+         LA    0,REASON_CODE      PICKUP  PARAMETER                     02-IHBOPLTX
 00000902 5000 101C               0000001C   1202+         ST    0,28(0,1)                         STORE INTO PARAM. LIST 02-IHBOPLTX
 00000906 9680 101C      0000001C            1203+         OI    28(1),X'80'                SET LAST WORD BIT ON @G860P40 02-IHBOPLTX
 0000090A 0DEF                               1204+         BASR      14,15                                                01-CALL    
 0000090C 4130 3139               00000139   1205          LA    R3_32,RTN_NEXT                                                      
 00000910 A7F4 FF69               000007E2   1206          J     PRINT                                                               
                                             1207          DROP  R3                                                                  
 00000914                                    1208 INITERR  DS    0H                                                                  
 00000914 5070 D178               00000178   1209          ST    R7_32,RETURN_CODE                                                   
 00000918 A77E 0010               00000010   1210          CHI   R7_32,16           NOT UNIX?                                        
 0000091C A774 0018               0000094C   1211          JNE   BADPARMS           BAD PARMS                                        
                                             1212 * I CAN'T ISSUE A MESSAGE, SO I GUESS A WTO IS NEEDED                              
                                             1213          WTO   'LSENQ NEEDS A UNIX ENVIRONMENT',                       X           
                                                                 ROUTCDE=11,                                             X           
                                                                 DESC=7                                                              
                                             1214+         SYSSTATE TEST                                             @MXA 01-WTO     
 00000920                                    1215+         CNOP  0,4                                                      01-WTO     
 00000920 A715 0015               0000094A   1216+         BRAS  1,IHB0091A               BRANCH AROUND MESSAGE      @LCC 01-WTO     
 00000924 0022                               1217+         DC    AL2(34)                  TEXT LENGTH            @YA17152 01-WTO     
 00000926 8000                               1218+         DC    B'1000000000000000'      MCSFLAGS                        01-WTO     
 00000928 D3E2C5D5D840D5C5                   1219+         DC    C'LSENQ NEEDS A UNIX ENVIRONMENT'                       X01-WTO     
 00000930 C5C4E240C140E4D5                                                                                                           
 00000938 C9E740C5D5E5C9D9                                                                                                           
 00000940 D6D5D4C5D5E3                                                                                                               
                                                 +                                        MESSAGE TEXT               @L6C            
 00000946 0200                               1220+         DC    B'0000001000000000'      DESCRIPTOR CODES                01-WTO     
 00000948 0020                               1221+         DC    B'0000000000100000'      ROUTING CODES                   01-WTO     
 0000094A                                    1222+IHB0091A DS    0H                                                       01-WTO     
 0000094A 0A23                               1223+         SVC   35                       ISSUE SVC 35               @L6A 01-WTO     
 0000094C                                    1224 BADPARMS DS    0H                                                                  
 0000094C 4120 D220               00000220   1225          LA    R2_32,ERRMSG1                                                       
 00000950 5020 D150               00000150   1226          ST    R2_32,BUFFERA      MESSAGE HERE                                     
 00000954 4110 D198               00000198   1227          LA    R1_32,CALLX                                                         
 00000958 58F0 B058               00000A18   1228          L     R15_32,SPRINTF                                                      
                                             1229 *                                                                                  
                                             1230 * Use sprintf to make a nice looking message.                                      
                                             1231          CALL  (15),                                                   X           
                                                                 ((2),ERRFMT1,(7)),                                      X           
                                                                 MF=(E,(1))                                                          
                                             1232+         SYSSTATE TEST                                             @L3A 01-CALL    
 0000095C                                    1233+         DS    0H                                                       01-CALL    
                                             1234+         IHBOPLTX (15),((2),ERRFMT1,(7)),,MF=(E,(1))               @L1C 01-CALL    
                                             1235+         SYSSTATE TEST                  TEST ASC ENVIRONMENT       @L1A 02-IHBOPLTX
                                             1236+         IHBINNRR (1)                       LOAD REG 1 WITH LIST ADDR   02-IHBOPLTX
                                             1237+         SYSSTATE TEST                  TEST ASC ENVIRONMENT       @L1A 03-IHBINNRR
1                                                                                                               Page   28            
   Active Usings: PARMS,R9  CONSTANTS,R11  CEECAA,R12  CEEDSA,R13                                                                    
0R-Loc    Object Code      Addr1    Addr2    Stmt  Source Statement                          HLASM R6.0  2012/03/05 10.22            
00000095C 5020 1000               00000000   1238+         ST    (2),0(0,1)                        STORE INTO PARAM. LIST 02-IHBOPLTX
 00000960 4100 B09E               00000A5E   1239+         LA    0,ERRFMT1          PICKUP  PARAMETER                     02-IHBOPLTX
 00000964 5000 1004               00000004   1240+         ST    0,4(0,1)                          STORE INTO PARAM. LIST 02-IHBOPLTX
 00000968 5070 1008               00000008   1241+         ST    (7),8(0,1)                        STORE INTO PARAM. LIST 02-IHBOPLTX
 0000096C 0DEF                               1242+         BALR  14,15                             BRANCH TO ENTRY POINT  01-CALL    
 0000096E 50F0 D14C               0000014C   1243          ST    R15_32,COUNT                                                        
 00000972 58F0 D144               00000144   1244          L     R15_32,BPX1WRT                                                      
 00000976 4110 D198               00000198   1245          LA    R1_32,CALLX                                                         
                                             1246          CALL  (15),(STDERR,BUFFERA,ALET,COUNT,                        X           
                                                                 RETVAL,                                                 X           
                                                                 RETCODE,                                                X           
                                                                 RSNCODE),VL,                                            X           
                                                                 MF=(E,(1)),LINKINST=BASR                                            
                                             1247+         SYSSTATE TEST                                             @L3A 01-CALL    
 0000097A                                    1248+         DS    0H                                                       01-CALL    
                                             1249+         IHBOPLTX (15),(STDERR,BUFFERA,ALET,COUNT,RETVAL,RETCODE,RSNCODX01-CALL    
                                                 +               E),,MF=(E,(1))                                      @L1C            
                                             1250+         SYSSTATE TEST                  TEST ASC ENVIRONMENT       @L1A 02-IHBOPLTX
                                             1251+         IHBINNRR (1)                       LOAD REG 1 WITH LIST ADDR   02-IHBOPLTX
                                             1252+         SYSSTATE TEST                  TEST ASC ENVIRONMENT       @L1A 03-IHBINNRR
 0000097A 4100 B04C               00000A0C   1253+         LA    0,STDERR           PICKUP  PARAMETER                     02-IHBOPLTX
 0000097E 5000 1000               00000000   1254+         ST    0,0(0,1)                          STORE INTO PARAM. LIST 02-IHBOPLTX
 00000982 4100 D150               00000150   1255+         LA    0,BUFFERA          PICKUP  PARAMETER                     02-IHBOPLTX
 00000986 5000 1004               00000004   1256+         ST    0,4(0,1)                          STORE INTO PARAM. LIST 02-IHBOPLTX
 0000098A 4100 B050               00000A10   1257+         LA    0,ALET             PICKUP  PARAMETER                     02-IHBOPLTX
 0000098E 5000 1008               00000008   1258+         ST    0,8(0,1)                          STORE INTO PARAM. LIST 02-IHBOPLTX
 00000992 4100 D14C               0000014C   1259+         LA    0,COUNT            PICKUP  PARAMETER                     02-IHBOPLTX
 00000996 5000 100C               0000000C   1260+         ST    0,12(0,1)                         STORE INTO PARAM. LIST 02-IHBOPLTX
 0000099A 4100 D154               00000154   1261+         LA    0,RETVAL           PICKUP  PARAMETER                     02-IHBOPLTX
 0000099E 5000 1010               00000010   1262+         ST    0,16(0,1)                         STORE INTO PARAM. LIST 02-IHBOPLTX
 000009A2 4100 D158               00000158   1263+         LA    0,RETCODE          PICKUP  PARAMETER                     02-IHBOPLTX
 000009A6 5000 1014               00000014   1264+         ST    0,20(0,1)                         STORE INTO PARAM. LIST 02-IHBOPLTX
 000009AA 4100 D15C               0000015C   1265+         LA    0,RSNCODE          PICKUP  PARAMETER                     02-IHBOPLTX
 000009AE 5000 1018               00000018   1266+         ST    0,24(0,1)                         STORE INTO PARAM. LIST 02-IHBOPLTX
 000009B2 9680 1018      00000018            1267+         OI    24(1),X'80'                SET LAST WORD BIT ON @G860P40 02-IHBOPLTX
 000009B6 0DEF                               1268+         BASR      14,15                                                01-CALL    
 000009B8 A7F4 FB63               0000007E   1269          J     GOBACK                                                              
 000009C0                                    1270 CONSTANTS DS   0D                                                                  
 000009C0                                    1271          LTORG *                                                                   
 000009C0 00000A7F00000001                   1272                =A(NL,1)                                                            
 000009C8 4040404040404040                   1273                =CL8' '                                                             
 000009D0 E2E8E2C4E2D54040                   1274                =CL8'SYSDSN'                                                        
 000009D8 00000000                           1275                =A(0)                                                               
 000009DC 00000E87                           1276                =A(PARMSGT2)                                                        
 000009E0 00000F32                           1277                =A(HELPMSG)                                                         
 000009E4 00000ED9                           1278                =A(PARMSbd4)                                                        
 000009E8 00000F01                           1279                =A(PARMSLT2)                                                        
 000009EC 00000EB4                           1280                =A(PARMSGT3)                                                        
 000009F0 00000A06                           1281                =AL1(B'00000000',(0*16),(10),B'00000110')                           
 000009F4 00000A03                           1282                =AL1(B'00000000',(0*16),(10),B'00000011')                           
 000009F8 00000004                           1283                =F'4'                                                               
 000009FC 00000012                           1284                =A(IOV_STRUC_L/8)                                                   
 00000A00 0404                               1285                =X'0404'                                                            
 00000A02 0000                                                                                                                       
 00000A04 00400000                           1286 STORAGE_LENGTH DC A(4*1024*1024)                                                   
1                                                                                                               Page   29            
   Active Usings: PARMS,R9  CONSTANTS,R11  CEECAA,R12  CEEDSA,R13                                                                    
0R-Loc    Object Code      Addr1    Addr2    Stmt  Source Statement                          HLASM R6.0  2012/03/05 10.22            
000000A08 00000001                           1287 STDOUT   DC    F'1'                                                                
 00000A0C 00000002                           1288 STDERR   DC    F'2'                                                                
 00000A10 00000000                           1289 ALET     DC    A(0)                                                                
                         00000A10            1290 IOV_ALET EQU   ALET                                                                
                         00000A10            1291 IOV_BUFFER_ALET EQU ALET                                                           
 00000A14 00000000                           1292 CEE3INF  DC    V(CEE3INF)                                                          
 00000A18 00000000                           1293 SPRINTF  DC    V(SPRINTF)                                                          
 00000A1C 00000000                           1294 CEE3DMP  DC    V(CEE3DMP)                                                          
 00000A20 00000000                           1295 ISGQUERY DC    V(ISGQUERY)                                                         
 00000A24 D200 D220 6000 00000220 00000000   1296 CP_QNAME MVC   QNAME(0),0(R6_32)                                                   
 00000A2A D200 D228 6000 00000228 00000000   1297 CP_RNAME MVC   RNAME(0),0(R6_32)                                                   
 00000A30 DC00 D228 B216 00000228 00000BD6   1298 TR_RNAME TR    RNAME(0),TOUPPER                                                    
 00000A36 C9E2C7D8E4C5D9E8                   1299 FORMAT   DC    C'ISGQUERY Return code=%i Modifier=%#8x',X'1500'                    
 00000A3E 40D985A3A4999540                                                                                                           
 00000A46 839684857E6C8940                                                                                                           
 00000A4E D496848986898599                                                                                                           
 00000A56 7E6C7BF8A71500                                                                                                             
 00000A5E                                    1300          DS    0H                                                                  
 00000A5E D3E2C5D5D840D781                   1301 ERRFMT1  DC    C'LSENQ Parameter error. code=%i',X'1500'                           
 00000A66 99819485A3859940                                                                                                           
 00000A6E 85999996994B4083                                                                                                           
 00000A76 9684857E6C891500                                                                                                           
 00000A7E                                    1302          DS    0H                 Align to HalfWord because TAB is                 
                                             1303 *                                 accessed via LARL as is SYSDSN                   
                                             1304 TAB      DC    C'&TAB'                                                             
 00000A7E 05                                     +TAB      DC    C'	'                                                                
                                             1305 NL       DC    C'&NL'           Doubles as alignment padding for SYSDSN            
 00000A7F 15                                     +NL       DC    C'
'             Doubles as alignment padding for SYSDSN            
 00000A80 E2E8E2C4E2D500                     1306 SYSDSN   DC    CL6'SYSDSN',X'00'                                                   
 00000A87 D3E2C5D5D840C4E4                   1307 TITLE    DC    CL80'LSENQ DUMP'                                                    
 00000A8F D4D7404040404040                                                                                                           
 00000A97 4040404040404040                                                                                                           
 00000A9F 4040404040404040                                                                                                           
 00000AA7 4040404040404040                                                                                                           
 00000AAF 4040404040404040                                                                                                           
 00000AB7 4040404040404040                                                                                                           
 00000ABF 4040404040404040                                                                                                           
 00000AC7 4040404040404040                                                                                                           
 00000ACF 4040404040404040                                                                                                           
 00000AD7 C2D3D6C3D2E26BE2                   1308 OPTIONS  DC    CL255'BLOCKS,STORAGE,REGST(256),GENOPTS'                            
 00000ADF E3D6D9C1C7C56BD9                                                                                                           
 00000AE7 C5C7E2E34DF2F5F6                                                                                                           
 00000AEF 5D6BC7C5D5D6D7E3                                                                                                           
 00000AF7 E240404040404040                                                                                                           
 00000AFF 4040404040404040                                                                                                           
 00000B07 4040404040404040                                                                                                           
 00000B0F 4040404040404040                                                                                                           
 00000B17 4040404040404040                                                                                                           
 00000B1F 4040404040404040                                                                                                           
 00000B27 4040404040404040                                                                                                           
 00000B2F 4040404040404040                                                                                                           
 00000B37 4040404040404040                                                                                                           
 00000B3F 4040404040404040                                                                                                           
 00000B47 4040404040404040                                                                                                           
 00000B4F 4040404040404040                                                                                                           
1                                                                                                               Page   30            
   Active Usings: PARMS,R9  CONSTANTS,R11  CEECAA,R12  CEEDSA,R13                                                                    
0R-Loc    Object Code      Addr1    Addr2    Stmt  Source Statement                          HLASM R6.0  2012/03/05 10.22            
000000B57 4040404040404040                                                                                                           
 00000B5F 4040404040404040                                                                                                           
 00000B67 4040404040404040                                                                                                           
 00000B6F 4040404040404040                                                                                                           
 00000B77 4040404040404040                                                                                                           
 00000B7F 4040404040404040                                                                                                           
 00000B87 4040404040404040                                                                                                           
 00000B8F 4040404040404040                                                                                                           
 00000B97 4040404040404040                                                                                                           
 00000B9F 4040404040404040                                                                                                           
 00000BA7 4040404040404040                                                                                                           
 00000BAF 4040404040404040                                                                                                           
 00000BB7 4040404040404040                                                                                                           
 00000BBF 4040404040404040                                                                                                           
 00000BC7 4040404040404040                                                                                                           
 00000BCF 40404040404040                                                                                                             
 00000BD6 0001020304050607                   1309 TOUPPER  DC    256AL1(*-TOUPPER)                                                   
 00000BDE 08090A0B0C0D0E0F                                                                                                           
 00000BE6 1011121314151617                                                                                                           
 00000BEE 18191A1B1C1D1E1F                                                                                                           
 00000BF6 2021222324252627                                                                                                           
 00000BFE 28292A2B2C2D2E2F                                                                                                           
 00000C06 3031323334353637                                                                                                           
 00000C0E 38393A3B3C3D3E3F                                                                                                           
 00000C16 4041424344454647                                                                                                           
 00000C1E 48494A4B4C4D4E4F                                                                                                           
 00000C26 5051525354555657                                                                                                           
 00000C2E 58595A5B5C5D5E5F                                                                                                           
 00000C36 6061626364656667                                                                                                           
 00000C3E 68696A6B6C6D6E6F                                                                                                           
 00000C46 7071727374757677                                                                                                           
 00000C4E 78797A7B7C7D7E7F                                                                                                           
 00000C56 8081828384858687                                                                                                           
 00000C5E 88898A8B8C8D8E8F                                                                                                           
 00000C66 9091929394959697                                                                                                           
 00000C6E 98999A9B9C9D9E9F                                                                                                           
 00000C76 A0A1A2A3A4A5A6A7                                                                                                           
 00000C7E A8A9AAABACADAEAF                                                                                                           
 00000C86 B0B1B2B3B4B5B6B7                                                                                                           
 00000C8E B8B9BABBBCBDBEBF                                                                                                           
 00000C96 C0C1C2C3C4C5C6C7                                                                                                           
 00000C9E C8C9CACBCCCDCECF                                                                                                           
 00000CA6 D0D1D2D3D4D5D6D7                                                                                                           
 00000CAE D8D9DADBDCDDDEDF                                                                                                           
 00000CB6 E0E1E2E3E4E5E6E7                                                                                                           
 00000CBE E8E9EAEBECEDEEEF                                                                                                           
 00000CC6 F0F1F2F3F4F5F6F7                                                                                                           
 00000CCE F8F9FAFBFCFDFEFF                                                                                                           
 00000CD6                00000CD6 00000C57   1310          ORG   TOUPPER+X'81'                                                       
 00000C57 C1C2C3C4C5C6C7C8                   1311          DC    C'ABCDEFGHI'                                                        
 00000C5F C9                                                                                                                         
 00000C60                00000C60 00000C67   1312          ORG   TOUPPER+X'91'                                                       
 00000C67 D1D2D3D4D5D6D7D8                   1313          DC    C'JKLMNOPQR'                                                        
 00000C6F D9                                                                                                                         
 00000C70                00000C70 00000C78   1314          ORG   TOUPPER+X'A2'                                                       
1                                                                                                               Page   31            
   Active Usings: PARMS,R9  CONSTANTS,R11  CEECAA,R12  CEEDSA,R13                                                                    
0R-Loc    Object Code      Addr1    Addr2    Stmt  Source Statement                          HLASM R6.0  2012/03/05 10.22            
000000C78 E2E3E4E5E6E7E8E9                   1315          DC    C'STUVWXYZ'                                                         
 00000C80                00000C80 00000CD6   1316          ORG                                                                       
 00000CD6 F0F1F2F3F4F5F6F7                   1317 TOHEX    DC    C'0123456789ABCDEF'                                                 
 00000CDE F8F9C1C2C3C4C5C6                                                                                                           
 00000CE8                                    1318          DS    0D                                                                  
                                             1319 PRNTABLE PRNTABLE abcdefghijklmnopqrstuvwxyz                                       
 00000CE8 0000000000000000                   1320+PRNTABLE DC    256X'00'                                                 01-PRNTABLE
 00000CF0 0000000000000000                                                                                                           
 00000CF8 0000000000000000                                                                                                           
 00000D00 0000000000000000                                                                                                           
 00000D08 0000000000000000                                                                                                           
 00000D10 0000000000000000                                                                                                           
 00000D18 0000000000000000                                                                                                           
 00000D20 0000000000000000                                                                                                           
 00000D28 0000000000000000                                                                                                           
 00000D30 0000000000000000                                                                                                           
 00000D38 0000000000000000                                                                                                           
 00000D40 0000000000000000                                                                                                           
 00000D48 0000000000000000                                                                                                           
 00000D50 0000000000000000                                                                                                           
 00000D58 0000000000000000                                                                                                           
 00000D60 0000000000000000                                                                                                           
 00000D68 0000000000000000                                                                                                           
 00000D70 0000000000000000                                                                                                           
 00000D78 0000000000000000                                                                                                           
 00000D80 0000000000000000                                                                                                           
 00000D88 0000000000000000                                                                                                           
 00000D90 0000000000000000                                                                                                           
 00000D98 0000000000000000                                                                                                           
 00000DA0 0000000000000000                                                                                                           
 00000DA8 0000000000000000                                                                                                           
 00000DB0 0000000000000000                                                                                                           
 00000DB8 0000000000000000                                                                                                           
 00000DC0 0000000000000000                                                                                                           
 00000DC8 0000000000000000                                                                                                           
 00000DD0 0000000000000000                                                                                                           
 00000DD8 0000000000000000                                                                                                           
 00000DE0 0000000000000000                                                                                                           
 00000DE8                00000DE8 00000D69   1321+         ORG   PRNTABLE+C'a'                                            01-PRNTABLE
 00000D69 81                                 1322+         DC    C'a'                                                     01-PRNTABLE
 00000D6A                00000D6A 00000D6A   1323+         ORG   PRNTABLE+C'b'                                            01-PRNTABLE
 00000D6A 82                                 1324+         DC    C'b'                                                     01-PRNTABLE
 00000D6B                00000D6B 00000D6B   1325+         ORG   PRNTABLE+C'c'                                            01-PRNTABLE
 00000D6B 83                                 1326+         DC    C'c'                                                     01-PRNTABLE
 00000D6C                00000D6C 00000D6C   1327+         ORG   PRNTABLE+C'd'                                            01-PRNTABLE
 00000D6C 84                                 1328+         DC    C'd'                                                     01-PRNTABLE
 00000D6D                00000D6D 00000D6D   1329+         ORG   PRNTABLE+C'e'                                            01-PRNTABLE
 00000D6D 85                                 1330+         DC    C'e'                                                     01-PRNTABLE
 00000D6E                00000D6E 00000D6E   1331+         ORG   PRNTABLE+C'f'                                            01-PRNTABLE
 00000D6E 86                                 1332+         DC    C'f'                                                     01-PRNTABLE
 00000D6F                00000D6F 00000D6F   1333+         ORG   PRNTABLE+C'g'                                            01-PRNTABLE
 00000D6F 87                                 1334+         DC    C'g'                                                     01-PRNTABLE
 00000D70                00000D70 00000D70   1335+         ORG   PRNTABLE+C'h'                                            01-PRNTABLE
 00000D70 88                                 1336+         DC    C'h'                                                     01-PRNTABLE
 00000D71                00000D71 00000D71   1337+         ORG   PRNTABLE+C'i'                                            01-PRNTABLE
1                                                                                                               Page   32            
   Active Usings: PARMS,R9  CONSTANTS,R11  CEECAA,R12  CEEDSA,R13                                                                    
0R-Loc    Object Code      Addr1    Addr2    Stmt  Source Statement                          HLASM R6.0  2012/03/05 10.22            
000000D71 89                                 1338+         DC    C'i'                                                     01-PRNTABLE
 00000D72                00000D72 00000D79   1339+         ORG   PRNTABLE+C'j'                                            01-PRNTABLE
 00000D79 91                                 1340+         DC    C'j'                                                     01-PRNTABLE
 00000D7A                00000D7A 00000D7A   1341+         ORG   PRNTABLE+C'k'                                            01-PRNTABLE
 00000D7A 92                                 1342+         DC    C'k'                                                     01-PRNTABLE
 00000D7B                00000D7B 00000D7B   1343+         ORG   PRNTABLE+C'l'                                            01-PRNTABLE
 00000D7B 93                                 1344+         DC    C'l'                                                     01-PRNTABLE
 00000D7C                00000D7C 00000D7C   1345+         ORG   PRNTABLE+C'm'                                            01-PRNTABLE
 00000D7C 94                                 1346+         DC    C'm'                                                     01-PRNTABLE
 00000D7D                00000D7D 00000D7D   1347+         ORG   PRNTABLE+C'n'                                            01-PRNTABLE
 00000D7D 95                                 1348+         DC    C'n'                                                     01-PRNTABLE
 00000D7E                00000D7E 00000D7E   1349+         ORG   PRNTABLE+C'o'                                            01-PRNTABLE
 00000D7E 96                                 1350+         DC    C'o'                                                     01-PRNTABLE
 00000D7F                00000D7F 00000D7F   1351+         ORG   PRNTABLE+C'p'                                            01-PRNTABLE
 00000D7F 97                                 1352+         DC    C'p'                                                     01-PRNTABLE
 00000D80                00000D80 00000D80   1353+         ORG   PRNTABLE+C'q'                                            01-PRNTABLE
 00000D80 98                                 1354+         DC    C'q'                                                     01-PRNTABLE
 00000D81                00000D81 00000D81   1355+         ORG   PRNTABLE+C'r'                                            01-PRNTABLE
 00000D81 99                                 1356+         DC    C'r'                                                     01-PRNTABLE
 00000D82                00000D82 00000D8A   1357+         ORG   PRNTABLE+C's'                                            01-PRNTABLE
 00000D8A A2                                 1358+         DC    C's'                                                     01-PRNTABLE
 00000D8B                00000D8B 00000D8B   1359+         ORG   PRNTABLE+C't'                                            01-PRNTABLE
 00000D8B A3                                 1360+         DC    C't'                                                     01-PRNTABLE
 00000D8C                00000D8C 00000D8C   1361+         ORG   PRNTABLE+C'u'                                            01-PRNTABLE
 00000D8C A4                                 1362+         DC    C'u'                                                     01-PRNTABLE
 00000D8D                00000D8D 00000D8D   1363+         ORG   PRNTABLE+C'v'                                            01-PRNTABLE
 00000D8D A5                                 1364+         DC    C'v'                                                     01-PRNTABLE
 00000D8E                00000D8E 00000D8E   1365+         ORG   PRNTABLE+C'w'                                            01-PRNTABLE
 00000D8E A6                                 1366+         DC    C'w'                                                     01-PRNTABLE
 00000D8F                00000D8F 00000D8F   1367+         ORG   PRNTABLE+C'x'                                            01-PRNTABLE
 00000D8F A7                                 1368+         DC    C'x'                                                     01-PRNTABLE
 00000D90                00000D90 00000D90   1369+         ORG   PRNTABLE+C'y'                                            01-PRNTABLE
 00000D90 A8                                 1370+         DC    C'y'                                                     01-PRNTABLE
 00000D91                00000D91 00000D91   1371+         ORG   PRNTABLE+C'z'                                            01-PRNTABLE
 00000D91 A9                                 1372+         DC    C'z'                                                     01-PRNTABLE
                                             1373 PRNTABLE PRNTABLE ABCDEFGHIJKLMNOPQRSTUVWXYZ                                       
 00000D92                00000D92 00000DA9   1374+         ORG   PRNTABLE+C'A'                                            01-PRNTABLE
 00000DA9 C1                                 1375+         DC    C'A'                                                     01-PRNTABLE
 00000DAA                00000DAA 00000DAA   1376+         ORG   PRNTABLE+C'B'                                            01-PRNTABLE
 00000DAA C2                                 1377+         DC    C'B'                                                     01-PRNTABLE
 00000DAB                00000DAB 00000DAB   1378+         ORG   PRNTABLE+C'C'                                            01-PRNTABLE
 00000DAB C3                                 1379+         DC    C'C'                                                     01-PRNTABLE
 00000DAC                00000DAC 00000DAC   1380+         ORG   PRNTABLE+C'D'                                            01-PRNTABLE
 00000DAC C4                                 1381+         DC    C'D'                                                     01-PRNTABLE
 00000DAD                00000DAD 00000DAD   1382+         ORG   PRNTABLE+C'E'                                            01-PRNTABLE
 00000DAD C5                                 1383+         DC    C'E'                                                     01-PRNTABLE
 00000DAE                00000DAE 00000DAE   1384+         ORG   PRNTABLE+C'F'                                            01-PRNTABLE
 00000DAE C6                                 1385+         DC    C'F'                                                     01-PRNTABLE
 00000DAF                00000DAF 00000DAF   1386+         ORG   PRNTABLE+C'G'                                            01-PRNTABLE
 00000DAF C7                                 1387+         DC    C'G'                                                     01-PRNTABLE
 00000DB0                00000DB0 00000DB0   1388+         ORG   PRNTABLE+C'H'                                            01-PRNTABLE
 00000DB0 C8                                 1389+         DC    C'H'                                                     01-PRNTABLE
 00000DB1                00000DB1 00000DB1   1390+         ORG   PRNTABLE+C'I'                                            01-PRNTABLE
 00000DB1 C9                                 1391+         DC    C'I'                                                     01-PRNTABLE
 00000DB2                00000DB2 00000DB9   1392+         ORG   PRNTABLE+C'J'                                            01-PRNTABLE
1                                                                                                               Page   33            
   Active Usings: PARMS,R9  CONSTANTS,R11  CEECAA,R12  CEEDSA,R13                                                                    
0R-Loc    Object Code      Addr1    Addr2    Stmt  Source Statement                          HLASM R6.0  2012/03/05 10.22            
000000DB9 D1                                 1393+         DC    C'J'                                                     01-PRNTABLE
 00000DBA                00000DBA 00000DBA   1394+         ORG   PRNTABLE+C'K'                                            01-PRNTABLE
 00000DBA D2                                 1395+         DC    C'K'                                                     01-PRNTABLE
 00000DBB                00000DBB 00000DBB   1396+         ORG   PRNTABLE+C'L'                                            01-PRNTABLE
 00000DBB D3                                 1397+         DC    C'L'                                                     01-PRNTABLE
 00000DBC                00000DBC 00000DBC   1398+         ORG   PRNTABLE+C'M'                                            01-PRNTABLE
 00000DBC D4                                 1399+         DC    C'M'                                                     01-PRNTABLE
 00000DBD                00000DBD 00000DBD   1400+         ORG   PRNTABLE+C'N'                                            01-PRNTABLE
 00000DBD D5                                 1401+         DC    C'N'                                                     01-PRNTABLE
 00000DBE                00000DBE 00000DBE   1402+         ORG   PRNTABLE+C'O'                                            01-PRNTABLE
 00000DBE D6                                 1403+         DC    C'O'                                                     01-PRNTABLE
 00000DBF                00000DBF 00000DBF   1404+         ORG   PRNTABLE+C'P'                                            01-PRNTABLE
 00000DBF D7                                 1405+         DC    C'P'                                                     01-PRNTABLE
 00000DC0                00000DC0 00000DC0   1406+         ORG   PRNTABLE+C'Q'                                            01-PRNTABLE
 00000DC0 D8                                 1407+         DC    C'Q'                                                     01-PRNTABLE
 00000DC1                00000DC1 00000DC1   1408+         ORG   PRNTABLE+C'R'                                            01-PRNTABLE
 00000DC1 D9                                 1409+         DC    C'R'                                                     01-PRNTABLE
 00000DC2                00000DC2 00000DCA   1410+         ORG   PRNTABLE+C'S'                                            01-PRNTABLE
 00000DCA E2                                 1411+         DC    C'S'                                                     01-PRNTABLE
 00000DCB                00000DCB 00000DCB   1412+         ORG   PRNTABLE+C'T'                                            01-PRNTABLE
 00000DCB E3                                 1413+         DC    C'T'                                                     01-PRNTABLE
 00000DCC                00000DCC 00000DCC   1414+         ORG   PRNTABLE+C'U'                                            01-PRNTABLE
 00000DCC E4                                 1415+         DC    C'U'                                                     01-PRNTABLE
 00000DCD                00000DCD 00000DCD   1416+         ORG   PRNTABLE+C'V'                                            01-PRNTABLE
 00000DCD E5                                 1417+         DC    C'V'                                                     01-PRNTABLE
 00000DCE                00000DCE 00000DCE   1418+         ORG   PRNTABLE+C'W'                                            01-PRNTABLE
 00000DCE E6                                 1419+         DC    C'W'                                                     01-PRNTABLE
 00000DCF                00000DCF 00000DCF   1420+         ORG   PRNTABLE+C'X'                                            01-PRNTABLE
 00000DCF E7                                 1421+         DC    C'X'                                                     01-PRNTABLE
 00000DD0                00000DD0 00000DD0   1422+         ORG   PRNTABLE+C'Y'                                            01-PRNTABLE
 00000DD0 E8                                 1423+         DC    C'Y'                                                     01-PRNTABLE
 00000DD1                00000DD1 00000DD1   1424+         ORG   PRNTABLE+C'Z'                                            01-PRNTABLE
 00000DD1 E9                                 1425+         DC    C'Z'                                                     01-PRNTABLE
                                             1426 PRNTABLE PRNTABLE 0123456789                                                       
 00000DD2                00000DD2 00000DD8   1427+         ORG   PRNTABLE+C'0'                                            01-PRNTABLE
 00000DD8 F0                                 1428+         DC    C'0'                                                     01-PRNTABLE
 00000DD9                00000DD9 00000DD9   1429+         ORG   PRNTABLE+C'1'                                            01-PRNTABLE
 00000DD9 F1                                 1430+         DC    C'1'                                                     01-PRNTABLE
 00000DDA                00000DDA 00000DDA   1431+         ORG   PRNTABLE+C'2'                                            01-PRNTABLE
 00000DDA F2                                 1432+         DC    C'2'                                                     01-PRNTABLE
 00000DDB                00000DDB 00000DDB   1433+         ORG   PRNTABLE+C'3'                                            01-PRNTABLE
 00000DDB F3                                 1434+         DC    C'3'                                                     01-PRNTABLE
 00000DDC                00000DDC 00000DDC   1435+         ORG   PRNTABLE+C'4'                                            01-PRNTABLE
 00000DDC F4                                 1436+         DC    C'4'                                                     01-PRNTABLE
 00000DDD                00000DDD 00000DDD   1437+         ORG   PRNTABLE+C'5'                                            01-PRNTABLE
 00000DDD F5                                 1438+         DC    C'5'                                                     01-PRNTABLE
 00000DDE                00000DDE 00000DDE   1439+         ORG   PRNTABLE+C'6'                                            01-PRNTABLE
 00000DDE F6                                 1440+         DC    C'6'                                                     01-PRNTABLE
 00000DDF                00000DDF 00000DDF   1441+         ORG   PRNTABLE+C'7'                                            01-PRNTABLE
 00000DDF F7                                 1442+         DC    C'7'                                                     01-PRNTABLE
 00000DE0                00000DE0 00000DE0   1443+         ORG   PRNTABLE+C'8'                                            01-PRNTABLE
 00000DE0 F8                                 1444+         DC    C'8'                                                     01-PRNTABLE
 00000DE1                00000DE1 00000DE1   1445+         ORG   PRNTABLE+C'9'                                            01-PRNTABLE
 00000DE1 F9                                 1446+         DC    C'9'                                                     01-PRNTABLE
                                             1447 PRNTABLE PRNTABLE `~!@#$%?*()_+-=                                                  
1                                                                                                               Page   34            
   Active Usings: PARMS,R9  CONSTANTS,R11  CEECAA,R12  CEEDSA,R13                                                                    
0R-Loc    Object Code      Addr1    Addr2    Stmt  Source Statement                          HLASM R6.0  2012/03/05 10.22            
000000DE2                00000DE2 00000D61   1448+         ORG   PRNTABLE+C'`'                                            01-PRNTABLE
 00000D61 79                                 1449+         DC    C'`'                                                     01-PRNTABLE
 00000D62                00000D62 00000D89   1450+         ORG   PRNTABLE+C'~'                                            01-PRNTABLE
 00000D89 A1                                 1451+         DC    C'~'                                                     01-PRNTABLE
 00000D8A                00000D8A 00000D42   1452+         ORG   PRNTABLE+C'!'                                            01-PRNTABLE
 00000D42 5A                                 1453+         DC    C'!'                                                     01-PRNTABLE
 00000D43                00000D43 00000D64   1454+         ORG   PRNTABLE+C'@'                                            01-PRNTABLE
 00000D64 7C                                 1455+         DC    C'@'                                                     01-PRNTABLE
 00000D65                00000D65 00000D63   1456+         ORG   PRNTABLE+C'#'                                            01-PRNTABLE
 00000D63 7B                                 1457+         DC    C'#'                                                     01-PRNTABLE
 00000D64                00000D64 00000D43   1458+         ORG   PRNTABLE+C'$'                                            01-PRNTABLE
 00000D43 5B                                 1459+         DC    C'$'                                                     01-PRNTABLE
 00000D44                00000D44 00000D54   1460+         ORG   PRNTABLE+C'%'                                            01-PRNTABLE
 00000D54 6C                                 1461+         DC    C'%'                                                     01-PRNTABLE
 00000D55                00000D55 00000D98   1462+         ORG   PRNTABLE+C'?'                                            01-PRNTABLE
 00000D98 B0                                 1463+         DC    C'?'                                                     01-PRNTABLE
 00000D99                00000D99 00000D44   1464+         ORG   PRNTABLE+C'*'                                            01-PRNTABLE
 00000D44 5C                                 1465+         DC    C'*'                                                     01-PRNTABLE
 00000D45                00000D45 00000D35   1466+         ORG   PRNTABLE+C'('                                            01-PRNTABLE
 00000D35 4D                                 1467+         DC    C'('                                                     01-PRNTABLE
 00000D36                00000D36 00000D45   1468+         ORG   PRNTABLE+C')'                                            01-PRNTABLE
 00000D45 5D                                 1469+         DC    C')'                                                     01-PRNTABLE
 00000D46                00000D46 00000D55   1470+         ORG   PRNTABLE+C'_'                                            01-PRNTABLE
 00000D55 6D                                 1471+         DC    C'_'                                                     01-PRNTABLE
 00000D56                00000D56 00000D36   1472+         ORG   PRNTABLE+C'+'                                            01-PRNTABLE
 00000D36 4E                                 1473+         DC    C'+'                                                     01-PRNTABLE
 00000D37                00000D37 00000D48   1474+         ORG   PRNTABLE+C'-'                                            01-PRNTABLE
 00000D48 60                                 1475+         DC    C'-'                                                     01-PRNTABLE
 00000D49                00000D49 00000D66   1476+         ORG   PRNTABLE+C'='                                            01-PRNTABLE
 00000D66 7E                                 1477+         DC    C'='                                                     01-PRNTABLE
                                             1478 PRNTABLE PRNTABLE []\{}|;"./<>?                                                    
 00000D67                00000D67 00000D95   1479+         ORG   PRNTABLE+C'['                                            01-PRNTABLE
 00000D95 AD                                 1480+         DC    C'['                                                     01-PRNTABLE
 00000D96                00000D96 00000DA5   1481+         ORG   PRNTABLE+C']'                                            01-PRNTABLE
 00000DA5 BD                                 1482+         DC    C']'                                                     01-PRNTABLE
 00000DA6                00000DA6 00000DC8   1483+         ORG   PRNTABLE+C'\'                                            01-PRNTABLE
 00000DC8 E0                                 1484+         DC    C'\'                                                     01-PRNTABLE
 00000DC9                00000DC9 00000DA8   1485+         ORG   PRNTABLE+C'{'                                            01-PRNTABLE
 00000DA8 C0                                 1486+         DC    C'{'                                                     01-PRNTABLE
 00000DA9                00000DA9 00000DB8   1487+         ORG   PRNTABLE+C'}'                                            01-PRNTABLE
 00000DB8 D0                                 1488+         DC    C'}'                                                     01-PRNTABLE
 00000DB9                00000DB9 00000D37   1489+         ORG   PRNTABLE+C'|'                                            01-PRNTABLE
 00000D37 4F                                 1490+         DC    C'|'                                                     01-PRNTABLE
 00000D38                00000D38 00000D46   1491+         ORG   PRNTABLE+C';'                                            01-PRNTABLE
 00000D46 5E                                 1492+         DC    C';'                                                     01-PRNTABLE
 00000D47                00000D47 00000D67   1493+         ORG   PRNTABLE+C'"'                                            01-PRNTABLE
 00000D67 7F                                 1494+         DC    C'"'                                                     01-PRNTABLE
 00000D68                00000D68 00000D33   1495+         ORG   PRNTABLE+C'.'                                            01-PRNTABLE
 00000D33 4B                                 1496+         DC    C'.'                                                     01-PRNTABLE
 00000D34                00000D34 00000D49   1497+         ORG   PRNTABLE+C'/'                                            01-PRNTABLE
 00000D49 61                                 1498+         DC    C'/'                                                     01-PRNTABLE
 00000D4A                00000D4A 00000D34   1499+         ORG   PRNTABLE+C'<'                                            01-PRNTABLE
 00000D34 4C                                 1500+         DC    C'<'                                                     01-PRNTABLE
 00000D35                00000D35 00000D56   1501+         ORG   PRNTABLE+C'>'                                            01-PRNTABLE
 00000D56 6E                                 1502+         DC    C'>'                                                     01-PRNTABLE
1                                                                                                               Page   35            
   Active Usings: PARMS,R9  CONSTANTS,R11  CEECAA,R12  CEEDSA,R13                                                                    
0R-Loc    Object Code      Addr1    Addr2    Stmt  Source Statement                          HLASM R6.0  2012/03/05 10.22            
000000D57                00000D57 00000D57   1503+         ORG   PRNTABLE+C'?'                                            01-PRNTABLE
 00000D57 6F                                 1504+         DC    C'?'                                                     01-PRNTABLE
 00000D58                00000D58 00000D28   1505          ORG   PRNTABLE+C' '                                                       
 00000D28 40                                 1506          DC    C' '                                                                
 00000D29                00000D29 00000D53   1507          ORG   PRNTABLE+C','                                                       
 00000D53 6B                                 1508          DC    C','                                                                
 00000D54                00000D54 00000D65   1509          ORG   PRNTABLE+C''''                                                      
 00000D65 7D                                 1510          DC    C''''                                                               
 00000D66                00000D66 00000D38   1511          ORG   PRNTABLE+C'&&'                                                      
 00000D38 50                                 1512          DC    C'&&'                                                               
 00000D39                00000D39 00000DE8   1513          ORG                                                                       
                                             1514          ISGQUERY MF=(L,GQPARM)                                                    
                                             1515+*                    MACDATE -02/27/08-<2>                                         
                                             1516+              PUSH  PRINT                                               01-ISGQUERY
                                             1517+                    PRINT ON                                            01-ISGQUERY
                         00000DE8            1518+M00M0110 EQU   GQPARM             ++ ISGQUERY NAME                      01-ISGQUERY
 00000DE8                                    1519+GQPARM   DS    0D                 ++ ISGQUERY PARM LIST                 01-ISGQUERY
 00000DE8                                    1520+GQPARM_XVERSION DS XL1            ++ INPUT XVERSION                     01-ISGQUERY
 00000DE9                                    1521+GQPARM_XREQINFO DS XL1            ++  XREQINFO                          01-ISGQUERY
                         00000001            1522+GQPARM_XREQINFO_RNLSEARCH EQU 1   ++ XREQINFO.RNLSEARCH KEYWORD         01-ISGQUERY
                         00000002            1523+GQPARM_XREQINFO_QSCAN EQU 2       ++ XREQINFO.QSCAN KEYWORD             01-ISGQUERY
                         00000003            1524+GQPARM_XREQINFO_ENQSTATS EQU 3    ++ XREQINFO.ENQSTATS KEYWORD          01-ISGQUERY
 00000DEA                                    1525+GQPARM_XSCOPE DS XL1              ++  XSCOPE                            01-ISGQUERY
                         00000000            1526+GQPARM_XSCOPE_ANY EQU 0           ++ XSCOPE.ANY KEYWORD                 01-ISGQUERY
                         00000001            1527+GQPARM_XSCOPE_STEP EQU 1          ++ XSCOPE.STEP KEYWORD                01-ISGQUERY
                         00000002            1528+GQPARM_XSCOPE_SYSTEM EQU 2        ++ XSCOPE.SYSTEM KEYWORD              01-ISGQUERY
                         00000003            1529+GQPARM_XSCOPE_SYSTEMS EQU 3       ++ XSCOPE.SYSTEMS KEYWORD             01-ISGQUERY
                         00000003            1530+GQPARM_XSCOPE_SYSPLEX EQU 3       ++ XSCOPE.SYSPLEX KEYWORD             01-ISGQUERY
 00000DEB                                    1531+GQPARM_XSCANACTION DS XL1         ++  XSCANACTION                       01-ISGQUERY
                         00000001            1532+GQPARM_XSCANACTION_START EQU 1    ++ XSCANACTION.START KEYWORD          01-ISGQUERY
                         00000002            1533+GQPARM_XSCANACTION_RESUME EQU 2   ++ XSCANACTION.RESUME KEYWORD         01-ISGQUERY
                         00000003            1534+GQPARM_XSCANACTION_QUIT EQU 3     ++ XSCANACTION.QUIT KEYWORD           01-ISGQUERY
 00000DEC                                    1535+GQPARM_XFLAGS1 DS BL.8            ++ FIELD_LABEL                        01-ISGQUERY
                         00000080            1536+GQPARM_XQNAMEMATCH_PATTERN EQU B'10000000'                             X01-ISGQUERY
                                                 +                                  ++ XQNAMEMATCH.PATTERN KEYWORD                   
                         00000040            1537+GQPARM_XRNAMEMATCH_SPECIFIC EQU B'01000000'                            X01-ISGQUERY
                                                 +                                  ++ XRNAMEMATCH.SPECIFIC KEYWORD                  
                         00000020            1538+GQPARM_XRNAMEMATCH_PATTERN EQU B'00100000'                             X01-ISGQUERY
                                                 +                                  ++ XRNAMEMATCH.PATTERN KEYWORD                   
                         00000010            1539+GQPARM_XSERIALIZEBY_RESERVE EQU B'00010000'                            X01-ISGQUERY
                                                 +                                  ++ XSERIALIZEBY.RESERVE KEYWORD                  
                         00000008            1540+GQPARM_XSERIALIZEBY_ENQ_ONLY EQU B'00001000'                           X01-ISGQUERY
                                                 +                                  ++ XSERIALIZEBY.ENQ_ONLY KEYWORD                 
                         00000004            1541+GQPARM_XUSERDATAMATCH_SPECIFIC EQU B'00000100'                         X01-ISGQUERY
                                                 +                                  ++ XUSERDATAMATCH.SPECIFIC KEYWORD               
                         00000002            1542+GQPARM_XUSERDATAMATCH_PATTERN EQU B'00000010'                          X01-ISGQUERY
                                                 +                                  ++ XUSERDATAMATCH.PATTERN KEYWORD                
                         00000001            1543+GQPARM_XMINREQUESTERS_NO_MINREQ EQU B'00000001'                        X01-ISGQUERY
                                                 +                                  ++ XMINREQUESTERS.NO_MINREQ KEYWORD              
 00000DED                                    1544+GQPARM_XFLAGS2 DS BL.8            ++ FIELD_LABEL                        01-ISGQUERY
                         00000001            1545+GQPARM_XMINOWNERS_NO_MINOWN EQU B'00000001'                            X01-ISGQUERY
                                                 +                                  ++ XMINOWNERS.NO_MINOWN KEYWORD                  
 00000DEE                                    1546+GQPARM_XFLAGS3 DS BL.8            ++ FIELD_LABEL                        01-ISGQUERY
                         00000001            1547+GQPARM_XMINWAITERS_NO_MINWAIT EQU B'00000001'                          X01-ISGQUERY
                                                 +                                  ++ XMINWAITERS.NO_MINWAIT KEYWORD                
1                                                                                                               Page   36            
   Active Usings: PARMS,R9  CONSTANTS,R11  CEECAA,R12  CEEDSA,R13                                                                    
0R-Loc    Object Code      Addr1    Addr2    Stmt  Source Statement                          HLASM R6.0  2012/03/05 10.22            
000000DEF                                    1548+GQPARM_XRSV0100 DS CL1            ++ RESERVED                           01-ISGQUERY
 00000DF0                                    1549+GQPARM_XTTOKEN DS CL16            ++                                    01-ISGQUERY
 00000E00                                    1550+GQPARM_XQNAME DS CL8              ++                                    01-ISGQUERY
 00000E08                                    1551+GQPARM_XSYSNAME DS CL8            ++                                    01-ISGQUERY
 00000E10                                    1552+GQPARM_XJOBNAME DS CL8            ++                                    01-ISGQUERY
 00000E18                                    1553+GQPARM_XRNAME_ADDR3164 DS AD      ++  ADDR3164                          01-ISGQUERY
 00000E20                                    1554+GQPARM_XRNLE_ADDR3164 DS AD       ++  ADDR3164                          01-ISGQUERY
 00000E28                                    1555+GQPARM_XANSAREA_ADDR3164 DS AD    ++  ADDR3164                          01-ISGQUERY
 00000E30                                    1556+GQPARM_XENQTOKEN_ADDR3164 DS AD   ++  ADDR3164                          01-ISGQUERY
 00000E38                                    1557+GQPARM_XRESUMETOKEN_ADDR3164 DS AD                                     X01-ISGQUERY
                                                 +                                  ++  ADDR3164                                     
 00000E40                                    1558+GQPARM_XRNAME_ALET DS F           ++  ALET                              01-ISGQUERY
 00000E44                                    1559+GQPARM_XRNLE_ALET DS F            ++  ALET                              01-ISGQUERY
 00000E48                                    1560+GQPARM_XANSAREA_ALET DS F         ++  ALET                              01-ISGQUERY
 00000E4C                                    1561+GQPARM_XENQTOKEN_ALET DS F        ++  ALET                              01-ISGQUERY
 00000E50                                    1562+GQPARM_XRESUMETOKEN_ALET DS F     ++  ALET                              01-ISGQUERY
 00000E54                                    1563+GQPARM_XANSLEN DS F               ++                                    01-ISGQUERY
 00000E58                                    1564+GQPARM_XMINREQUESTERS DS F        ++                                    01-ISGQUERY
 00000E5C                                    1565+GQPARM_XMINOWNERS DS F            ++                                    01-ISGQUERY
 00000E60                                    1566+GQPARM_XMINWAITERS DS F           ++                                    01-ISGQUERY
 00000E64                                    1567+GQPARM_XREQUESTERLIMIT DS XL2     ++                                    01-ISGQUERY
 00000E66                                    1568+GQPARM_XASID DS XL2               ++                                    01-ISGQUERY
 00000E68                                    1569+GQPARM_XRNAMELEN DS XL1           ++                                    01-ISGQUERY
 00000E69                                    1570+GQPARM_XANSDETAIL DS XL1          ++  XANSDETAIL                        01-ISGQUERY
                         00000001            1571+GQPARM_XANSDETAIL_SUMMARY EQU 1   ++ XANSDETAIL.SUMMARY KEYWORD         01-ISGQUERY
                         00000002            1572+GQPARM_XANSDETAIL_FULL EQU 2      ++ XANSDETAIL.FULL KEYWORD            01-ISGQUERY
                         00000003            1573+GQPARM_XANSDETAIL_FULL2 EQU 3     ++ XANSDETAIL.FULL2 KEYWORD           01-ISGQUERY
                         00000004            1574+GQPARM_XANSDETAIL_FULL3 EQU 4     ++ XANSDETAIL.FULL3 KEYWORD           01-ISGQUERY
 00000E6A                                    1575+GQPARM_XSEARCH DS XL1             ++  XSEARCH                           01-ISGQUERY
                         00000001            1576+GQPARM_XSEARCH_BY_FILTER EQU 1    ++ XSEARCH.BY_FILTER KEYWORD          01-ISGQUERY
                         00000002            1577+GQPARM_XSEARCH_BY_ENQTOKEN EQU 2  ++ XSEARCH.BY_ENQTOKEN KEYWORD        01-ISGQUERY
 00000E6B                                    1578+GQPARM_XGATHERFROM DS XL1         ++  XGATHERFROM                       01-ISGQUERY
                         00000000            1579+GQPARM_XGATHERFROM_SYSTEM EQU 0   ++ XGATHERFROM.SYSTEM KEYWORD         01-ISGQUERY
                         00000001            1580+GQPARM_XGATHERFROM_SYSPLEX EQU 1  ++ XGATHERFROM.SYSPLEX KEYWORD        01-ISGQUERY
 00000E6C                                    1581+GQPARM_XRNL DS XL1                ++  XRNL                              01-ISGQUERY
                         00000001            1582+GQPARM_XRNL_SIRNL EQU 1           ++ XRNL.SIRNL KEYWORD                 01-ISGQUERY
                         00000002            1583+GQPARM_XRNL_SERNL EQU 2           ++ XRNL.SERNL KEYWORD                 01-ISGQUERY
                         00000003            1584+GQPARM_XRNL_RCRNL EQU 3           ++ XRNL.RCRNL KEYWORD                 01-ISGQUERY
 00000E6D                                    1585+GQPARM_XRSV0200 DS CL1            ++ RESERVED                           01-ISGQUERY
 00000E6E                                    1586+GQPARM_XUSERDATALEN DS XL2        ++                                    01-ISGQUERY
 00000E70                                    1587+GQPARM_XRSVNNNN DS CL8            ++ RESERVED                           01-ISGQUERY
                         00000E78            1588+GQPARM_PL_END EQU *               ++ END OF BASE PLIST                  01-ISGQUERY
                         00000090            1589+GQPARML  EQU   *-GQPARM           ++ LENGTH OF PLIST                    01-ISGQUERY
0                                            1591+         POP   PRINT                                                    01-ISGQUERY
                                             1592+*                                            ISGQUERY-2                            
000000E78                                    1594          DS    0H                                                                  
 00000E78 E495929596A69540                   1595 OPTMSG1  DC    C'Unknown option:'                                                  
 00000E80 9697A38996957A                                                                                                             
                         0000000F            1596 OPTMSG1L EQU   *-OPTMSG1                                                           
                                             1597 PARMSGT2 DC    C'More than 2 non-option parameters specified.&NL'                  
 00000E87 D496998540A38881                       +PARMSGT2 DC    C'More than 2 non-option parameters specified.
'                    
 00000E8F 9540F24095969560                                                                                                           
 00000E97 9697A38996954097                                                                                                           
1                                                                                                               Page   37            
   Active Usings: PARMS,R9  CONSTANTS,R11  CEECAA,R12  CEEDSA,R13                                                                    
0R-Loc    Object Code      Addr1    Addr2    Stmt  Source Statement                          HLASM R6.0  2012/03/05 10.22            
000000E9F 8199819485A38599                                                                                                           
 00000EA7 A240A29785838986                                                                                                           
 00000EAF 8985844B15                                                                                                                 
                         0000002D            1598 LPARMSGT2 EQU  *-PARMSGT2                                                          
                                             1599 PARMSGT3 DC    C'RNAME length exceeds 255 characters.&NL.'                         
 00000EB4 D9D5C1D4C5409385                       +PARMSGT3 DC    C'RNAME length exceeds 255 characters.
'                            
 00000EBC 9587A3884085A783                                                                                                           
 00000EC4 858584A240F2F5F5                                                                                                           
 00000ECC 40838881998183A3                                                                                                           
 00000ED4 8599A24B15                                                                                                                 
                         00000025            1600 LPARMSGT3 EQU  *-PARMSGT3                                                          
                                             1601 PARMSbd4 DC    C'&NL.-? specified. Other arguments ignored.&NL.'                   
 00000ED9 15606F40A2978583                       +PARMSbd4 DC    C'
-? specified. Other arguments ignored.
'                         
 00000EE1 89868985844B40D6                                                                                                           
 00000EE9 A388859940819987                                                                                                           
 00000EF1 A4948595A3A24089                                                                                                           
 00000EF9 8795969985844B15                                                                                                           
                         00000028            1602 LPARMSbd4 EQU  *-PARMSbd4                                                          
 00000F01 C995A2A486868985                   1603 PARMSLT2 DC    C'Insuffient number of parameters. No RNAME '                       
 00000F09 95A34095A4948285                                                                                                           
 00000F11 9940968640978199                                                                                                           
 00000F19 819485A38599A24B                                                                                                           
 00000F21 40D59640D9D5C1D4                                                                                                           
 00000F29 C540                                                                                                                       
                                             1604          DC    C'found.&NL'                                                        
 00000F2B 8696A495844B15                         +         DC    C'found.
'                                                          
                         00000031            1605 LPARMSLT2 EQU  *-PARMSLT2                                                          
                                             1606 HELPMSG  DC    C'lsenq lists enqueue information.&NL.'                             
 00000F32 93A2859598409389                       +HELPMSG  DC    C'lsenq lists enqueue information.
'                                
 00000F3A A2A3A240859598A4                                                                                                           
 00000F42 85A4854089958696                                                                                                           
 00000F4A 999481A38996954B                                                                                                           
 00000F52 15                                                                                                                         
                                             1607          DC    C'-d requests "debugging" output.&NL.'                              
 00000F53 608440998598A485                       +         DC    C'-d requests "debugging" output.
'                                 
 00000F5B A2A3A2407F848582                                                                                                           
 00000F63 A487878995877F40                                                                                                           
 00000F6B 96A4A397A4A34B15                                                                                                           
                                             1608  DC C'-h requests nondisplay characters be output in hexadecimal.&NL.'             
 00000F73 608840998598A485                       + DC C'-h requests nondisplay characters be output in hexadecimal.
'                
 00000F7B A2A3A24095969584                                                                                                           
 00000F83 89A2979381A84083                                                                                                           
 00000F8B 8881998183A38599                                                                                                           
 00000F93 A24082854096A4A3                                                                                                           
 00000F9B 97A4A34089954088                                                                                                           
 00000FA3 85A7818485838994                                                                                                           
 00000FAB 81934B15                                                                                                                   
                                             1609  DC C'-o requests nondisplay characters be output in octal.&NL.'                   
 00000FAF 609640998598A485                       + DC C'-o requests nondisplay characters be output in octal.
'                      
 00000FB7 A2A3A24095969584                                                                                                           
 00000FBF 89A2979381A84083                                                                                                           
 00000FC7 8881998183A38599                                                                                                           
 00000FCF A24082854096A4A3                                                                                                           
 00000FD7 97A4A34089954096                                                                                                           
 00000FDF 83A381934B15                                                                                                               
1                                                                                                               Page   38            
   Active Usings: PARMS,R9  CONSTANTS,R11  CEECAA,R12  CEEDSA,R13                                                                    
0R-Loc    Object Code      Addr1    Addr2    Stmt  Source Statement                          HLASM R6.0  2012/03/05 10.22            
000000FE5 4040408986409585                   1610  DC C'   if neither, nondisplay characters will be replaced with a '               
 00000FED 89A38885996B4095                                                                                                           
 00000FF5 96958489A2979381                                                                                                           
 00000FFD A840838881998183                                                                                                           
 00001005 A38599A240A68993                                                                                                           
 0000100D 9340828540998597                                                                                                           
 00001015 938183858440A689                                                                                                           
 0000101D A388408140                                                                                                                 
                                             1611  DC C'dot.&NL.'                                                                    
 00001022 8496A34B15                             + DC C'dot.
'                                                                       
                                             1612  DC C'-t specifies the field separator character(s).&NL.'                          
 00001027 60A340A297858389                       + DC C'-t specifies the field separator character(s).
'                             
 0000102F 868985A240A38885                                                                                                           
 00001037 40868985938440A2                                                                                                           
 0000103F 8597819981A39699                                                                                                           
 00001047 40838881998183A3                                                                                                           
 0000104F 85994DA25D4B15                                                                                                             
                                             1613  DC C'   if not specified, it defaults to a tab.&NL.'                              
 00001056 4040408986409596                       + DC C'   if not specified, it defaults to a tab.
'                                 
 0000105E A340A29785838986                                                                                                           
 00001066 8985846B4089A340                                                                                                           
 0000106E 84858681A493A3A2                                                                                                           
 00001076 40A396408140A381                                                                                                           
 0000107E 824B15                                                                                                                     
 00001081 6060408696998385                   1614  DC C'-- forces subsequent arguments to not be intepreted '                        
 00001089 A240A2A482A28598                                                                                                           
 00001091 A48595A340819987                                                                                                           
 00001099 A4948595A3A240A3                                                                                                           
 000010A1 96409596A3408285                                                                                                           
 000010A9 408995A385979985                                                                                                           
 000010B1 A3858440                                                                                                                   
                                             1615  DC C'as options, but as data.&NL.'                                                
 000010B5 81A2409697A38996                       + DC C'as options, but as data.
'                                                   
 000010BD 95A26B4082A4A340                                                                                                           
 000010C5 81A2408481A3814B                                                                                                           
 000010CD 15                                                                                                                         
                                             1616  DC C'-? display this help information.&NL.'                                       
 000010CE 606F408489A29793                       + DC C'-? display this help information.
'                                          
 000010D6 81A840A38889A240                                                                                                           
 000010DE 8885939740899586                                                                                                           
 000010E6 96999481A3899695                                                                                                           
 000010EE 4B15                                                                                                                       
                         000001BE            1617 LHELPMSG EQU  *-HELPMSG                                                            
                         000010F0            1618 E_CONSTANTS EQU *                                                                  
                                             1619          PUSH  USING                                                               
                                             1620          DROP  R11_32                                                              
 000010F0                                    1621 DO_ENCODE DS   0H                                                                  
 000010F0 58F0 D094               00000094   1622          L     R15_32,ENCODE@                                                      
 000010F4 07FF                               1623          BR    R15_32                                                              
 000010F6                                    1624 DO_DOT   DS    0H                                                                  
 000010F6 90EC D00C               0000000C   1625          STM   R14_32,R12_32,12(R13_32)                                            
 000010FA A79E 00FF               000000FF   1626          CHI   R9_32,255                                                           
 000010FE C010 FFFF FDF5          00000CE8   1627          LARL  R1_32,PRNTABLE     POINT TO PRINT TABLE                             
 00001104 1F00                               1628          SLR   R0_32,R0_32        TEST CHAR IS X'00'                               
 00001106 B993 008A                          1629 D_TROO   TROO  R8_32,R10_32,0     MOVE AND TEST                                    
1                                                                                                               Page   39            
   Active Usings (1):PARMS,R9  CEECAA,R12  CEEDSA,R13                                                                                
0R-Loc    Object Code      Addr1    Addr2    Stmt  Source Statement                          HLASM R6.0  2012/03/05 10.22            
00000110A A714 FFFE               00001106   1630          JO    D_TROO             LOOP ON CC=3                                     
 0000110E A784 000F               0000112C   1631          JE    D_TROOE            FINISHED!                                        
                                             1632 *                                                                                  
                                             1633 * TRANSLATE TO A PERIOD                                                            
 00001112 924B 8000      00000000            1634          MVI   0(R8_32),C'.'                                                       
 00001116 41A0 A001               00000001   1635          LA    R10_32,1(,R10_32)                                                   
 0000111A 4180 8001               00000001   1636          LA    R8_32,1(,R8_32)                                                     
 0000111E C010 FFFF FDE5          00000CE8   1637          LARL  R1_32,PRNTABLE                                                      
 00001124 0690                               1638          BCTR  R9_32,0                                                             
 00001126 1299                               1639          LTR   R9_32,R9_32                                                         
 00001128 A724 FFEF               00001106   1640          JP    D_TROO                                                              
 0000112C                                    1641 D_TROOE  DS    0H                                                                  
 0000112C 5080 D034               00000034   1642          ST    R8_32,8*4+20(,R13_32)                                               
 00001130 98EC D00C               0000000C   1643          LM    R14_32,R12_32,12(R13_32)                                            
 00001134 07FE                               1644          BR    R14_32                                                              
 00001136                                    1645 DO_HEX   DS    0H                                                                  
 00001136 0DF0                               1646          BASR  R15_32,0                                                            
                     R:F 00001138            1647          USING (*,E_DO_HEX),R15_32                                                 
 00001138 90EC D00C               0000000C   1648          STM   R14_32,R12_32,12(R13_32)                                            
 0000113C A79E 00FF               000000FF   1649          CHI   R9_32,255                                                           
 00001140 C010 FFFF FDD4          00000CE8   1650          LARL  R1_32,PRNTABLE     POINT TO PRINT TABLE                             
 00001146 1F00                               1651          SLR   R0_32,R0_32        TEST CHAR IS X'00'                               
 00001148 B993 008A                          1652 H_TROO   TROO  R8_32,R10_32,0     MOVE AND TEST                                    
 0000114C A714 FFFE               00001148   1653          JO    H_TROO             LOOP ON CC=3                                     
 00001150 A784 001A               00001184   1654          JE    H_TROOE            FINISHED!                                        
                                             1655 *                                                                                  
                                             1656 * TRANSLATE TO HEXADECIMAL                                                         
 00001154 D202 8000 F058 00000000 00001190   1657          MVC   0(3,R8_32),=C'\0x'                                                  
 0000115A 1F33                               1658          SLR   R3_32,R3_32                                                         
 0000115C F321 8003 A000 00000003 00000000   1659          UNPK  3(3,R8_32),0(2,R10_32)                                              
 00001162 C010 FFFF FC2F          000009C0   1660          LARL  R1_32,CONSTANTS                                                     
                     R:1 000009C0            1661          USING (CONSTANTS,E_CONSTANTS),R1_32                                       
 00001168 DC01 8003 1226 00000003 00000BE6   1662          TR    3(2,R8_32),TOHEX-240                                                
                                             1663          DROP  R1_32                                                               
 0000116E 41A0 A001               00000001   1664          LA    R10_32,1(,R10_32)                                                   
 00001172 4180 8005               00000005   1665          LA    R8_32,5(,R8_32)                                                     
 00001176 C010 FFFF FDB9          00000CE8   1666          LARL  R1_32,PRNTABLE                                                      
 0000117C 0690                               1667          BCTR  R9_32,0                                                             
 0000117E 1299                               1668          LTR   R9_32,R9_32                                                         
 00001180 A724 FFE4               00001148   1669          JP    H_TROO                                                              
 00001184                                    1670 H_TROOE  DS    0H                                                                  
 00001184 5080 D034               00000034   1671          ST    R8_32,8*4+20(,R13_32)                                               
 00001188 98EC D00C               0000000C   1672          LM    R14_32,R12_32,12(R13_32)                                            
 0000118C 07FE                               1673          BR    R14_32                                                              
 00001190                                    1674          LTORG *                                                                   
 00001190 E0F0A7                             1675                =C'\0x'                                                             
 00001194                                    1676 E_DO_HEX DS    0H                                                                  
                                             1677          DROP  R15_32                                                              
 00001194                                    1678 DO_OCTAL DS    0H                                                                  
 00001194 90EC D00C               0000000C   1679          STM   R14_32,R12_32,12(R13_32)                                            
 00001198 A79E 00FF               000000FF   1680          CHI   R9_32,255                                                           
 0000119C C010 FFFF FDA6          00000CE8   1681          LARL  R1_32,PRNTABLE     POINT TO PRINT TABLE                             
 000011A2 1F00                               1682          SLR   R0_32,R0_32        TEST CHAR IS X'00'                               
 000011A4 B993 008A                          1683 O_TROO   TROO  R8_32,R10_32,0     MOVE AND TEST                                    
 000011A8 A714 FFFE               000011A4   1684          JO    O_TROO             LOOP ON CC=3                                     
1                                                                                                               Page   40            
   Active Usings (1):PARMS,R9  CEECAA,R12  CEEDSA,R13                                                                                
0R-Loc    Object Code      Addr1    Addr2    Stmt  Source Statement                          HLASM R6.0  2012/03/05 10.22            
0000011AC A784 0028               000011FC   1685          JE    O_TROOE            FINISHED!                                        
                                             1686 *                                                                                  
                                             1687 * TRANSLATE TO OCTAL                                                               
 000011B0 1F33                               1688          SLR   R3_32,R3_32                                                         
 000011B2 4330 A000               00000000   1689          IC    R3_32,0(,R10_32)   LOAD BYTE                                        
 000011B6 92E0 8000      00000000            1690          MVI   0(R8_32),C'\'      PLACE ESCAPE CHAR IN OUTPUT                      
 000011BA 4230 8003               00000003   1691          STC   R3_32,3(,R8_32)                                                     
 000011BE 9407 8003      00000003            1692          NI    3(R8_32),X'07'                                                      
 000011C2 96F0 8003      00000003            1693          OI    3(R8_32),X'F0'                                                      
 000011C6 8830 0003               00000003   1694          SRL   R3_32,3                                                             
 000011CA 4230 8002               00000002   1695          STC   R3_32,2(,R8_32)                                                     
 000011CE 9407 8002      00000002            1696          NI    2(R8_32),X'07'                                                      
 000011D2 96F0 8002      00000002            1697          OI    2(R8_32),X'F0'                                                      
 000011D6 8830 0003               00000003   1698          SRL   R3_32,3                                                             
 000011DA 4230 8001               00000001   1699          STC   R3_32,1(,R8_32)                                                     
 000011DE 9407 8001      00000001            1700          NI    1(R8_32),X'07'                                                      
 000011E2 96F0 8001      00000001            1701          OI    1(R8_32),X'F0'                                                      
 000011E6 41A0 A001               00000001   1702          LA    R10_32,1(,R10_32)                                                   
 000011EA 4180 8004               00000004   1703          LA    R8_32,4(,R8_32)                                                     
 000011EE C010 FFFF FD7D          00000CE8   1704          LARL  R1_32,PRNTABLE                                                      
 000011F4 0690                               1705          BCTR  R9_32,0                                                             
 000011F6 1299                               1706          LTR   R9_32,R9_32                                                         
 000011F8 A724 FFD6               000011A4   1707          JP    O_TROO                                                              
 000011FC                                    1708 O_TROOE  DS    0H                                                                  
 000011FC 5080 D034               00000034   1709          ST    R8_32,8*4+20(,R13_32)                                               
 00001200 98EC D00C               0000000C   1710          LM    R14_32,R12_32,12(R13_32)                                            
 00001204 07FE                               1711          BR    R14_32                                                              
                                             1712          POP   USING                                                               
                                             1713 LSENQ_PPA CEEPPA LIBRARY=NO,                                           X           
                                                                 PPA2=YES,                                               X           
                                                                 EXTPROC=YES,                                            X           
                                                                 TSTAMP=YES,                                             X           
                                                                 PEP=YES,                                                X           
                                                                 INSTOP=NO,                                              X           
                                                                 EXITDSA=NO,                                             X           
                                                                 OWNEXM=YES,                                             X           
                                                                 EPNAME=LSENQ,                                           X           
                                                                 VER=1,                                                  X           
                                                                 REL=1,                                                  X           
                                                                 MOD=0,                                                  X           
                                                                 DSA=YES                                                             
                                             1714+*/******************************************************************/              
                                             1715+*/*                                                                */              
                                             1716+*/* Licensed Materials - Property of IBM                           */              
                                             1717+*/*                                                                */              
                                             1718+*/* 5694-A01 5688-198                                              */              
                                             1719+*/*                                                                */              
                                             1720+*/* Copyright IBM Corp. 1991, 2009                                 */              
                                             1721+*/*                                                                */              
                                             1722+*/* Status = HLE7760                                               */              
                                             1723+*/*                                                                */              
                                             1724+*/******************************************************************/              
                                             1725+*                                                                                  
                                             1726+**********************************************************************             
                                             1727+*        P R O G R A M  P R O L O G  A R E A 1   ( P P A 1)          *             
1                                                                                                               Page   41            
   Active Usings: PARMS,R9  CONSTANTS,R11  CEECAA,R12  CEEDSA,R13                                                                    
0R-Loc    Object Code      Addr1    Addr2    Stmt  Source Statement                          HLASM R6.0  2012/03/05 10.22            
0                                            1728+**********************************************************************             
                                             1729+*                                                                                  
 00001208                                    1730+PPA10111    DS    0F                                                    01-CEEPPA  
 00001208                                    1731+LSENQ_PPA DS   0F                                                       01-CEEPPA  
 00001208 1E                                 1732+         DC    AL1(PPANL0111-*) Offset to the entry name length         01-CEEPPA  
 00001209 CE                                 1733+         DC    X'CE'            LE/370  Indicator.                      01-CEEPPA  
 0000120A A0                                 1734+         DC    B'10100000'                             . PPA flags      01-CEEPPA  
                                             1735+*                     Bit 0   0 = Internal Procedure                               
                                             1736+*                             1 = External Procedure                               
                                             1737+*                     Bit 1   0 = Primary Entry Point                              
                                             1738+*                             1 = Secondary Entry Point                            
                                             1739+*                     Bit 2   0 = Block doesn't have a DSA                         
                                             1740+*                             1 = Block has a DSA                                  
                                             1741+*                     Bit 3   0 = compiled object                                  
                                             1742+*                             1 = library object                                   
                                             1743+*                     Bit 4   0 = sampling interrupts to library                   
                                             1744+*                             1 = sampling interrupts to code                      
                                             1745+*                     Bit 5   0 = not an exit DSA                                  
                                             1746+*                             1 = Exit DSA                                         
                                             1747+*                     Bit 6   0 = own exception model                              
                                             1748+*                             1 = inherited (callers) exception model              
                                             1749+*                     Bit 7       Reserved                                         
 0000120B 00                                 1750+         DC    X'00'            Member flags                            01-CEEPPA  
 0000120C 00001254                           1751+         DC    A(PPA20111)      Addr of Compile Unit Block (PPA2)       01-CEEPPA  
 00001210 00000000                           1752+         DC    A(0)             Blk Debug Info                          01-CEEPPA  
 00001214 00000000                           1753+         DC    A(0)             Data Descriptors for this entry point   01-CEEPPA  
 00001218 00000000                           1754+         DC    A(0)             GPR save bit mask      X'10'      @D2A  01-CEEPPA  
 0000121C 00000000                           1755+         DC    A(0)             Member PPA1 word       X'14'      @D2A  01-CEEPPA  
 00001220 00000000                           1756+         DC    A(0)                             Offset X'18'      @D2A  01-CEEPPA  
                                             1757+* Language Environment flags (16bits)           Offset X'1C'      @D2A             
 00001224 00                                 1758+         DC    B'00000000'                                        @D2A  01-CEEPPA  
                                             1759+*                 Bit 0-1 00 = Old code entry performs full save  @D2A             
                                             1760+*                         01 = Old code performs partial save     @D2A             
                                             1761+*                         10 = Old code performs partial save+R12 @D2A             
                                             1762+*                 Bit 2   0  = Allow asynchronous exceptions      @D2A             
                                             1763+*                         1  = Defer asynchronous exceptions      @D2A             
                                             1764+*                 Bit 3   0  = Word 0 of SA not initialized       @D2A             
                                             1765+*                         1  = Word 0 of SA initialized           @D2A             
                                             1766+*                 Bit 4   0  = Code is nonexternal glue           @D2A             
                                             1767+*                         1  = Code is external glue              @D2A             
                                             1768+*                 Bit 5   0  = Real return addr saved in SA at    @D2A             
                                             1769+*                              offset '0C'X                       @D2A             
                                             1770+*                         1  = Real return addr saved in linkage  @D2A             
                                             1771+*                              area                               @D2A             
                                             1772+*                 Bit 6   0  = Storage argument area start        @D2A             
                                             1773+*                              indeterminate                      @D2A             
                                             1774+*                         1  = Storage argument area start valid  @D2A             
                                             1775+*                 Bit 7   0  = R12 must contain CAA address upon  @D2A             
                                             1776+*                              old code entry                     @D2A             
                                             1777+*                         1  = R12 not defined upon old code entry@D2A             
 00001225 00                                 1778+         DC    B'00000000'                                        @D2A  01-CEEPPA  
                                             1779+*                 Bit 8   0  = Not vararg routine                 @D2A             
                                             1780+*                         1  = Vararg routine                     @D2A             
                                             1781+*                 Bit 9   0  = Asynchronous interrupts unsupported@D2A             
                                             1782+*                         1  = Asynchronous interrupts supported  @D2A             
1                                                                                                               Page   42            
   Active Usings: PARMS,R9  CONSTANTS,R11  CEECAA,R12  CEEDSA,R13                                                                    
0R-Loc    Object Code      Addr1    Addr2    Stmt  Source Statement                          HLASM R6.0  2012/03/05 10.22            
0                                            1783+*                 Bit 10  0  = No module service level            @D2A             
                                             1784+*                         1  = Module service level applied       @D2A             
                                             1785+*                 Bit 11-15  = Reserved                           @D2A             
 00001226                                    1786+         DS    0H                                                       01-CEEPPA  
 00001226 0005                               1787+PPANL0111 DC   AL2(5)        .  Length of Entry Point Name              01-CEEPPA  
 00001228 D3E2C5D5D8                         1788+         DC    CL5'LSENQ'    .  Entry Point Name                        01-CEEPPA  
 00001230                                    1789+CEEINPL  DS    0D                                                       01-CEEPPA  
 00001230 00001264                           1790+         DC    A(PPA2M0111)                                             01-CEEPPA  
 00001234 00000008                           1791+         DC    A(CEEINPLSTST-CEEINPL)                                   01-CEEPPA  
 00001238                                    1792+CEEINPLSTST DS 0F                                                       01-CEEPPA  
 00001238 00                                 1793+         DC    X'00'            Control Level                     @01A  01-CEEPPA  
 00001239 00                                 1794+         DC    X'00'            ENCLAVE=NO                        @01A  01-CEEPPA  
 0000123A 00                                 1795+         DC    X'00'                                              @01A  01-CEEPPA  
 0000123B 07                                 1796+         DC    X'07'            Number of items.                  @01C  01-CEEPPA  
 0000123C 00001264                           1797+         DC    A(PPA2M0111)   . A of A(first entry point in comp unit)  01-CEEPPA  
 00001240 00000000                           1798+         DC    V(CEESTART)   . A(Address of CEESTART)                   01-CEEPPA  
 00001244 00000000                           1799+         DC    V(CEEBETBL)                                              01-CEEPPA  
 00001248 0000000F                           1800+         DC    A(15)         . Memeber id                               01-CEEPPA  
 0000124C 00000000                           1801+         DC    A(0)                                                     01-CEEPPA  
 00001250 00020000                           1802+         DC    XL4'00020000'          . EXECOPS(ON), PLIST              01-CEEPPA  
 00001254                                    1803+         DS    0H                                                       01-CEEPPA  
                                             1804+*                                                                                  
                                             1805+**********************************************************************             
                                             1806+*        P R O G R A M  P R O L O G  A R E A 2   ( P P A 2)          *             
                                             1807+**********************************************************************             
                                             1808+*                                                                                  
                                             1809+         EXTRN CEESTART                                                 01-CEEPPA  
 00001254                                    1810+PPA20111    DS    0F                                                    01-CEEPPA  
 00001254 0F                                 1811+         DC    AL1(15)          Member ID                               01-CEEPPA  
 00001255 00                                 1812+         DC    AL1(0)           Sub ID                                  01-CEEPPA  
 00001256 00                                 1813+         DC    AL1(0)           Member defined                          01-CEEPPA  
 00001257 01                                 1814+         DC    AL1(1)           Level of PPAx control blocks            01-CEEPPA  
 00001258 00000000                           1815+PPA2S0111   DC    A(CEESTART)      A(CEESTART for this load module)     01-CEEPPA  
 0000125C 00000000                           1816+         DC    A(0)             A(Compile Debug Information (CDI) )     01-CEEPPA  
 00001260 00000014                           1817+         DC    A(CEETIMES-PPA20111)   A(Offset to time stamp)           01-CEEPPA  
 00001264 00000000                           1818+PPA2M0111   DC    A(LSENQ)       . A(first entry point in comp. unit)   01-CEEPPA  
                                             1819+*                                                                                  
                                             1820+**********************************************************************             
                                             1821+*                 T I M E    S T A M P                               *             
                                             1822+**********************************************************************             
                                             1823+*                                                                                  
                                             1824+*        Time Stamp                                                                
                                             1825+*,Time Stamp = 2012/03/05 10:22:00                                      01-CEEPPA  
                                             1826+*,Version 1 Release 1 Modification 0                                    01-CEEPPA  
 00001268                                    1827+CEETIMES DS    0F                                                       01-CEEPPA  
 00001268 F2F0F1F2                           1828+         DC    CL4'2012'          Year                                  01-CEEPPA  
 0000126C F0F3                               1829+         DC    CL2'03'            Month                                 01-CEEPPA  
 0000126E F0F5                               1830+         DC    CL2'05'            Day                                   01-CEEPPA  
 00001270 F1F0                               1831+         DC    CL2'10'            Hours                                 01-CEEPPA  
 00001272 F2F2                               1832+         DC    CL2'22'            Minutes                               01-CEEPPA  
 00001274 F0F0                               1833+         DC    CL2'00'            Seconds                               01-CEEPPA  
 00001276 F140                               1834+         DC    CL2'1'             Version                               01-CEEPPA  
 00001278 F140                               1835+         DC    CL2'1'             Release                               01-CEEPPA  
 0000127A F040                               1836+         DC    CL2'0'             Modification                          01-CEEPPA  
                                             1837          CEEDSA                                                                    
1                                                                                                               Page   43            
   Active Usings: PARMS,R9  CONSTANTS,R11  CEECAA,R12  CEEDSA,R13                                                                    
0R-Loc    Object Code      Addr1    Addr2    Stmt  Source Statement                          HLASM R6.0  2012/03/05 10.22            
0                                            1838+*                                                                                  
                                             1839+**********************************************************************             
                                             1840+*   D Y N A M I C   S T O R A G E   A R E A    ( D S A )             *             
                                             1841+**********************************************************************             
                                             1842+*                                                                                  
 00000000                00000000 000009E9   1843+CEEDSA   DSECT 0D         Default DSECT NAME for SECTYPE=ALL            01-CEEDSA  
                                             1844+*                                                                                  
 00000000                                    1845+CEEDSAFLAGS DS XL2                  DSA flags                           01-CEEDSA  
                         00001000            1846+CEEDSALNGC EQU X'1000'                C library DSA                     01-CEEDSA  
                         00000800            1847+CEEDSALNGP EQU X'0800'                PL/I library DSA                  01-CEEDSA  
                         00000008            1848+CEEDSAEXIT EQU X'0008'                An Exit DSA                       01-CEEDSA  
 00000002                                    1849+CEEDSAMEMD DS  XL2                  Member defined                      01-CEEDSA  
 00000004                                    1850+CEEDSABKC DS   A                    Addr of DSA of caller               01-CEEDSA  
 00000008                                    1851+CEEDSAFWC DS   A                    Addr of DSA of last called rtn      01-CEEDSA  
 0000000C                                    1852+CEEDSAR14 DS   F                    Save area for register 14           01-CEEDSA  
 00000010                                    1853+CEEDSAR15 DS   F                    Save area for register 15           01-CEEDSA  
 00000014                                    1854+CEEDSAR0 DS    F                    Save area for register 0            01-CEEDSA  
 00000018                                    1855+CEEDSAR1 DS    F                    Save area for register 1            01-CEEDSA  
 0000001C                                    1856+CEEDSAR2 DS    F                    Save area for register 2            01-CEEDSA  
 00000020                                    1857+CEEDSAR3 DS    F                    Save area for register 3            01-CEEDSA  
 00000024                                    1858+CEEDSAR4 DS    F                    Save area for register 4            01-CEEDSA  
 00000028                                    1859+CEEDSAR5 DS    F                    Save area for register 5            01-CEEDSA  
 0000002C                                    1860+CEEDSAR6 DS    F                    Save area for register 6            01-CEEDSA  
 00000030                                    1861+CEEDSAR7 DS    F                    Save area for register 7            01-CEEDSA  
 00000034                                    1862+CEEDSAR8 DS    F                    Save area for register 8            01-CEEDSA  
 00000038                                    1863+CEEDSAR9 DS    F                    Save area for register 9            01-CEEDSA  
 0000003C                                    1864+CEEDSAR10 DS   F                    Save area for register 10           01-CEEDSA  
 00000040                                    1865+CEEDSAR11 DS   F                    Save area for register 11           01-CEEDSA  
 00000044                                    1866+CEEDSAR12 DS   F                    Save area for register 12           01-CEEDSA  
 00000048                                    1867+CEEDSALWS DS   A                    Addr of PL/I Language Working Space 01-CEEDSA  
 0000004C                                    1868+CEEDSANAB DS   A                    Addr of next available byte         01-CEEDSA  
 00000050                                    1869+CEEDSAPNAB DS  A                    Addr of end-of-prolog NAB           01-CEEDSA  
 00000054                                    1870+           DS  4F                                                       01-CEEDSA  
 00000064                                    1871+CEEDSATRAN DS  0A                   HPL TxArea or                       01-CEEDSA  
 00000064                                    1872+CEEDSARENT DS  A                    Program reentry address-IPAT        01-CEEDSA  
 00000068                                    1873+CEEDSACILC DS  A                    C to Fortran ILC save area          01-CEEDSA  
 0000006C                                    1874+CEEDSAMODE DS  A                    Return address of module that       01-CEEDSA  
                                             1875+*                                   caused the last mode switch                    
 00000070                                    1876+           DS  2F                                                       01-CEEDSA  
 00000078                                    1877+CEEDSARMR  DS  A                    Addr of language specific           01-CEEDSA  
                                             1878+*                                   exception handler                              
                                             1879+*                                                                                  
 0000007C                                    1880+           DS  F                    Reserved                            01-CEEDSA  
 00000080                                    1881+CEEDSAAUTO DS  0D                   Automatic storage starts here       01-CEEDSA  
 00000080                                    1882+CEEDSAEND  DS  0D                   End of DSA                          01-CEEDSA  
                         00000080            1883+CEEDSASZ EQU   CEEDSAEND-CEEDSA     Size of DSA                         01-CEEDSA  
                         00000000            1884+CEEDSA_STDCEEDSA  EQU   X'0000'     flag values of standard CEE DSA     01-CEEDSA  
                                             1885+*                                                                                  
                                             1886+*                                                                                  
                                             1887+*                                                                                  
                                             1888+*                                                                                  
                                             1889+**********************************************************************             
                                             1890+*   X P L I N K   D Y N A M I C   S T O R A G E   A R E A            *             
                                             1891+**********************************************************************             
                                             1892+*                                                                                  
1                                                                                                               Page   44            
   Active Usings: PARMS,R9  CONSTANTS,R11  CEECAA,R12  CEEDSA,R13                                                                    
0D-Loc    Object Code      Addr1    Addr2    Stmt  Source Statement                          HLASM R6.0  2012/03/05 10.22            
000000000                00000000 00000840   1893+CEEDSAHP DSECT 0D         Default DSECT NAME for SECTYPE=ALL            01-CEEDSA  
                                             1894+         CEEDNUT          Set the global values                         01-CEEDSA  
                                             1895+***********************************************************************            
                                             1896+***********************************************************************            
                         00000004            1897+LEPTRLEN EQU    4                                                       02-CEEDNUT 
                                             1898+*                                                                                  
 00000000                                    1899+CEEDSAHP_BIAS  DS XL2048             BIAS -- DO NOT USE                 01-CEEDSA  
                         00000800            1900+CEEDSAHPBIASSZ EQU *-CEEDSAHP_BIAS   Size of Down Stack Bias            01-CEEDSA  
 00000800                                    1901+CEEDSAHP_FIXED DS 0X                 Start of fixed part                01-CEEDSA  
 00000800                                    1902+CEEDSAHP4TO15 DS 12F                 Save area for regs 4-15            01-CEEDSA  
 00000830                00000830 00000800   1903+            ORG CEEDSAHP_FIXED                                          01-CEEDSA  
 00000800                                    1904+CEEDSAHP4TO7  DS 4F                  Save area for regs 4-7             01-CEEDSA  
 00000810                00000810 00000800   1905+            ORG CEEDSAHP_FIXED                                          01-CEEDSA  
 00000800                                    1906+CEEDSAHPR4  DS F                     Save area for register 4           01-CEEDSA  
 00000804                                    1907+CEEDSAHPR5  DS F                     Save area for register 5           01-CEEDSA  
 00000808                                    1908+CEEDSAHPR6  DS F                     Save area for register 6           01-CEEDSA  
 0000080C                                    1909+CEEDSAHPR7  DS F                     Save area for register 7           01-CEEDSA  
 00000810                                    1910+CEEDSAHP8TO15 DS 8F                  Save area for regs 8-15            01-CEEDSA  
 00000830                00000830 00000810   1911+            ORG CEEDSAHP8TO15                                           01-CEEDSA  
 00000810                                    1912+CEEDSAHPR8  DS F                     Save area for register 8           01-CEEDSA  
 00000814                                    1913+CEEDSAHPR9  DS F                     Save area for register 9           01-CEEDSA  
 00000818                                    1914+CEEDSAHPR10 DS F                     Save area for register 10          01-CEEDSA  
 0000081C                                    1915+CEEDSAHPR11 DS F                     Save area for register 11          01-CEEDSA  
 00000820                                    1916+CEEDSAHPR12 DS F                     Save area for register 12          01-CEEDSA  
 00000824                                    1917+CEEDSAHPR13 DS F                     Save area for register 13          01-CEEDSA  
 00000828                                    1918+CEEDSAHPR14 DS F                     Save area for register 14          01-CEEDSA  
 0000082C                                    1919+CEEDSAHPR15 DS F                     Save area for register 15          01-CEEDSA  
 00000830                                    1920+            DS F                     Reserved for LE use                01-CEEDSA  
 00000834                                    1921+CEEDSAHPMBRUSE DS F                  Reserved for LE Member use         01-CEEDSA  
 00000838                                    1922+CEEDSAHPTRAN DS A                    Addr of transition area            01-CEEDSA  
 0000083C                                    1923+CEEDSAHP_ARG_PRE DS 0A               Argument prefix area               01-CEEDSA  
 0000083C                                    1924+CEEDSAHPRENT     DS A                or Program reentry addr-IPAT       01-CEEDSA  
                         00000040            1925+CEEDSAHPSZ  EQU *-CEEDSAHP_FIXED     Size of fixed DSA                  01-CEEDSA  
 00000840                                    1926+CEEDSAHP_ARGLIST DS 0X               Start of Vary length arg list      01-CEEDSA  
                                             1927+*                                                                                  
                                             1928+*                                                                                  
 00000080                00000000 000009E9   1929+CEEDSA   DSECT  ,                                                       01-CEEDSA  
                                             1930 * DYNAMIC AREA IS DEFINED HERE.                                                    
                                             1931 * THIS IS WITHIN A DSECT, SO NO DATA IS REALLY INITIALIZED                         
 00000080                                    1932          DS    0D                 FORCE DOUBLEWORD                                 
 00000080                                    1933 QNAME@   DS    A                                                                   
 00000084                                    1934 QNAMEL   DS    F                                                                   
 00000088                                    1935 RNAME@   DS    A                                                                   
 0000008C                                    1936 RNAMEL   DS    F                                                                   
 00000090                                    1937 NL_CATD  DS    A                                                                   
 00000094                                    1938 ENCODE@  DS    A                                                                   
 00000098                                    1939 D_RC     DS    D                                                                   
 000000A0                                    1940 D_MODIFIER DS  D                                                                   
 000000A8                                    1941 F_RC     DS    F                                                                   
 000000AC                                    1942 F_MODIFIER DS  F                                                                   
 000000B0                                    1943 RETURN@  DS    A                                                                   
 000000B4                                    1944 GQLST    DS    (GQPARML)X                                                          
 00000144 00000000                           1945 BPX1WRT  DC    A(0)               DYNAMICALLY LOADED                               
 00000148 00000000                           1946 BPX1WRV  DC    A(0)               DYNAMICALLY LOADED                               
 0000014C                                    1947 COUNT    DS    F                                                                   
1                                                                                                               Page   45            
   Active Usings: PARMS,R9  CONSTANTS,R11  CEECAA,R12  CEEDSA,R13                                                                    
0D-Loc    Object Code      Addr1    Addr2    Stmt  Source Statement                          HLASM R6.0  2012/03/05 10.22            
000000150                                    1948 BUFFERA  DS    A                                                                   
 00000154                                    1949 RETVAL   DS    A(0)                                                                
 00000158                                    1950 RETCODE  DS    A(0)                                                                
 0000015C                                    1951 RSNCODE  DS    A(0)                                                                
 00000160                                    1952 SYS      DS    F                                                                   
                                             1953 * BIT MEANING                                                                      
                                             1954 *    0 X'80'                                                                       
                                             1955 *    CURRENTLY EXECUTING IN THE CICS ENVIRONMENT                                   
                                             1956 *    1 X'40'                                                                       
                                             1957 *    CURRENTLY EXECUTING IN A CICS_PIPI ENVIRONMENT                                
                                             1958 *    2-3 X'30'                                                                     
                                             1959 *    RESERVED FOR OTHER SPECIFIC CICS ENVIRONMENTS                                 
                                             1960 *    4 X'10'                                                                       
                                             1961 *    CURRENTLY EXECUTING IN A TSO ENVIRONMENT                                      
                                             1962 *    5 X'08'                                                                       
                                             1963 *    CURRENTLY EXECUTING IN A BATCH ENVIRONMENT                                    
                                             1964 *    6 X'04'                                                                       
                                             1965 *    CURRENTLY EXECUTING IN A Z/OS UNIX ENVIRONMENT                                
                                             1966 *    7-28                                                                          
                                             1967 *    RESERVED FOR FUTURE USE                                                       
                                             1968 *    29                                                                            
                                             1969 *    CURRENTLY EXECUTING ON Z/VSE(TM)                                              
                                             1970 *    30                                                                            
                                             1971 *    CURRENTLY EXECUTING ON Z/OS                                                   
                                             1972 *    31                                                                            
                                             1973 *    PREVIOUSLY INDICATED AS EXECUTING ON Z/OS.E                                   
                                             1974 *                                                                                  
 00000164                                    1975 ENV      DS    F                                                                   
                                             1976 *                                                                                  
 00000168                                    1977 MEMBER   DS    F                                                                   
                                             1978 *                                                                                  
 0000016C                                    1979 GPID     DS    F                                                                   
 00000170                                    1980 FC       DS    F                                                                   
 00000174                                    1981 BUFL     DS    F                                                                   
 00000178                                    1982 RETURN_CODE DS F                                                                   
 0000017C                                    1983 MODIFIER DS    F                                                                   
 00000180 00000000                           1984 RETURN_VALUE DC A(0)               PREVIOUS DEFAULT DUB                            
 00000184 00000000                           1985 REASON_CODE DC A(0)                                                                
                                             1986 CEETERM_BLOCK CEETERM MF=L                                                         
 00000188                                    1987+CEETERM_BLOCK DS 4F                                                     01-CEETERM 
 00000198                                    1988 CALLX    DS    30A                                                                 
 00000210                                    1989 IOV_COUNT DS   F                                                                   
 00000214                                    1990 RNAME_LEN DS   F                                                                   
 00000218                                    1991 TAB@     DS    A                                                                   
 0000021C                                    1992 TABL     DS    F                                                                   
 00000220                                    1993 QNAME    DS    CL8                                                                 
 00000228                                    1994 RNAME    DS    CL255                                                               
 00000327                                    1995 QNAMEX   DS    6CL(L'QNAME)                                                        
 00000357                                    1996 RNAMEX   DS    6CL(L'RNAME)                                                        
 00000951                00000951 00000220   1997          ORG   QNAME                                                               
 00000220                                    1998 ERRMSG1  DS    CL(20+L'ERRFMT1)                                                    
 00000252                00000252 00000951   1999          ORG                                                                       
 00000958                                    2000 IOV_STRUC DS   0D                                                                  
 00000958                                    2001 FIELD1@  DS    A                                                                   
 0000095C                                    2002 FIELD1L  DS    F                                                                   
1                                                                                                               Page   46            
   Active Usings: PARMS,R9  CONSTANTS,R11  CEECAA,R12  CEEDSA,R13                                                                    
0D-Loc    Object Code      Addr1    Addr2    Stmt  Source Statement                          HLASM R6.0  2012/03/05 10.22            
000000960                                    2003 TAB1     DS    2F                                                                  
 00000968                                    2004 FIELD2@  DS    A                                                                   
 0000096C                                    2005 FIELD2L  DS    F                                                                   
 00000970                                    2006 TAB2     DS    2F                                                                  
 00000978                                    2007 FIELD3@  DS    A                                                                   
 0000097C                                    2008 FIELD3L  DS    F                                                                   
 00000980                                    2009 TAB3     DS    2F                                                                  
 00000988                                    2010 FIELD4@  DS    A                                                                   
 0000098C                                    2011 FIELD4L  DS    F                                                                   
 00000990                                    2012 TAB4     DS    2F                                                                  
 00000998                                    2013 FIELD5@  DS    A                                                                   
 0000099C                                    2014 FIELD5L  DS    F                                                                   
 000009A0                                    2015 TAB5     DS    2F                                                                  
 000009A8                                    2016 FIELD6@  DS    A                                                                   
 000009AC                                    2017 FIELD6L  DS    F                                                                   
 000009B0                                    2018 TAB6     DS    2F                                                                  
 000009B8                                    2019 FIELD7@  DS    A                                                                   
 000009BC                                    2020 FIELD7L  DS    F                                                                   
 000009C0                                    2021 TAB7     DS    2F                                                                  
 000009C8                                    2022 FIELD8@  DS    A                                                                   
 000009CC                                    2023 FIELD8L  DS    F                                                                   
 000009D0                                    2024 TAB8     DS    2F                                                                  
 000009D8                                    2025 FIELD9@  DS    A                                                                   
 000009DC                                    2026 FIELD9L  DS    F                                                                   
 000009E0                                    2027 NL1      DS    2F                                                                  
                         00000090            2028 IOV_STRUC_L EQU *-IOV_STRUC                                                        
 000009E8                                    2029 ONOFF    DS    X                                                                   
                         000009E9            2030 DSASIZE  EQU   *-CEEDSA                                                            
                                             2031          BPXYCONS DSECT=YES,LIST=YES                                               
                                             2032+** BPXYCONS: Syscall constants                                                     
                                             2033+**  Used By: Many syscalls                                                         
                         00100000            2034+DFLT_ARG_MAX         EQU   1048576  Constant for default ARG_MAX  @EGC  01-BPXYCONS
                         00000006            2035+DFLT_CHILD_MAX       EQU   6    Constant for default CHILD_MAX          01-BPXYCONS
                                             2036+*                               (_POSIX_CHILD_MAX)                                 
                         00000064            2037+DFLT_CLK_TCK         EQU   100  Constant for default CLK_TCK            01-BPXYCONS
                                             2038+*                               (100 ticks per second)                             
                         00001FFF            2039+DFLT_NGROUPS_MAX     EQU   8191 Constant for default NGROUPS_MAX        01-BPXYCONS
                                             2040+*                               (RACF Maximum value)                               
                         00000010            2041+DFLT_OPEN_MAX        EQU   16   Constant for default OPEN_MAX           01-BPXYCONS
                                             2042+*                               (_POSIX_OPEN_MAX)                                  
                         00000009            2043+DFLT_TZNAME_MAX      EQU   9    Constant for default TZNAME_MAX         01-BPXYCONS
                         00000001            2044+DFLT_JOB_CONTROL     EQU   1    Constant for default JOB_CONTROL        01-BPXYCONS
                         00000001            2045+DFLT_SAVED_IDS       EQU   1    Constant for default SAVED_IDS          01-BPXYCONS
                         00030961            2046+DFLT_VERSION         EQU   199009  Constant for default VERSION         01-BPXYCONS
                         00000032            2047+DFLT_THREAD_TASKS_MAX_NP  EQU  50  Constant default THREAD_TASKS_MAX_NP 01-BPXYCONS
                         00000008            2048+DFLT_USERIDLEN_MAX   EQU   8    Max characters for a userid       @DKA  01-BPXYCONS
                         00000008            2049+DFLT_PASSWDLEN_MAX   EQU   8    Max characters for a password     @DKA  01-BPXYCONS
                         00000064            2050+DFLT_PASSWDPHRLEN_MAX EQU  100 Max characters for password phrase @EBA  01-BPXYCONS
                         00000001            2051+DFLT_2_CHAR_TERM     EQU   1    Constant default SC_2_CHAR_TERM  @P1A   01-BPXYCONS
0                                            2053+* items from sysconf()                                                             
                         00000001            2054+SC_ARG_MAX           EQU   1    Constant for querying ARG_MAX           01-BPXYCONS
                         00000002            2055+SC_CHILD_MAX         EQU   2    Constant for querying CHILD_MAX         01-BPXYCONS
                         00000003            2056+SC_CLK_TCK           EQU   3    Constant for querying CLK_TCK           01-BPXYCONS
                         00000004            2057+SC_JOB_CONTROL       EQU   4    Constant for querying JOB_CONTROL       01-BPXYCONS
1                                                                                                               Page   47            
   Active Usings: PARMS,R9  CONSTANTS,R11  CEECAA,R12  CEEDSA,R13                                                                    
0D-Loc    Object Code      Addr1    Addr2    Stmt  Source Statement                          HLASM R6.0  2012/03/05 10.22            
0                        00000005            2058+SC_NGROUPS_MAX       EQU   5    Constant for querying NGROUPS_MAX       01-BPXYCONS
                         00000006            2059+SC_OPEN_MAX          EQU   6    Constant for querying OPEN_MAX          01-BPXYCONS
                         00000007            2060+SC_SAVED_IDS         EQU   7    Constant for querying SAVED_IDS         01-BPXYCONS
                         00000009            2061+SC_TZNAME_MAX        EQU   9    Constant for querying TZNAME_MAX        01-BPXYCONS
                         0000000A            2062+SC_VERSION           EQU   10   Constant for querying VERSION           01-BPXYCONS
                         0000000B            2063+SC_THREAD_TASKS_MAX_NP EQU 11   Constant to query THREAD_TASKS_MAX_NP   01-BPXYCONS
                         0000000C            2064+SC_2_CHAR_TERM       EQU   12   Constant for querying VERSION    @P1A   01-BPXYCONS
                         0000000D            2065+SC_THREADS_MAX_NP    EQU   13   Constant to query THREADS_MAX_NP @D5A   01-BPXYCONS
                         0000000E            2066+SC_MMAP_MEM_MAX_NP   EQU   14   Constant to query MMAP_MEM_MAX_NP@DAA   01-BPXYCONS
                         0000000F            2067+SC_TTY_GROUP         EQU   15   Constant to query TTY GROUP      @PEA   01-BPXYCONS
                         00000010            2068+SC_PAGESIZE          EQU   16   Constant to query Page Size      @D2A   01-BPXYCONS
                         00000010            2069+SC_PAGE_SIZE         EQU   16   Constant to query Page Size      @D2A   01-BPXYCONS
0                                            2071+* wait function code                                             @DCA              
                         00000001            2072+#WAIT3               EQU   1    wait3() function code            @DCA   01-BPXYCONS
                         00000002            2073+#WAITID              EQU   2    waitid() function code           @DCA   01-BPXYCONS
0                                            2075+* items from waitf()                                                               
                         00000001            2076+WNOHANG              EQU   1    Wait, do not suspend execution          01-BPXYCONS
                         00000002            2077+WUNTRACED            EQU   2    Wait, return status of stopped child    01-BPXYCONS
                         00000004            2078+WCONTINUED           EQU   4    Wait, return status of continued child  01-BPXYCONS
                                             2079+*                                                                @DCA              
                         00000008            2080+WEXITED              EQU   8    Wait for process that have exited       01-BPXYCONS
                                             2081+*                                                                @DCA              
                         00000010            2082+WSTOPPED             EQU  16    Wait, return status of stopped child    01-BPXYCONS
                                             2083+*                                                                @DCA              
                         00000020            2084+WNOWAIT              EQU  32    Wait, return status of a child without  01-BPXYCONS
                                             2085+*                               changing the state.  The child can be              
                                             2086+*                               waited for again.                @DCA              
0                                            2088+* waitid() id type options                                       @DCA              
                         00000000            2089+P_PID                EQU   0    Wait for the child with a process ID    01-BPXYCONS
                                             2090+*                                                                @DCA              
                         00000001            2091+P_PGID               EQU   1    Wait for any child with a process       01-BPXYCONS
                                             2092+*                               group ID                         @DCA              
                         00000002            2093+P_ALL                EQU   2    Wait for any child               @DCA   01-BPXYCONS
0                                            2095+* BPX1PTX Options                                                                  
                         00000000            2096+PTEXITTHREAD         EQU   0    Pthread exit                            01-BPXYCONS
                         00000001            2097+PTGETNEWTHREAD       EQU   1    Pthread get new                         01-BPXYCONS
                         00000002            2098+PTFAILIFLASTTHREAD   EQU   2    Pthread fail if last thread      @D4A   01-BPXYCONS
0                        00000001            2100+QUIESCE_TERM         EQU   1    Quiesce threads type = term      @D3A   01-BPXYCONS
                         00000002            2101+QUIESCE_FORCE        EQU   2    Quiesce threads type = force     @D3A   01-BPXYCONS
                         00000003            2102+QUIESCE_QUERY        EQU   3    Alias of pthread_query           @P4C   01-BPXYCONS
                         00000003            2103+PTHREAD_QUERY        EQU   3    Quiesce threads type = query     @P4A   01-BPXYCONS
                         00000004            2104+QUIESCE_FREEZE       EQU   4    Quiesce threads type = freeze    @D6A   01-BPXYCONS
                         00000005            2105+QUIESCE_UNFREEZE     EQU   5    Quiesce threads type = unfreeze  @D6A   01-BPXYCONS
                         00000006            2106+FREEZE_THIS_THREAD   EQU   6    Quiesce threads type = freezeme  @D6A   01-BPXYCONS
                                             2107+* Skip 7 because of collision with BPXZCONS Freeze_Force                           
                         00000008            2108+FREEZE_EXIT          EQU   8    Quiesce threads type = freeze_exit      01-BPXYCONS
                         00000009            2109+QUIESCE_SRB          EQU   9    Quiesce threads type = SRBs      @DGA   01-BPXYCONS
                                             2110+* Skip 10 and 11 due to collision with BPXZCONS Freeze/Unfreeze Fast               
                                             2111+*                                                                @P6A              
1                                                                                                               Page   48            
   Active Usings: PARMS,R9  CONSTANTS,R11  CEECAA,R12  CEEDSA,R13                                                                    
0D-Loc    Object Code      Addr1    Addr2    Stmt  Source Statement                          HLASM R6.0  2012/03/05 10.22            
0                        00000000            2113+PTHREAD_INTR_ENABLE#       EQU 0  Cancel request type = enabled         01-BPXYCONS
                         00000001            2114+PTHREAD_INTR_DISABLE#      EQU 1  Cancel request type = disabled        01-BPXYCONS
                         00000000            2115+PTHREAD_INTR_CONTROLLED#   EQU 0  Cancel request type = controlled      01-BPXYCONS
                         00000001            2116+PTHREAD_INTR_ASYNCHRONOUS# EQU 1  Cancel request type = Asynchronous    01-BPXYCONS
0                        00000000            2118+STDIN_FILENO         EQU   0    Standard input value, file descriptor   01-BPXYCONS
                         00000001            2119+STDOUT_FILENO        EQU   1    Standard output value, file descriptor  01-BPXYCONS
                         00000002            2120+STDERR_FILENO        EQU   2    Standard error value, file descriptor   01-BPXYCONS
0                        00000000            2122+DUBTHREAD            EQU   0    Dub a thread default setting     @L1A   01-BPXYCONS
                         00000001            2123+DUBPROCESS           EQU   1    Dub a process default setting    @L1A   01-BPXYCONS
                         00000002            2124+DUBTASKACEE          EQU   2    Dub a task ACEE setting          @02A   01-BPXYCONS
                         00000004            2125+DUBPROCESSDEFER      EQU   4    Dub a process - but defer dub    @04A   01-BPXYCONS
                         00000008            2126+DUBNOSIGNALS         EQU   8    Dub a process - no signals       @DWA   01-BPXYCONS
                         00000010            2127+DUBJOBPERM           EQU   16   Dub as a permanent Job           @DYA   01-BPXYCONS
                         00000020            2128+DUBNOJSTUNDUB        EQU   32   Dub process such that jobstep does not  01-BPXYCONS
                                             2129+*                                                                @DYA              
                         00000040            2130+DUBABENDCALLS        EQU   64   Dub process such that system calls      01-BPXYCONS
                                             2131+*                               abend during a shutdown/restart window             
                                             2132+*                                                                @DYA              
                         00000080            2133+DUBUNIQUEACEE        EQU   128                                   @07A   01-BPXYCONS
                         00000100            2134+DUBFAILNOTREADY      EQU   256  Fail dub if kernel is not up     @F1A   01-BPXYCONS
0                        00000001            2136+STL_MAX_TASKS        EQU   1    Replace MaxThreadTask only       @D7A   01-BPXYCONS
                         00000002            2137+STL_MAX_THREADS      EQU   2    Replace MaxThreads only          @D7A   01-BPXYCONS
                         00000003            2138+STL_SET_BOTH         EQU   3    Replace both limits              @D7A   01-BPXYCONS
0                        00000014            2140+NICE_ZERO            EQU   20   Default Process Scheduling Priority     01-BPXYCONS
0                        00000001            2142+PRIO_PROCESS         EQU   1    Looking for a specific process ID       01-BPXYCONS
                         00000002            2143+PRIO_PGRP            EQU   2    Looking for processes in a process grp  01-BPXYCONS
                         00000003            2144+PRIO_USER            EQU   3    Looking for processes for a user ID     01-BPXYCONS
0                        00000001            2146+CPRIO_ABSOLUTE       EQU   1    Priority value is an absolute value     01-BPXYCONS
                         00000002            2147+CPRIO_RELATIVE       EQU   2    Priority value is a relative value      01-BPXYCONS
0                                            2149+*   Define equates for memory map                                                  
                         00000001            2150+PROT_READ            EQU   1    Mapped data can be read          @DAA   01-BPXYCONS
                         00000002            2151+PROT_WRITE           EQU   2    Mapped data can be written       @DAA   01-BPXYCONS
                         00000004            2152+PROT_NONE            EQU   4    Mapped data cannot be accessed   @DAA   01-BPXYCONS
                         00000008            2153+PROT_EXEC            EQU   8    Mapped data can be executed (treated    01-BPXYCONS
                                             2154+*                               as PROT_READ)                    @DAA              
0                        00000001            2156+MAP_PRIVATE          EQU   1    Changes to the mapped data are private  01-BPXYCONS
                         00000002            2157+MAP_SHARED           EQU   2    Changes to the mapped data are shared   01-BPXYCONS
                         00000004            2158+MAP_FIXED            EQU   4    Interpret map address exactly    @DAA   01-BPXYCONS
                         00000008            2159+MAP_MEGA             EQU   8    Use megabyte allocations         @D4A   01-BPXYCONS
0                        00000001            2161+MS_SYNC              EQU   1    Performs synchronous writes      @DAA   01-BPXYCONS
                         00000002            2162+MS_ASYNC             EQU   2    Performs asynchronous writes     @DAA   01-BPXYCONS
                         00000004            2163+MS_INVALIDATE        EQU   4    Invalidate the cached memory mapped     01-BPXYCONS
                                             2164+*                               pages                            @DAA              
0                                            2166+*   Define equates for spawn                                   @D9A                
                         FFFFFFFF            2167+SPAWN_FDCLOSED       EQU  -1    Do not inherit this file desc  @D9A     01-BPXYCONS
1                                                                                                               Page   49            
   Active Usings: PARMS,R9  CONSTANTS,R11  CEECAA,R12  CEEDSA,R13                                                                    
0D-Loc    Object Code      Addr1    Addr2    Stmt  Source Statement                          HLASM R6.0  2012/03/05 10.22            
0                        00000004            2169+RLIMIT_CORE          EQU   4    Limit size of core dump          @DBA   01-BPXYCONS
                         00000000            2170+RLIMIT_CPU           EQU   0    Limit CPU time per process       @DBA   01-BPXYCONS
                         00000001            2171+RLIMIT_FSIZE         EQU   1    Limit file size                  @DBA   01-BPXYCONS
                         00000006            2172+RLIMIT_NOFILE        EQU   6    Limit number of open files       @DBA   01-BPXYCONS
                         00000005            2173+RLIMIT_AS            EQU   5    Limit address space size         @DBA   01-BPXYCONS
                         00000007            2174+RLIMIT_MEMLIMIT      EQU   7    Limit storage above the bar      @E0A   01-BPXYCONS
0                        7FFFFFFF            2176+RLIM_INFINITY        EQU   2147483647 No limit value             @DBA   01-BPXYCONS
0                        00000000            2178+RUSAGE_SELF          EQU   0    Rusage for current process       @DBA   01-BPXYCONS
                         FFFFFFFF            2179+RUSAGE_CHILDREN      EQU  -1    Rusage for terminated children   @DBA   01-BPXYCONS
0                                            2181+*   Define equates for querydub output status                                      
                         00000001            2182+QDB_DUBBED_FIRST     EQU   1    Task has already been dubbed.           01-BPXYCONS
                                             2183+*                               This task and this RB caused the                   
                                             2184+*                               dub.                             @DCA              
                         00000002            2185+QDB_DUBBED           EQU   2    Task has already been dubbed.           01-BPXYCONS
                                             2186+*                               Other task or other RB caused                      
                                             2187+*                               the dub                          @DCA              
                         00000004            2188+QDB_DUB_MAY_FAIL     EQU   4    Task has not been dubbed, but may       01-BPXYCONS
                                             2189+*                               fail if attempted.  Most likely                    
                                             2190+*                               reason for failure will be a missing               
                                             2191+*                               or incomplete user security profile,               
                                             2192+*                               or OMVS segment not defined      @DCA              
                         00000008            2193+QDB_DUB_OKAY         EQU   8    Task has not been dubbed, and should    01-BPXYCONS
                                             2194+*                               succeed if attempted             @DCA              
                         00000010            2195+QDB_DUB_AS_PROCESS   EQU   16   Task has not been dubbed, but its       01-BPXYCONS
                                             2196+*                               address space has. New task will dub               
                                             2197+*                               as another process within the address              
                                             2198+*                               space                            @DCA              
                         00000020            2199+QDB_DUB_AS_THREAD    EQU   32   Task has not been dubbed, but its       01-BPXYCONS
                                             2200+*                               address space has. New task will dub as            
                                             2201+*                               a thread within the process      @DCA              
0                                            2203+*   Define equates for oe_env_np syscall function codes                            
                         00000001            2204+ENQWAIT_PROCESS      EQU   1    Examine/Change ENQ wait interruption    01-BPXYCONS
                                             2205+*                               state                            @P6A              
                         00000002            2206+FREEZE_EXIT_REG      EQU   2    Register/deregister an exit             01-BPXYCONS
                                             2207+*                               for pthread_quiesce(freeze_exit) @P6A              
                         00000003            2208+MVS_USERID           EQU   3    Retrieve MVS userid of invoker   @P7A   01-BPXYCONS
                         00000004            2209+ENV_TOGGLE_SEC       EQU   4    Toggle btw task/process security @P7A   01-BPXYCONS
                         00000005            2210+DFP_CLEANUP_EXIT_REG EQU   5    Register DFP Close cleanup exit  @01A   01-BPXYCONS
                         00000006            2211+BPXK_PARAMETER       EQU   6    Env Vars to Kernel               @P9A   01-BPXYCONS
                         00000007            2212+ENV_STOR_SERVICE     EQU   7    Swappable or Non-Swappable              01-BPXYCONS
                                             2213+*                               address space                    @DJA              
                         00000008            2214+QUICK_FREEZE_EXIT_REG EQU  8    Register/deregister an exit for         01-BPXYCONS
                                             2215+*                               fast pthread_quiesce_and_get     @DUA              
                         00000009            2216+SHUTDOWN_REG         EQU  9     Register/block for shutdown             01-BPXYCONS
                                             2217+*                               processing                       @DXA              
                         0000000A            2218+WRITE_DOWN           EQU  10    Query/Alter write_down state of an      01-BPXYCONS
                                             2219+*                               ACEE (MLS support)               @E5A              
                         0000000B            2220+PIDXFER_QUERY        EQU  11    Query if process image is a result of   01-BPXYCONS
                                             2221+*                               a PIDXFER                        @DXA              
                         0000000C            2222+QUERY_MODE           EQU  12    Query AMODE/RMODE/AMODE capability of   01-BPXYCONS
                                             2223+*                               target proess                    @E1A              
1                                                                                                               Page   50            
   Active Usings: PARMS,R9  CONSTANTS,R11  CEECAA,R12  CEEDSA,R13                                                                    
0D-Loc    Object Code      Addr1    Addr2    Stmt  Source Statement                          HLASM R6.0  2012/03/05 10.22            
0                        0000000D            2224+MUST_STAY_CLEAN      EQU  13    ENABLE/QUERY Must Stay Clean state of   01-BPXYCONS
                                             2225+*                               the invoking process             @E9A              
0                                            2227+*   Define equates for possible options of ENV_STOR_SERVICE                        
                                             2228+*   For future additions, make equates multiples of 2                              
                                             2229+*                                                               4@PED              
                         00000001            2230+BPX_SWAP         EQU   1    Make the address space swappable     @PEC   01-BPXYCONS
                         00000002            2231+BPX_NONSWAP      EQU   2    Make the address space non-swappable        01-BPXYCONS
                                             2232+*                                                                @PEC              
0                                            2234+*                                                                @E9A              
                                             2235+*   Define equates for possible options of MUST_STAY_CLEAN       @E9A              
                                             2236+* @E9A                                                                             
                         00000000            2237+MSC_QUERY        EQU   0    Query current Must Stay Clean state  @E9A   01-BPXYCONS
                         00000001            2238+MSC_ENABLE       EQU   1    Enable Must Stay Clean state         @E9A   01-BPXYCONS
                                             2239+*                                                                @E9A              
                                             2240+*   Define possible output for MSC_QUERY option                  @E9A              
                                             2241+* @E9A                                                                             
                         00000000            2242+MSC_DISABLED     EQU   0     Query result: disabled              @E9A   01-BPXYCONS
                         00000001            2243+MSC_ENABLED      EQU   1     Query result: enabled even accoss Job      01-BPXYCONS
                                             2244+*                            Step termination                    @E9A              
                         00000002            2245+MSC_ENABLED_COND EQU   2     Query result: enabled conditionally,       01-BPXYCONS
                                             2246+*                            Job Step termination will disable   @E9A              
                                             2247+*                                                                                  
                                             2248+*   Define equates for all possible options for WRITE_DOWN function                
                                             2249+*   code of BPX1ENV                                                                
                                             2250+*                                                                                  
                         00000000            2251+WD_OUERY         EQU   0     Query write_down                    @E5A   01-BPXYCONS
                         00000001            2252+WD_ACTIVATE      EQU   1     Activate write_down                 @E5A   01-BPXYCONS
                         00000002            2253+WD_INACTIVATE    EQU   2     Inactivate write_down               @E5A   01-BPXYCONS
                         00000003            2254+WD_RESET         EQU   3     Reset write_down to default         @E5A   01-BPXYCONS
                                             2255+*                                                                                  
                         00000001            2256+WD_SCOPE_AS      EQU   1     Target ACEE is AS                   @E5A   01-BPXYCONS
                         00000002            2257+WD_SCOPE_THD     EQU   2     Target ACEE is task                 @E5A   01-BPXYCONS
                                             2258+*                                                                                  
                         00000001            2259+WD_IS_ACTIVE     EQU   1     Query result: active                @E5A   01-BPXYCONS
                         00000000            2260+WD_IS_INACTIVE   EQU   0     Query result: inactive              @E5A   01-BPXYCONS
                                             2261+*                                                                                  
                                             2262+*   Define equates for QUERY_MODE return values                  @E1A              
                                             2263+*                                                                @E1A              
                         00000001            2264+BIT24_MODE           EQU   1    24 bit AMODE, RMODE or AMODE cap.@E1A   01-BPXYCONS
                         00000002            2265+BIT31_MODE           EQU   2    31 bit AMODE, RMODE or AMODE cap.@E1A   01-BPXYCONS
                         00000003            2266+BIT64_MODE           EQU   3    64 bit AMODE, RMODE or AMODE cap.@E1A   01-BPXYCONS
                         00000004            2267+AMODE_INITIALIZING   EQU   4    AMODE for process not known yet  @PNA   01-BPXYCONS
0                                            2269+*   Define equates for possible options of ENV_SHUTDOWN_REG                        
                                             2270+*                                                                @DYA              
                         00000001            2271+ENV_REGISTERBLOCK     EQU  1   Register to Block Shutdown        @DYA   01-BPXYCONS
                         00000002            2272+ENV_REGISTERPERMP     EQU  2   Register as a Permanent job/proc  @DYA   01-BPXYCONS
                         00000003            2273+ENV_DEREGISTERBLOCK   EQU  3   Dereg as a blocking job/proc      @DYA   01-BPXYCONS
                         00000004            2274+ENV_DEREGISTERPERM    EQU  4   Dereg as a permanent job/proc     @DYA   01-BPXYCONS
                         00000005            2275+ENV_REGISTERNOTIFY    EQU  5   Register as a notify job/proc     @DYA   01-BPXYCONS
                         00000006            2276+ENV_DEREGISTERNOTIFY  EQU  6   Dereg as a notify job/proc        @DYA   01-BPXYCONS
                         00000001            2277+ENV_REGISTERJOB       EQU  1   Register Job                      @DYA   01-BPXYCONS
                         00000002            2278+ENV_REGISTERPROC      EQU  2   Register Process                  @DYA   01-BPXYCONS
1                                                                                                               Page   51            
   Active Usings: PARMS,R9  CONSTANTS,R11  CEECAA,R12  CEEDSA,R13                                                                    
0D-Loc    Object Code      Addr1    Addr2    Stmt  Source Statement                          HLASM R6.0  2012/03/05 10.22            
0                                            2279+*                                                                @DYA              
0                                            2281+*   Define equates for PIDXFER_QUERY return values               @DXA              
                                             2282+*                                                                @DXA              
                         00000001            2283+PIDXFER_YES          EQU   1    Process was PIDXFERed            @DXA   01-BPXYCONS
                         00000002            2284+PIDXFER_NO           EQU   2    Process was not PIDXFERed        @DXC   01-BPXYCONS
0                                            2286+*   Define equates for versions of OSMF on BPXESMF syscall                         
                         00000001            2287+OSMF_VER_HOM1110     EQU   1    Version 1 of OSMF, for HOM1110   @P5A   01-BPXYCONS
                         00000002            2288+OSMF_VER_HOM1120     EQU   2    Version 2 of OSMF, for HOM1120   @P5A   01-BPXYCONS
                         00000003            2289+OSMF_VER_HOM1130     EQU   3    Version 3 of OSMF, for HOM1130   @P5A   01-BPXYCONS
0                                            2291+*   Define equates for task ecurity syscall function codes                         
                         00000001            2292+TLS_CREATE_THREAD_SEC# EQU 1    Build Task Security              @P7A   01-BPXYCONS
                         00000002            2293+TLS_DELETE_THREAD_SEC# EQU 2    Delete Task Security             @P7A   01-BPXYCONS
                         00000003            2294+TLS_TASK_ACEE#         EQU 3    set posix identity from task ACEE@DYA   01-BPXYCONS
                         00000004            2295+TLS_TASK_ACEE_USP#     EQU 4    User passed ACEE/USP pair        @E6A   01-BPXYCONS
                         00000005            2296+TLS_DAEMON_THREAD_SEC# EQU 5    Build unauthenticated Security   @E8A   01-BPXYCONS
                         00000001            2297+TLS_IDENTITY_USERID#   EQU 1    User identity: 1-8 char userid   @P7A   01-BPXYCONS
                         00000002            2298+TLS_IDENTITY_UID#      EQU 2    User identity: 4-byte uid        @P7A   01-BPXYCONS
                         00000004            2299+TLS_IDENTITY_CERT#     EQU 4    User identity: CERT structure    @PFA   01-BPXYCONS
0                                            2301+*   Define equates for __Security syscall                                          
                                             2302+*   __Security function code                                                       
                         00000001            2303+SECURITY_CREATE#       EQU 1    Create new security environment  @DKA   01-BPXYCONS
                         00000002            2304+SECURITY_CERTREG#      EQU 2    Register certificate with caller @DOA   01-BPXYCONS
                         00000003            2305+SECURITY_CERTDEREG#    EQU 3    DeReg certificate from caller    @DOA   01-BPXYCONS
                         00000004            2306+SECURITY_CERTAUTH#     EQU 4    Authorize certificate from caller@E3A   01-BPXYCONS
                                             2307+*   __Security user identity                                                       
                         00000001            2308+SECURITY_USERID#       EQU 1    User identity is 1-8 char userid @DKA   01-BPXYCONS
                         00000002            2309+SECURITY_CERTIFICATE#  EQU 2    User identity is a certificate   @DKA   01-BPXYCONS
0                                            2311+*   Define equates for convert_id_np (BPX1CID) syscall function codes              
                         00000001            2312+CID_GET_UUID#          EQU 1    Retrieve UUID                    @P8A   01-BPXYCONS
                         00000002            2313+CID_GET_USERID#        EQU 2    Retrieve userid                  @P8A   01-BPXYCONS
0                                            2315+*   Define equates for __pid_affinity (BPX1PAF) syscall function codes             
                         00000001            2316+PAF_ADD_PID#           EQU 1    Add PID to affinity list         @DMA   01-BPXYCONS
                         00000002            2317+PAF_DELETE_PID#        EQU 2    Delete PID from affinity list    @DMA   01-BPXYCONS
0                                            2319+* Define equates for auth_check_resource_np  syscall access types                  
                         00000001            2320+ACK_READ#              EQU 1    Test READ access                 @P8A   01-BPXYCONS
                         00000002            2321+ACK_UPDATE#            EQU 2    Test UPDATE access               @P8A   01-BPXYCONS
                         00000003            2322+ACK_CONTROL#           EQU 3    Test CONTROL access              @P8A   01-BPXYCONS
                         00000004            2323+ACK_ALTER#             EQU 4    Test ALTER access                @P8A   01-BPXYCONS
0                                            2325+*   The high order two bytes of the reason codes returned by                       
                                             2326+*   OpenMVS services contains a value that is used to qualify                      
                                             2327+*   the contents of the low order two bytes. If the contents of                    
                                             2328+*   the high-order two bytes are within the range of #CMID_LO to                   
                                             2329+*   #CMID_HI, the error represented by the reason code is defined                  
                                             2330+*   by OpenMVS. If the contents of the high order two bytes lie                    
                                             2331+*   outside the range, the error represented by the reason code                    
                                             2332+*   is not an OpenMVS reason code.                                                 
                         00000000            2333+#CMID_LOW            EQU   0000   Low range                             01-BPXYCONS
1                                                                                                               Page   52            
   Active Usings: PARMS,R9  CONSTANTS,R11  CEECAA,R12  CEEDSA,R13                                                                    
0D-Loc    Object Code      Addr1    Addr2    Stmt  Source Statement                          HLASM R6.0  2012/03/05 10.22            
0                        000020FF            2334+#CMID_HI             EQU   8447   High range                            01-BPXYCONS
                                             2335+*   Define equates for console cmd                                                 
                         000045BA            2336+CC_MAX_MSG_LENGTH       EQU 17850 Max Wto string length for SUs   @DIC  01-BPXYCONS
                         00004574            2337+CC_MAX_MSG_LENGTH_NONSU EQU 17780 Max Wto string length for nonSU @DIC  01-BPXYCONS
                         00000080            2338+CC_MODIFY_BUFFER_LENGTH EQU 128  Length of Modify Buffer          @PAC  01-BPXYCONS
                         00000001            2339+CONSOLE_MODIFY          EQU   1  Service interrupted by Modify    @PAC  01-BPXYCONS
                         00000002            2340+CONSOLE_STOP            EQU   2  Service interrupted by Stop      @PAC  01-BPXYCONS
                                             2341+*   Define equates for server_init syscall ManagerType parameter                   
                         00000001            2342+SRV_WORKMGR             EQU   1  Work Manager services requested  @DGA  01-BPXYCONS
                         00000002            2343+SRV_QUEUEMGR            EQU   2  Queue Mgr services requested     @DGA  01-BPXYCONS
                         00000004            2344+SRV_SERVERMGR           EQU   4  Server Mgr services requested    @DGA  01-BPXYCONS
                         00000008            2345+SRV_SERVERMGRDYNAMIC    EQU   8  Server Mgr With Dynamic mngt     @DSA  01-BPXYCONS
                                             2346+*   Define equates for server_pwu syscall FcnCode parameter                        
                         00000001            2347+SRV_PUT_NEWWRK          EQU   1  Put new work function requested  @DGA  01-BPXYCONS
                         00000002            2348+SRV_PUT_SUBWRK          EQU   2  Put sub work function requested  @DGA  01-BPXYCONS
                         00000004            2349+SRV_TRANSFER_WRK        EQU   4  Transfer work function requested @DGA  01-BPXYCONS
                         00000008            2350+SRV_GET_WRK             EQU   8  Get work function requested      @DGA  01-BPXYCONS
                         00000010            2351+SRV_REFRESH_WRK         EQU  16  Refresh work fcn requested       @DGA  01-BPXYCONS
                         00000020            2352+SRV_END_WRK             EQU  32  End work function requested      @DGA  01-BPXYCONS
                         00000040            2353+SRV_DEL_ENC             EQU  64  Delete Enclave Fcn requested     @DGA  01-BPXYCONS
                         00000080            2354+SRV_DISCONNECT          EQU 128  Disconnect from WLM              @PBA  01-BPXYCONS
                         00000100            2355+SRV_DISCONNECT_COND     EQU 256  Disconnect conditional from WLM  @PCA  01-BPXYCONS
                                             2356+*                       EQU 512  Reserved for internal use        @PGA             
                                             2357+*                                See BPXZCONS                     @PGA             
                                             2358+*   Define equates for BPX1SLK syscall LockFcnCode parameter                       
                         00000001            2359+SLK_OBTAIN              EQU   1  Obtain function request          @DZA  01-BPXYCONS
                         00000002            2360+SLK_OBTAIN_COND         EQU   2  Obtain conditional function req  @DZA  01-BPXYCONS
                         00000004            2361+SLK_INIT                EQU   4  Initialization function request  @DZA  01-BPXYCONS
                         00000008            2362+SLK_DESTROY             EQU   8  Destroy function request         @DZA  01-BPXYCONS
                         00000010            2363+SLK_RELEASE             EQU  16  Release function request         @DZA  01-BPXYCONS
                                             2364+*   Define equates for BPX1SLK syscall LockReqType parameter                       
                         00000001            2365+SLK_NORMAL              EQU   1  Normal request type              @DZA  01-BPXYCONS
                         00000002            2366+SLK_ERRORCHECK          EQU   2  Errorcheck request type          @DZA  01-BPXYCONS
                         00000004            2367+SLK_RECURSIVE           EQU   4  Recursive request type           @DZA  01-BPXYCONS
                                             2368+*   Define equates for BPX1SLK syscall LockType parameter                          
                         00000001            2369+SLK_EXCLUSIVE           EQU   1  Exclusive lock type              @DZA  01-BPXYCONS
                         00000002            2370+SLK_SHARED              EQU   2  Shared lock type                 @DZA  01-BPXYCONS
                                             2371+*                                                                                  
                                             2372+* Constants for BPX1PCT pfsctl                                                     
                                             2373+*                                                                                  
                                             2374+*  Constants for BPXVRCAC - LFS Cache                             @DHA             
                         80000007            2375+PC#ADDFILE              EQU X'80000007' Filecache cmd '80000007'x @PDC  01-BPXYCONS
                         80000008            2376+PC#DELETEFILE           EQU X'80000008' Filecache cmd '80000008'x @PDC  01-BPXYCONS
                         8000000A            2377+PC#PURGECACHE           EQU X'8000000A' Filecache cmd '8000000A'x @PDC  01-BPXYCONS
                         80000009            2378+PC#REFRESHCACHE         EQU X'80000009' Filecache cmd '80000009'x @PDC  01-BPXYCONS
                         8000000B            2379+PC#SHUTDOWNFILESYS      EQU X'8000000B' Soft Shutdown '8000000B'x @DVA  01-BPXYCONS
                         8000000C            2380+PC#PfsRecycle           EQU X'8000000C' Shutdown PFS for recycle        01-BPXYCONS
                         8000000D            2381+PC#PfsRestart           EQU X'8000000D' Restart the PFS                 01-BPXYCONS
                                             2382+*                                                                                  
                         C0000006            2383+PC#SETIBMASYIO          EQU X'C0000006' SetIbm AsyncIO 'C0000006'x@PDC  01-BPXYCONS
                         C0000005            2384+PC#SETIBMOPTCMD         EQU X'C0000005' SetIBMOpt TCP  'C0000005'x@PDC  01-BPXYCONS
                         C000000B            2385+PC#ERRORTEXT            EQU X'C000000B' Get error text 'C000000B'x@DNA  01-BPXYCONS
                                             2386+*                                                     -1073741813 @DNA             
                         C000000E            2387+PC#SYSNAMES             EQU X'C000000E' Get sysnames   'C000000C'x@PxA  01-BPXYCONS
                         C000000F            2388+PC#TDNAMES              EQU X'C000000F' GET CINET TDNAMES         @03A  01-BPXYCONS
1                                                                                                               Page   53            
   Active Usings: PARMS,R9  CONSTANTS,R11  CEECAA,R12  CEEDSA,R13                                                                    
0D-Loc    Object Code      Addr1    Addr2    Stmt  Source Statement                          HLASM R6.0  2012/03/05 10.22            
0                        C0000010            2389+PC#HFSSTATS             EQU X'C0000010' GET HFS Stats             @PKA  01-BPXYCONS
                         C0000011            2390+PC#BRLMSRVR             EQU X'C0000011' GET brlm server name      @PKA  01-BPXYCONS
                         80000012            2391+PC#SFSDIAG              EQU X'80000012' Shared-FS Diagnose        @DTA  01-BPXYCONS
                         C0000013            2392+PC#USERSIGNAL           EQU X'C0000013' Set Lost Locks Signal(@05)@06A  01-BPXYCONS
                         C0000014            2393+PC#DIRGETHOST           EQU X'C0000014' Directed GetHost          @06A  01-BPXYCONS
                         C0000015            2394+PC#SHUTTINGDOWNFS       EQU X'C0000015' File system shutdown      @E7A  01-BPXYCONS
                         C0000016            2395+PC#RECYCLEDONE          EQU X'C0000016' recycle is complete       @EDA  01-BPXYCONS
                                             2396+*  PC#GetVnodeToken - Allocate Vde & insert an open                                
                         80000017            2397+PC#GETVNODETOKEN        EQU X'80000017'                           @F2A  01-BPXYCONS
                                             2398+*         inet6_is_srcaddr() function                             @F3A             
                         C0000018            2399+PC#ISSRCADDR            EQU X'C0000018' inet6_is_srcaddr          @F3A  01-BPXYCONS
                                             2400+*  PC#ErrorText Subfunctions   - Request type:                                     
                         00000000            2401+PC#ETDESC               EQU X'0000'     Get description text      @DNA  01-BPXYCONS
                         00000001            2402+PC#ETACTION             EQU X'0001'     Get action text           @DNA  01-BPXYCONS
                         00000002            2403+PC#ETMODNAME            EQU X'0002'     Get module name           @DNA  01-BPXYCONS
                                             2404+*  PC#ErrorText Error code type                                                    
                         00000000            2405+PC#ETREASON             EQU X'0000'     Reason code input         @DNA  01-BPXYCONS
                         00000001            2406+PC#ETERRNO              EQU X'0001'     Errno code input          @DNA  01-BPXYCONS
                                             2407+*  PC#ShuttingDownFS args                                                          
                         00000001            2408+PC#TYPEFILESYS          EQU X'00000001' shutdown=filesys          @E7A  01-BPXYCONS
                         00000002            2409+PC#TYPEFILEOWNER        EQU X'00000002' shutdown=fileowner        @E7A  01-BPXYCONS
                         00000003            2410+PC#TYPEOMVS             EQU X'00000003' omvs shutdown             @E7A  01-BPXYCONS
                                             2411+*                                                                                  
                                             2412+* Constants for BPX1LOD  - HFS load - options                     @EFC             
                                             2413+*                                                                                  
                         80000000            2414+LOD_ERROR_ST_EXLINK     EQU X'80000000'  Error if sticky/ext lnk  @DRA  01-BPXYCONS
                         40000000            2415+LOD_IGNORE_STICKY       EQU X'40000000'  Skip sticky check        @DRA  01-BPXYCONS
                                             2416+*                                                                                  
                                             2417+*                                                                                  
                                             2418+* Constants for BPX1LDX  - extended HFS load - options            @EFC             
                                             2419+*                          and directed load returned parameters                   
                                             2420+*                                                                                  
                         20000000            2421+LOD_DIRECTED            EQU X'20000000'  Directed loadhfs         @ECA  01-BPXYCONS
                                             2422+*                                                                                  
 00000000                00000000 00000018   2423+DIRECTEDLOADRETURNEDPARMS   DSECT ,                               @ECA  01-BPXYCONS
 00000000                                    2424+DIRECTEDLOADMODULELENGTH64  DS  FD Directed Load Mod Len AMODE64  @ECA  01-BPXYCONS
 00000008                00000008 00000000   2425+                            ORG DIRECTEDLOADMODULELENGTH64        @ECA  01-BPXYCONS
 00000000                                    2426+                            DS  F                                 @ECA  01-BPXYCONS
 00000004                                    2427+DIRECTEDLOADMODULELENGTH    DS  F  Directed Load Mod Len AMODE31  @ECA  01-BPXYCONS
                                             2428+*                                                                                  
 00000008                                    2429+DIRECTEDLOADMODULESTART64   DS  AD Directed Load Mod Start AMODE64@ECA  01-BPXYCONS
 00000010                00000010 00000008   2430+                            ORG DIRECTEDLOADMODULESTART64         @ECA  01-BPXYCONS
 00000008                                    2431+                            DS  F                                 @ECA  01-BPXYCONS
 0000000C                                    2432+DIRECTEDLOADMODULESTART     DS  A  Directed Load Mod Start AMODE31@ECA  01-BPXYCONS
                                             2433+*                                                                                  
 00000010                                    2434+DIRECTEDLOADMODULEENTRYPT64 DS  AD Directed Load Mod Entry AMODE64@ECA  01-BPXYCONS
 00000018                00000018 00000010   2435+                            ORG DIRECTEDLOADMODULEENTRYPT64       @ECA  01-BPXYCONS
 00000010                                    2436+                            DS  F                                 @ECA  01-BPXYCONS
 00000014                                    2437+DIRECTEDLOADMODULEENTRYPT   DS  A  Directed Load Mod Entry AMODE31@ECA  01-BPXYCONS
                                             2438+*                                                                                  
                                             2439+* Constants for BPX1DSD                                           @DPA             
                                             2440+*                                                                                  
                         00000001            2441+SW_SIGDLV_ENABLE#       EQU 1                                     @DPA  01-BPXYCONS
                         00000002            2442+SW_SIGDLV_DISABLE#      EQU 2                                     @DPA  01-BPXYCONS
                                             2443+*                                                                                  
1                                                                                                               Page   54            
   Active Usings: PARMS,R9  CONSTANTS,R11  CEECAA,R12  CEEDSA,R13                                                                    
0D-Loc    Object Code      Addr1    Addr2    Stmt  Source Statement                          HLASM R6.0  2012/03/05 10.22            
0                                            2444+*   Define equates for BPX1OSE syscall function_code parameter                     
                         00000001            2445+OSENV_GET               EQU   1  get function                     @DQA  01-BPXYCONS
                         00000002            2446+OSENV_SET               EQU   2  set function                     @DQA  01-BPXYCONS
                         00000004            2447+OSENV_UNSET             EQU   4  unset function                   @DQA  01-BPXYCONS
                         00000008            2448+OSENV_PERSIST           EQU   8  persist function                 @DQA  01-BPXYCONS
                         00000010            2449+OSENV_UNPERSIST         EQU   16 unpersist function               @DQA  01-BPXYCONS
                                             2450+*   Define equates for BPX1OSE syscall Request_Flags parameter                     
                         00000001            2451+OSENV_WLM               EQU   1  WLM Enclave membership           @DQA  01-BPXYCONS
                         00000002            2452+OSENV_SECURITY          EQU   2  pthread security environment     @DQA  01-BPXYCONS
                                             2453+*                                                                                  
                                             2454+*   Define equates for BPX1PQG syscall RequestType parameter                       
                         00000002            2455+THDQ_FREEZE             EQU   2  Freezes the threads identified in      01-BPXYCONS
                                             2456+*                                the THDQ Data List array (BPXYTHDQ)               
                                             2457+*                                                                 @DUA             
                         00000008            2458+THDQ_UNFREEZE_ALL       EQU   8  Unfreezes all threads that are frozen  01-BPXYCONS
                                             2459+*                                in the caller process            @DUA             
                         00000001            2460+THDQ_GET_STATE          EQU   1  Retrieves the state data for the       01-BPXYCONS
                                             2461+*                                threads identified in the THDQ data               
                                             2462+*                                list array or for all threads.                    
                                             2463+*                                This value can only be specified with             
                                             2464+*                                THDQ_FREEZE                      @DUA             
                                             2465+*                                                                                  
                                             2466+** BPXYCONS End                                                                    
-                                                                                                                                    
                                             2468          BPXYIOV                                                                   
                                             2469+** BPXYIOV: Socket I/O Vectors                                                     
                                             2470+**  Used By: FCT OPN                                                               
 00000000                00000000 00000008   2471+IOV                  DSECT ,                                            01-BPXYIOV 
 00000000                                    2472+IOV_ENTRY            DS    0F     Array Entry                           01-BPXYIOV 
                                             2473+*  -------------------------- 31-bit format                                        
 00000000                                    2474+IOV_BASE             DS    A      Address of buffer                     01-BPXYIOV 
 00000004                                    2475+IOV_LEN              DS    F      Length of buffer                      01-BPXYIOV 
0                        00000008            2477+IOV#LENGTH          EQU   *-IOV_ENTRY Length of this structure          01-BPXYIOV 
                         00000078            2478+IOV_MAX             EQU   120     Maximum number of entries     @P1A    01-BPXYIOV 
                                             2479+** BPXYIOV End                                                                     
-                                                                                                                                    
                                             2481          CEECAA                                                                    
                                             2482+***********************************************************************            
                                             2483+*  C O M M O N   A N C H O R   A R E A   ( C A A )                    *            
                                             2484+***********************************************************************            
                                             2485+*                                                                                  
                                             2486+         CEEDNUT  ,                                                     01-CEECAA  
                                             2487+***********************************************************************            
                                             2488+***********************************************************************            
                                             2489+*                                                                                  
 00000000                00000000 000003F8   2490+CEECAA   DSECT    ,                 CAA mapping                         01-CEECAA  
 00000000                                    2491+CEECAAFLAG0 DS    X                 CAA Flags                           01-CEECAA  
                         00000002            2492+CEECAAXHDL  EQU   X'02'              Bypass exception handling          01-CEECAA  
                                             2493+*           EQU   X'FD'              Reserved                                      
 00000001                                    2494+            DS    X                 Reserved                            01-CEECAA  
1                                                                                                               Page   55            
   Active Usings: PARMS,R9  CONSTANTS,R11  CEECAA,R12  CEEDSA,R13                                                                    
0D-Loc    Object Code      Addr1    Addr2    Stmt  Source Statement                          HLASM R6.0  2012/03/05 10.22            
0                        00000020            2495+CEECAADBGINIT EQU X'20'              Debugger is initialized            01-CEECAA  
 00000002                                    2496+CEECAALANGP DS    X                 PL/I compatibility flags            01-CEECAA  
                         00000008            2497+CEECAATHFN  EQU   X'08'              If set, NO PL/I FINISH             01-CEECAA  
                                             2498+*                                    on-unit active                                
                                             2499+*           EQU   X'F7'               Reserved                                     
 00000003                                    2500+            DS    XL5               Reserved                            01-CEECAA  
 00000008                                    2501+CEECAABOS   DS    A                 Start of current storage segment    01-CEECAA  
 0000000C                                    2502+CEECAAEOS   DS    A                 End of current storage segment      01-CEECAA  
 00000010                                    2503+            DS    XL52              Reserved                            01-CEECAA  
 00000044                                    2504+CEECAATORC  DS    F                 Thread level return code            01-CEECAA  
 00000048                                    2505+            DS    XL44              Reserved                 @CM0419C   01-CEECAA  
 00000074                                    2506+CEECAATOVF  DS    A                 Stack overflow routine   @CM0419A   01-CEECAA  
 00000078                                    2507+            DS    XL168             Reserved                 @CM0419A   01-CEECAA  
 00000120                                    2508+CEECAAATTN  DS    A                 Addr of LE/370 attention handler    01-CEECAA  
                                             2509+*                                                                                  
 00000124                                    2510+            DS    XL56              Reserved                            01-CEECAA  
 0000015C                                    2511+CEECAAHLLEXIT DS  A                 Set by CEEBINT for user hook exit   01-CEECAA  
 00000160                                    2512+            DS    XL56              Reserved                            01-CEECAA  
 00000198                                    2513+CEECAAHOOK  DS    XL12              Code to pass control                01-CEECAA  
 000001A4                                    2514+CEECAADIMA  DS    A                 A(debugger entry)                   01-CEECAA  
                                             2515+*                                                                                  
 000001A8                                    2516+CEECAAHOOKS DS    0CL68             Hook control words for debugger@G3C 01-CEECAA  
 000001A8                                    2517+CEECAAALLOC DS    XL4               ALLOCATE descr. built               01-CEECAA  
 000001AC                                    2518+CEECAASTATE DS    XL4               New statement begins                01-CEECAA  
 000001B0                                    2519+CEECAAENTRY DS    XL4               Block entry                         01-CEECAA  
 000001B4                                    2520+CEECAAEXIT  DS    XL4               Block exit                          01-CEECAA  
 000001B8                                    2521+CEECAAMEXIT DS    XL4               Multiple block exit                 01-CEECAA  
 000001BC                                    2522+CEECAAPATHS DS    0CL32             PATH hooks                          01-CEECAA  
 000001BC                                    2523+CEECAALABEL DS    XL4               At a label constant                 01-CEECAA  
 000001C0                                    2524+CEECAABCALL DS    XL4               Before CALL                         01-CEECAA  
 000001C4                                    2525+CEECAAACALL DS    XL4               After CALL                          01-CEECAA  
 000001C8                                    2526+CEECAADO    DS    XL4               DO block starting                   01-CEECAA  
 000001CC                                    2527+CEECAAIFTRUE  DS   XL4              True part of IF                     01-CEECAA  
 000001D0                                    2528+CEECAAIFFALSE DS   XL4              False part of IF                    01-CEECAA  
 000001D4                                    2529+CEECAAWHEN    DS   XL4              WHEN group starting                 01-CEECAA  
 000001D8                                    2530+CEECAAOTHER   DS   XL4              OTHERWISE group                     01-CEECAA  
 000001DC                                    2531+CEECAACGOTO   DS   XL4              GOTO hook for C                     01-CEECAA  
 000001E0                                    2532+CEECAARSVDH1  DS   XL4              Reserved hook                       01-CEECAA  
 000001E4                                    2533+CEECAARSVDH2  DS   XL4              Reserved hook                       01-CEECAA  
 000001E8                                    2534+CEECAAMULTEVT DS   XL4              Multiple Event Hook            @G3C 01-CEECAA  
                                             2535+*                                                                                  
 000001EC                                    2536+CEECAAMEVMASK DS   XL4              Multiple Event Hook Mask       @G3A 01-CEECAA  
 000001F0                                    2537+CEECAACGENE DS    A                 Reserved                            01-CEECAA  
 000001F4                                    2538+CEECAACRENT DS    A                 C/370 writable static               01-CEECAA  
 000001F8                                    2539+CEECAACFLTINIT DS XL8               Used to covert fixed to float       01-CEECAA  
 00000200                                    2540+CEECAACPRMS DS    A                 Parms passed to IBMLIIA             01-CEECAA  
 00000204                                    2541+CEECAAC_RTL          DS   0F        Combination of 24 unique C/370 @DJC 01-CEECAA  
                                             2542+*                                   trc types & 8 common trc types                 
 00000204                                    2543+CEECAAC_RTL_1        DS    X        C/370 RTL unique trace options @DJA 01-CEECAA  
                                             2544+*                                                                  @DJA            
 00000205                                    2545+CEECAAC_RTL_2        DS    X        C/370 RTL unique trace options @DJA 01-CEECAA  
                                             2546+*                                                                  @DJA            
 00000206                                    2547+CEECAAC_RTL_3        DS    X        C/370 RTL unique trace options @DJA 01-CEECAA  
                                             2548+*                    EQU   X'80'    Reserved                       @DJA            
                         00000040            2549+CEECAA_SIGNALS_L     EQU   X'40'    Low-level signals              @DJA 01-CEECAA  
1                                                                                                               Page   56            
   Active Usings: PARMS,R9  CONSTANTS,R11  CEECAA,R12  CEEDSA,R13                                                                    
0D-Loc    Object Code      Addr1    Addr2    Stmt  Source Statement                          HLASM R6.0  2012/03/05 10.22            
0                        00000020            2550+CEECAA_LOW_IO        EQU   X'20'    Low-level I/O                  @DJA 01-CEECAA  
                         00000010            2551+CEECAA_INITTERM_L    EQU   X'10'    Low-level init/term            @DJA 01-CEECAA  
                                             2552+*                    EQU   X'08'    Reserved                       @DJA            
                         00000004            2553+CEECAA_SIGNALS_H     EQU   X'04'    High-level signals             @DJA 01-CEECAA  
                         00000002            2554+CEECAA_HIGH_IO       EQU   X'02'    High-level I/O                 @DJA 01-CEECAA  
                         00000001            2555+CEECAA_INITTERM_H    EQU   X'01'    High-level init/term           @DJA 01-CEECAA  
                                             2556+*                                                                  @DJA            
 00000207                                    2557+CEECAAC_COMTRACE     DS    X        Common RTL trace options       @DJA 01-CEECAA  
                                             2558+*                    EQU   X'80'    Reserved                       @DJA            
                                             2559+*                    EQU   X'40'    Reserved                       @DJA            
                         00000020            2560+CEECAA_RTLXPLI       EQU   X'20'    RTL XPLINK trace               @DJA 01-CEECAA  
                         00000010            2561+CEECAA_RTLCICS       EQU   X'10'    RTL CICS   trace               @DJA 01-CEECAA  
                         00000008            2562+CEECAA_RTLALLOC      EQU   X'08'    RTL Alloc  trace               @DJA 01-CEECAA  
                         00000004            2563+CEECAA_RTLCOUNT      EQU   X'04'    RTL Function counting          @DJA 01-CEECAA  
                         00000002            2564+CEECAA_RTLLOCKS      EQU   X'02'    RTL or user locking            @DJA 01-CEECAA  
                         00000001            2565+CEECAA_RTLFUNC       EQU   X'01'    RTL function entry/exit        @DJA 01-CEECAA  
                                             2566+*                                                                                  
 00000208                                    2567+CEECAACTHD  DS    A                                                     01-CEECAA  
 0000020C                                    2568+CEECAACURRFECB DS A                                                     01-CEECAA  
 00000210                                    2569+CEECAAEDCV  DS    A                 C/370 vector table                  01-CEECAA  
 00000214                                    2570+CEECAACPCB  DS    A                                                     01-CEECAA  
 00000218                                    2571+CEECAACEDB  DS    A                 C/370 CEDB                          01-CEECAA  
 0000021C                                    2572+            DS    XL3                                                   01-CEECAA  
 0000021F                                    2573+CEECAASPCFLAG3 DS X                                                     01-CEECAA  
 00000220                                    2574+CEECAACIO   DS    A                 Address oc cio                      01-CEECAA  
 00000224                                    2575+CEECAAFDSETFD DS  F                 Used by FD_* macros                 01-CEECAA  
 00000228                                    2576+CEECAAFCBMUTEXOK DS XL2                                                 01-CEECAA  
 0000022A                                    2577+            DS    XL2                                                   01-CEECAA  
 0000022C                                    2578+CEECAATC16  DS    F                                                     01-CEECAA  
 00000230                                    2579+CEECAATC17  DS    F                                                     01-CEECAA  
 00000234                                    2580+CEECAAEDCOV DS    A                 C/370 Open Libvec                   01-CEECAA  
 00000238                                    2581+CEECAACTOFSV DS   F                                                     01-CEECAA  
 0000023C                                    2582+CEECAATRTSPACE DS A                 C/370 Open Libvec                   01-CEECAA  
 00000240                                    2583+            DS    XL24                                                  01-CEECAA  
 00000258                                    2584+CEECAA_TCASRV DS  0CL36             TCA Service Rtn Vector              01-CEECAA  
 00000258                                    2585+CEECAA_TCASRV_USERWORD  DS A                                            01-CEECAA  
 0000025C                                    2586+CEECAA_TCASRV_WORKAREA  DS A                                            01-CEECAA  
 00000260                                    2587+CEECAA_TCASRV_GETMAIN   DS A                                            01-CEECAA  
 00000264                                    2588+CEECAA_TCASRV_FREEMAIN  DS A                                            01-CEECAA  
 00000268                                    2589+CEECAA_TCASRV_LOAD      DS A                                            01-CEECAA  
 0000026C                                    2590+CEECAA_TCASRV_DELETE    DS A                                            01-CEECAA  
 00000270                                    2591+CEECAA_TCASRV_EXCEPTION DS A                                            01-CEECAA  
 00000274                                    2592+CEECAA_TCASRV_ATTENTION DS A                                            01-CEECAA  
 00000278                                    2593+CEECAA_TCASRV_MESSAGE   DS A                                            01-CEECAA  
 0000027C                                    2594+            DS    XL4               Reserved                            01-CEECAA  
 00000280                                    2595+CEECAALWS   DS    A                 Addr of PL/I Language Working Space 01-CEECAA  
 00000284                                    2596+CEECAASAVR  DS    A                 Register save            @CM0419A   01-CEECAA  
 00000288                                    2597+            DS    XL36              Reserved                       @P6C 01-CEECAA  
                                             2598+*                                                                                  
 000002AC                                    2599+CEECAASYSTM DS    X                 Underlying Operating System@MF0072A 01-CEECAA  
                         00000000            2600+CEECAASYUND EQU   X'00'               undefined                @MF0072A 01-CEECAA  
                         00000001            2601+CEECAASYUNS EQU   X'01'               unsupported              @MF0072A 01-CEECAA  
                         00000002            2602+CEECAASYVM  EQU   X'02'               VM                       @MF0072A 01-CEECAA  
                         00000003            2603+CEECAASYMVS EQU   X'03'               MVS                      @MF0072A 01-CEECAA  
 000002AD                                    2604+CEECAAHRDWR DS    X                 Underlying Hardware        @MF0072A 01-CEECAA  
1                                                                                                               Page   57            
   Active Usings: PARMS,R9  CONSTANTS,R11  CEECAA,R12  CEEDSA,R13                                                                    
0D-Loc    Object Code      Addr1    Addr2    Stmt  Source Statement                          HLASM R6.0  2012/03/05 10.22            
0                        00000000            2605+CEECAAHWUND EQU   X'00'               undefined                @MF0072A 01-CEECAA  
                         00000001            2606+CEECAAHWUNS EQU   X'01'               unsupported              @MF0072A 01-CEECAA  
                         00000002            2607+CEECAAHW370 EQU   X'02'               System / 370 non-XA      @MF0072A 01-CEECAA  
                         00000003            2608+CEECAAHWXA  EQU   X'03'               System / 370 XA          @MF0072A 01-CEECAA  
                         00000004            2609+CEECAAHWESA EQU   X'04'               System / 370 ESA         @MF0072A 01-CEECAA  
 000002AE                                    2610+CEECAASBSYS DS    X                 Underlying Subsystem       @MF0072A 01-CEECAA  
                         00000000            2611+CEECAASSUND EQU   X'00'               undefined                @MF0072A 01-CEECAA  
                         00000001            2612+CEECAASSUNS EQU   X'01'               unsupported              @MF0072A 01-CEECAA  
                         00000002            2613+CEECAASSNON EQU   X'02'               no subsystem             @MF0072A 01-CEECAA  
                         00000003            2614+CEECAASSTSO EQU   X'03'               TSO                      @MF0072A 01-CEECAA  
                         00000005            2615+CEECAASSCIC EQU   X'05'               CICS                     @MF0072A 01-CEECAA  
 000002AF                                    2616+CEECAAFLAG2 DS    X                                            @MF0072A 01-CEECAA  
                         00000080            2617+CEECAABIMODAL EQU X'80'             Bimodal addressing         @MF0072A 01-CEECAA  
                         00000040            2618+CEECAA_VECTOR EQU X'40'             vector hardware available  @MF0072A 01-CEECAA  
                         00000020            2619+CEECAATIP     EQU X'20'             Thread termination in progress      01-CEECAA  
                         00000010            2620+CEECAA_THREAD_INITIAL EQU X'10'     if on, indicates this is the IPT    01-CEECAA  
                         00000008            2621+CEECAA_TRACE_ACTIVE   EQU X'08'     If on, library trace is active      01-CEECAA  
                                             2622+*                                    (TRACE runtime option was set)                
                         00000004            2623+CEECAA_ALTSTK_ACTIVE  EQU X'04'     If on, alt stack active    @KCG0034 01-CEECAA  
                         00000002            2624+CEECAA_ENQ_WAIT_INTERRUPTABLE EQU X'02' PL/I doing Exclusive   KN80230  01-CEECAA  
                                             2625+*                                       file in Multitasking   KN80230             
                         00000001            2626+CEECAA_USRSTK_ACTIVE  EQU X'01'     If on, context switching user stack 01-CEECAA  
                                             2627+*                                       is active              PQ04250             
                                             2628+*                                                                                  
 000002B0                                    2629+CEECAALEVEL DS    X                 LE/370 level identifier             01-CEECAA  
                         00000018            2630+CEL_LEVEL_IDENTIFIER EQU X'18'                                     @DRC 01-CEECAA  
 000002B1                                    2631+CEECAA_PM   DS    X                 PROGRAM MASK               @NX0166C 01-CEECAA  
 000002B2                                    2632+CEECAA_INVAR DS   XL2               At same offset in 31 & 64 mode @G3C 01-CEECAA  
 000002B4                                    2633+CEECAAGETLS DS    A                 ADDR OF LE/370 LIBRARY STACK MGR    01-CEECAA  
 000002B8                                    2634+CEECAACELV  DS    A                 Addr of LE/370 LIBVEC               01-CEECAA  
 000002BC                                    2635+CEECAAGETS  DS    A                 Addr of LE/370 get stack stg rtn    01-CEECAA  
 000002C0                                    2636+CEECAALBOS  DS    A                 Start of library stack stg seg      01-CEECAA  
 000002C4                                    2637+CEECAALEOS  DS    A                 End of library stack stg seg        01-CEECAA  
 000002C8                                    2638+CEECAALNAB  DS    A                 Next available byte of lib stg      01-CEECAA  
 000002CC                                    2639+CEECAADMC   DS    A                 Addr of ESPIE Devil-May-Care rtn    01-CEECAA  
 000002D0                                    2640+CEECAAABCODE DS   0F                Most recent ABEND completion CDE    01-CEECAA  
 000002D0                                    2641+CEECAACD    DS    XL4               Most recent CAASHAB abend code      01-CEECAA  
 000002D4                                    2642+CEECAARSNCODE DS  0F                Most recent ABEDN reason Code       01-CEECAA  
 000002D4                                    2643+CEECAARS    DS    XL4               Most recent CAASHAB reason code     01-CEECAA  
 000002D8                                    2644+CEECAAERR   DS    A                 Addr of the current CIB             01-CEECAA  
 000002DC                                    2645+CEECAAGETSX DS    A                 Addr of LE/370 stack stg extender   01-CEECAA  
 000002E0                                    2646+CEECAADDSA  DS    A                 Addr of the dummy DSA               01-CEECAA  
 000002E4                                    2647+CEECAASECTSIZ DS  F                 Vector Section Size                 01-CEECAA  
 000002E8                                    2648+CEECAAPARTSUM DS  F                 Vector Partial Sum Number           01-CEECAA  
 000002EC                                    2649+CEECAASSEXPNT DS  F                 Log of Vector Section Size          01-CEECAA  
 000002F0                                    2650+CEECAAEDB   DS    A                 address of the EDB                  01-CEECAA  
 000002F4                                    2651+CEECAAPCB   DS    A                 address of the PCB                  01-CEECAA  
                                             2652+* ---------------------------------------------------------------------            
                                             2653+* - THE FOLLOWING TWO FIELDS ARE USED FOR VALIDATION OF THE CAA.      -            
                                             2654+* ---------------------------------------------------------------------            
 000002F8                                    2655+CEECAAEYEPTR DS   A                 addr of CAA eyecatcher              01-CEECAA  
 000002FC                                    2656+CEECAAPTR   DS    A                 addr of this CAA                    01-CEECAA  
 00000300                                    2657+CEECAAGETS1 DS    A                 DSA alloc - R13 not DSA addr        01-CEECAA  
 00000304                                    2658+CEECAASHAB  DS    A                 ABEND shunt routine address         01-CEECAA  
 00000308                                    2659+CEECAAPRGCK DS    A                 pgm interrupt code for CAADMC       01-CEECAA  
1                                                                                                               Page   58            
   Active Usings: PARMS,R9  CONSTANTS,R11  CEECAA,R12  CEEDSA,R13                                                                    
0D-Loc    Object Code      Addr1    Addr2    Stmt  Source Statement                          HLASM R6.0  2012/03/05 10.22            
00000030C                                    2660+CEECAAFLAG1 DS    X                 CAA Flag 1                          01-CEECAA  
                         00000080            2661+CEECAASORT  EQU   B'10000000'       Call to DFSORT is active            01-CEECAA  
                         00000040            2662+CEECAA_USE_OLD_STK  EQU  B'01000000'  use old stack               @P5A  01-CEECAA  
                         00000020            2663+CEECAA_CICS_EXT_REG EQU  B'00100000'  CICS extended regs active   @DQA  01-CEECAA  
 0000030D                                    2664+            DS    CL3               reserved                            01-CEECAA  
 00000310                                    2665+CEECAAURC   DS    F                 Thread level return code.           01-CEECAA  
 00000314                                    2666+CEECAARSRV1 DS    4A                                                    01-CEECAA  
                                             2667+* ---------------------------------------------------------------------            
                                             2668+* - THE FOLLOWING FIELD CONTAINS THE PRE-INIT COMPATABILITY           -            
                                             2669+* - CONTROL BLOCK ADDRESS.                                            -            
                                             2670+* ---------------------------------------------------------------------            
 00000324                                    2671+CEECAAPICICB DS   A                 Addr of pre-init compatability cb   01-CEECAA  
 00000328                                    2672+CEECAARSRV2  DS   A                                                     01-CEECAA  
                                             2673+* ---------------------------------------------------------------------            
 0000032C                                    2674+CEECAAGOSMR  DS   H                 Go Some More. used TRAV multiple    01-CEECAA  
 0000032E                                    2675+             DS   H                 skip.                               01-CEECAA  
                                             2676+* ---------------------------------------------------------------------            
 00000330                                    2677+CEECAALEOV   DS   A                 Addr of LE/OpenMVS LIBVEC           01-CEECAA  
 00000334                                    2678+CEECAA_SIGSCTR        DS  F         SIGSAFE Counter            @C54544  01-CEECAA  
                                             2679+*                                                                                  
 00000338                                    2680+CEECAA_SIGSFLG        DS  XL4       SIGSAFE Flags              @C54544  01-CEECAA  
                                             2681+*                                                                                  
                                             2682+*                     First byte                                   @P4A            
                                             2683+*                                                                                  
                         00000080            2684+CEECAA_SIGPUTBACK     EQU X'80'     Signal Putback                      01-CEECAA  
                         00000040            2685+CEECAA_SA_RESTART     EQU X'40'     SA_Restart processing needed        01-CEECAA  
                                             2686+*                     EQU X'20'     <unused>                                       
                         00000010            2687+CEECAA_SIGSAFE        EQU X'10'     Indicates that synchronous          01-CEECAA  
                                             2688+*                                    signals are safe to be delivered              
                                             2689+*                                    regardless of where the interrupt             
                                             2690+*                                    occurred                                      
                         00000008            2691+CEECAA_CANCELSAFE     EQU X'08'     Indicates that synchronous @CM0565A 01-CEECAA  
                                             2692+*                                    cancels are safe to be    @CM0565A            
                                             2693+*                                    delivered regardless of   @CM0565A            
                                             2694+*                                    where the interrupt       @CM0565A            
                                             2695+*                                    occurred                  @CM0565A            
                         00000004            2696+CEECAA_SIGRESYNCH     EQU X'04'     One or more synchronous signals     01-CEECAA  
                                             2697+*                                    may have been recently put back               
                                             2698+*                                    last time a signal was resolicited            
                                             2699+*                                    when returning to non-XPLINK                  
                                             2700+*                                    user code                                     
                         00000002            2701+CEECAA_FRZ_UNSAFE     EQU X'02'     This thread is in an unsafe state   01-CEECAA  
                                             2702+*                                   to be frozen (set by members)                  
                         00000001            2703+CEECAA_NOAPPREGS      EQU X'01'     User Application registers may      01-CEECAA  
                                             2704+*                                   be saved in a nonstandard place                
                                             2705+*                                                                  @DFA            
                                             2706+*                     Second byte                                  @P4A            
                                             2707+*                                                                                  
                         00000080            2708+CEECAA_EINTR_RSOL     EQU   X'80'   Secondary signal resolicit          01-CEECAA  
                                             2709+*                                   in progress after EINTR                        
                                             2710+*                                   from inner function            @P4A            
                         00000040            2711+CEECAA_EINTR_PUTB     EQU   X'40'   Secondary resolicited signal        01-CEECAA  
                                             2712+*                                   has been put back              @P4A            
                         00000020            2713+CEECAA_EINTR_REST     EQU   X'20'   User catcher returned after         01-CEECAA  
                                             2714+*                                   catching secondary                             
1                                                                                                               Page   59            
   Active Usings: PARMS,R9  CONSTANTS,R11  CEECAA,R12  CEEDSA,R13                                                                    
0D-Loc    Object Code      Addr1    Addr2    Stmt  Source Statement                          HLASM R6.0  2012/03/05 10.22            
0                                            2715+*                                   resolicited signal with                        
                                             2716+*                                   SA_RESTART in effect           @P4A            
                         00000010            2717+CEECAA_EINTR_SIGG     EQU   X'10'   "Stray" signal interrupted          01-CEECAA  
                                             2718+*                                   CEEOSIGG while secondary                       
                                             2719+*                                   signal resolicitation                          
                                             2720+*                                   was in progress                @P4A            
                                             2721+*                     EQU   X'08'   Reserved                       @P4A            
                                             2722+*                     EQU   X'04'   Reserved                       @P4A            
                                             2723+*                     EQU   X'02'   Reserved                       @P4A            
                                             2724+*                     EQU   X'01'   Reserved                       @P4A            
                                             2725+*                                                                                  
                                             2726+*                     (16 unused bits)                             @P4C            
                                             2727+*                                                                                  
 0000033C                                    2728+CEECAATHDID           DS  CL8       Posix thread id                     01-CEECAA  
 00000344                                    2729+CEECAA_DCRENT         DS  A         CRENT anchor for DCE                01-CEECAA  
 00000348                                    2730+CEECAA_DANCHOR        DS  A         DCE anchor per thread               01-CEECAA  
 0000034C                                    2731+CEECAA_CTOC           DS  A         TOC anchor for CRENT                01-CEECAA  
 00000350                                    2732+CEECAARCB             DS  A         A(RCB)                              01-CEECAA  
 00000354                                    2733+CEECAACICSRSN         DS  A         CICS reason code from member        01-CEECAA  
                                             2734+*                                   language                                       
 00000358                                    2735+CEECAAMEMBR           DS  A         Addr of thread-level member list    01-CEECAA  
 0000035C                                    2736+CEECAA_SIGNAL_STATUS  DS  A         Signal stat for terminating thd     01-CEECAA  
 00000360                                    2737+CEECAA_HCOM_REG7      DS 0A         Saved Reg7  from HCOM               01-CEECAA  
 00000360                                    2738+CEECAA_HCOM_REG14     DS  A         Saved Reg14 from HCOM   @CH0092A    01-CEECAA  
 00000364                                    2739+CEECAA_STACKFLOOR     DS  A         Lowest usable addr in HP stack      01-CEECAA  
 00000368                                    2740+CEECAAHPGETS          DS  A         HP stack extension rtn              01-CEECAA  
 0000036C                                    2741+CEECAAEDCHPXV         DS  A         C/C++ XPLINK libvec                 01-CEECAA  
 00000370                                    2742+CEECAAFOR1            DS  A         Reserved for FORTRAN                01-CEECAA  
 00000374                                    2743+CEECAAFOR2            DS  A         Reserved for FORTRAN                01-CEECAA  
 00000378                                    2744+CEECAATHREADHEAPID    DS  A         Thread heapid         @NX0093A      01-CEECAA  
 0000037C                                    2745+CEECAA_SYS_RTNCODE    DS  F         Sys (kernel) return code @CM1752    01-CEECAA  
 00000380                                    2746+CEECAA_SYS_RSNCODE    DS  F         Sys (kernel) reason code @CM1752    01-CEECAA  
 00000384                                    2747+CEECAAGETFN           DS  A         Address of WSA swap routine         01-CEECAA  
 00000388                                    2748+CEECAA_LER4           DS  CL8       Reserved for expansion LE 1.4       01-CEECAA  
                                             2749+********************************************************************               
                                             2750+*    LE V1R5M0 EXTERNAL CONTROL BLOCK SECTION                      *               
                                             2751+*      - any external control block fields should be added         *               
                                             2752+*        in this section.  Extra reserved space was added          *               
                                             2753+*        with the intention of at end of project the excess        *               
                                             2754+*        reserved space will be removed and all external fields    *               
                                             2755+*        will be shifted.                                          *               
                                             2756+********************************************************************               
 00000390                                    2757+CEECAASIGNGPTR        DS  A         Pointer to 'signam' external        01-CEECAA  
                                             2758+*                                   variable in a C application                    
 00000394                                    2759+CEECAASIGNG           DS  F         value of sign of lgamma()           01-CEECAA  
                                             2760+*                                    -1 - negative sign                            
                                             2761+*                                     0 - zero                                     
                                             2762+*                                    +1 - positive sign                            
 00000398                                    2763+CEECAA_FORDBG         DS  A         Ptr to AFHDBHIM -        @N80095A   01-CEECAA  
                                             2764+*                                   FORTRAN hook interface   @N80095A              
 0000039C                                    2765+CEECAAAB_STATUS       DS  X         validity flags           KN80120    01-CEECAA  
                         00000080            2766+CEECAAAB_GR0_VALID    EQU X'80'     CEECAAAB_GR0 is valid    KN80120    01-CEECAA  
                         00000040            2767+CEECAAAB_ICD1_VALID   EQU X'40'     CEECAAAB_ICD1 is valid   KN80120    01-CEECAA  
                         00000020            2768+CEECAAAB_ABCC_VALID   EQU X'20'     CEECAAAB_ABCC is valid   KN80120    01-CEECAA  
                         00000010            2769+CEECAAAB_CRC_VALID    EQU X'10'     CEECAAAB_CRC is valid    KN80120    01-CEECAA  
1                                                                                                               Page   60            
   Active Usings: PARMS,R9  CONSTANTS,R11  CEECAA,R12  CEEDSA,R13                                                                    
0D-Loc    Object Code      Addr1    Addr2    Stmt  Source Statement                          HLASM R6.0  2012/03/05 10.22            
0                        00000008            2770+CEECAAAB_GR15_VALID   EQU X'08'     CEECAAAB_GR15 is valid   KN80120    01-CEECAA  
 0000039D                                    2771+CEECAA_STACKDIRECTION DS  X         Stack Direction                     01-CEECAA  
                         00000000            2772+CEECAASTACK_UP        EQU X'00'     Up                                  01-CEECAA  
                         00000001            2773+CEECAASTACK_DOWN      EQU X'01'     Down (XPLINK)                       01-CEECAA  
 0000039E                                    2774+                      DS  XL2       RESERVED                 KN80120    01-CEECAA  
 000003A0                                    2775+CEECAAAB_GR0          DS  A         Reg 0                    KN80120    01-CEECAA  
 000003A4                                    2776+CEECAAAB_ICD1         DS  A         SDWAICD1                 KN80120    01-CEECAA  
 000003A8                                    2777+CEECAAAB_ABCC         DS  A         SDWAABCC                 KN80120    01-CEECAA  
 000003AC                                    2778+CEECAAAB_CRC          DS  A         SDWACRC                  KN80120    01-CEECAA  
                         000002D4            2779+CEECAAAB_GR15         EQU CEECAARS  reg 15                   KN80120    01-CEECAA  
 000003B0                                    2780+CEECAAAGTS            DS  A         C compiler stk inc       KN00102    01-CEECAA  
 000003B4                                    2781+CEECAA_LER5N1         DS  CL4       reserved for expansion   KCG0088    01-CEECAA  
 000003B8                                    2782+CEECAAHERP            DS  A         A(CEEHERP)               KCG0061    01-CEECAA  
 000003BC                                    2783+CEECAAUSTKBOS         DS  A         Start of user stack seg  PQ04250    01-CEECAA  
 000003C0                                    2784+CEECAAUSTKEOS         DS  A         End of user stack seg    PQ04250    01-CEECAA  
 000003C4                                    2785+CEECAAUSERRTN@        DS  A         A(UserRtn) for pthread     @01A     01-CEECAA  
 000003C8                                    2786+CEECAAUDHOOK          DS  XL8       hook swapping xplink       @DBA     01-CEECAA  
                                             2787+*                     DS  BL8       reserved                   @DBA                
                                             2788+*CEECAAUDHOOKSW        DS  BL4       hook switch                @DBA               
                                             2789+*                      DS  BL4       reserved                   @DBA               
                                             2790+*                      DS  XL6       reserved                   @DBA               
 000003D0                                    2791+CEECAACEL_HPXV_B      DS  A         Address of XPLink compat   @DCC     01-CEECAA  
                                             2792+*                                    vector for Base library   @DCA                
 000003D4                                    2793+CEECAACEL_HPXV_M      DS  A         Address of XPLink compat   @DCA     01-CEECAA  
                                             2794+*                                    vector for Math library   @DCA                
 000003D8                                    2795+CEECAACEL_HPXV_L      DS  A         Address of XPLink          @DCC     01-CEECAA  
                                             2796+*                                    compat vector for         @DCA                
                                             2797+*                                    Locale library            @DCA                
 000003DC                                    2798+CEECAACEL_HPXV_O      DS  A         Address of XPLink          @DDA     01-CEECAA  
                                             2799+*                                    compat vector for         @DDA                
                                             2800+*                                    Open library              @DDA                
 000003E0                                    2801+CEECAACEL4VEC3        DS  A         Address of Vec3 LibVec     @DHA     01-CEECAA  
 000003E4                                    2802+CEECAA_CEEDLLF          DS A        Addr of newest CEEDLLF.  Not   @P6M 01-CEECAA  
                                             2803+*                                   same offset as in 64bit.       @P6M            
 000003E8                                    2804+CEECAA_SAVSTACK       DS  A         Saved Stack pointer used for   @DPA 01-CEECAA  
                                             2805+*                                     OS_NOSTACK linkage           @DPA            
 000003EC                                    2806+                      DS  XL4       Reserved                       @DSC 01-CEECAA  
 000003F0                                    2807+                      DS  F         Reserved                       @DTC 01-CEECAA  
 000003F4                                    2808+CEECAA_SAVSTACK_ASYNC DS  A         Zero or address of 4-byte field@DPA 01-CEECAA  
                                             2809+*                                   where the stack pointer can be @DPA            
                                             2810+*                                   saved. When the stack pointer  @DPA            
                                             2811+*                                   is saved here, asynchronous    @DPA            
                                             2812+*                                   signals will be accepted.      @DPA            
                         00000094            2813+CEECELVGTUN EQU  148                Offset to Get user nab service.     01-CEECAA  
                                             2814          ISGYQUAA                                                                  
1         ISGYQUAA  - ISGQUERY Answer Area                                                                      Page   61            
   Active Usings: PARMS,R9  CONSTANTS,R11  CEECAA,R12  CEEDSA,R13                                                                    
0D-Loc    Object Code      Addr1    Addr2    Stmt  Source Statement                          HLASM R6.0  2012/03/05 10.22            
0                                            2816+**/ ISGYQUAA_1:;                                                                   
                                             2817+*/* START OF SPECIFICATIONS *******************************************            
                                             2818+*                                                                                  
                                             2819+*01* PROPRIETARY STATEMENT =                                                       
                                             2820+*                                                                                  
                                             2821+*    Licensed Materials - Property of IBM                                          
                                             2822+*    5694-A01 COPYRIGHT IBM CORP.  2004, 2009                                      
                                             2823+*                                                                                  
                                             2824+*01* STATUS = HBB7760                                                              
                                             2825+*                                                                                  
                                             2826+*01* END OF PROPRIETARY STATEMENT                                                  
                                             2827+*                                                                                  
                                             2828+*01* EXTERNAL CLASSIFICATION: PI                                                   
                                             2829+*01* END OF EXTERNAL CLASSIFICATION:                                               
                                             2830+*                                                                                  
                                             2831+*01* DESCRIPTIVE NAME:  ISGQUERY Answer Area                                       
                                             2832+*02*  ACRONYM:  ISGYQUAA                                                           
                                             2833+*                                                                                  
                                             2834+*01* MACRO NAME:  ISGYQUAA                                                         
                                             2835+*                                                                                  
                                             2836+*01* DSECT NAME:                                                                   
                                             2837+*     ISGYQUAAHdr                                                                  
                                             2838+*     ISGYQUAARs                                                                   
                                             2839+*     ISGYQUAARsx                                                @L3A              
                                             2840+*     ISGYQUAARq                                                                   
                                             2841+*     ISGYQUAARqx                                                                  
                                             2842+*     ISGYQUAASys                                                @L2A              
                                             2843+*     ISGYQUAASp                                                 @L2A              
                                             2844+*                                                                                  
                                             2845+*01* COMPONENT:  Global Resource Serialization (SCSDS)                             
                                             2846+*                                                                                  
                                             2847+*01* EYE-CATCHER:  ISGYQUAA                                                        
                                             2848+*02*  OFFSET:  X'0000' bytes                                                       
                                             2849+*02*  LENGTH:  X'0008' bytes                                                       
                                             2850+*                                                                                  
                                             2851+*01* STORAGE ATTRIBUTES:                                                           
                                             2852+*02*  SUBPOOL:  User-supplied                                                      
                                             2853+*02*  KEY:  User-supplied                                                          
                                             2854+*02*  RESIDENCY:  User-supplied                                                    
                                             2855+*                                                                                  
                                             2856+*01* SIZE:  Variable                                                               
                                             2857+*            ISGYQUAAHDRBASE  -- X'0028' bytes                                     
                                             2858+*            ISGYQUAARSBASE   -- X'0050' bytes                                     
                                             2859+*            ISGYQUAARSXBASE  -- X'0030' bytes                                     
                                             2860+*            ISGYQUAARQBASE   -- X'0040' bytes                                     
                                             2861+*            ISGYQUAARQXBASE  -- X'0068' bytes                                     
                                             2862+*            ISGYQUAASYSBASE  -- X'0028' bytes                                     
                                             2863+*            ISGYQUAASPBASE   -- X'0010' bytes                                     
                                             2864+*            ISGYQUAARSXFULL2 -- X'0030' bytes                                     
                                             2865+*            ISGYQUAARQXFULL2 -- X'0088' bytes                                     
                                             2866+*            ISGYQUAARQXFULL  -- X'0068' bytes                                     
                                             2867+*            ISGYQUAAHDR -- X'0028' bytes                                          
                                             2868+*            ISGYQUAARS  -- X'0050' bytes                                          
                                             2869+*            ISGYQUAARSX -- X'0030' bytes                                          
                                             2870+*            ISGYQUAARQ  -- X'0040' bytes                                          
1         ISGYQUAA  - ISGQUERY Answer Area                                                                      Page   62            
   Active Usings: PARMS,R9  CONSTANTS,R11  CEECAA,R12  CEEDSA,R13                                                                    
0D-Loc    Object Code      Addr1    Addr2    Stmt  Source Statement                          HLASM R6.0  2012/03/05 10.22            
0                                            2871+*            ISGYQUAARQX -- X'0088' bytes                                          
                                             2872+*            ISGYQUAASYS -- X'0028' bytes                                          
                                             2873+*            ISGYQUAASP  -- X'0010' bytes                                          
                                             2874+*                                                                                  
                                             2875+*01* CREATED BY:                                                                   
                                             2876+*     Created by user and passed as parameter on ANSAREA keyword                   
                                             2877+*     for ISGQUERY macro.                                                          
                                             2878+*                                                                                  
                                             2879+*01* POINTED TO BY:                                                                
                                             2880+*     ANSAREA_ADDR3164 field in ISGQUERY parameter list                            
                                             2881+*                                                                                  
                                             2882+*01* SERIALIZATION:                                                                
                                             2883+*     None required                                                                
                                             2884+*                                                                                  
                                             2885+*01* FUNCTION:                                                                     
                                             2886+*02* Maps the data returned by the ISGQUERY macro.                                 
                                             2887+*    This data represents an unserialized view of system resources.                
                                             2888+*    The ISGQUERY returns the ISGYQUAAHdr plus the records for                     
                                             2889+*    each resource and requesters that match the query request.                    
                                             2890+*                                                                                  
                                             2891+*    The answer area written for REQINFO=QSCAN queries is in the                   
                                             2892+*    following format. ISGYQUAARqx records are only included if                    
                                             2893+*    ANSDETAIL=FULL|FULL2|FULL3. ISGYQUAARsx records are only included             
                                             2894+*    if ANSDETAIL=FULL2|FULL3.                                   @L4C              
                                             2895+*                                                                                  
                                             2896+*    Note: Use addresses to locate each record-- the offset to the                 
                                             2897+*    next record is not guaranteed because the length and order of                 
                                             2898+*    the records may change.                                                       
                                             2899+*                                                                                  
                                             2900+*     _____________                                                                
                                             2901+*    |             |                                                               
                                             2902+*    | ISGYQUAAHdr |                                                               
                                             2903+*    |_____________|                                                               
                                             2904+*          :                                                                       
                                             2905+*          :                                                                       
                                             2906+*         _V__________                                                             
                                             2907+*        |            |    ____________     ____________                           
                                             2908+*        | ISGYQUAARs |-->|            |-->|            |--> ...                   
                                             2909+*        |____________|   | ISGYQUAARq |   | ISGYQUAARq |                          
                                             2910+*         :  :  :         |____________|   |____________|                          
                                             2911+*         :  :  V                  :                :                              
                                             2912+*         :  : RNAME        _______V_____    _______V_____                         
                                             2913+*         : _V___________  |             |  |             |                        
                                             2914+*         :|             | | ISGYQUAARqx |  | ISGYQUAARqx |                        
                                             2915+*         :| ISGYQUAARsx | |_____________|  |_____________|                        
                                             2916+*         :|_____________|     :                    :                              
                                             2917+*         :                    V                    V                              
                                             2918+*         :                  ORIG.                User                             
                                             2919+*         :                  RNAME                 Data                            
                                             2920+*         V___________                                                             
                                             2921+*        |            |    ____________     ____________                           
                                             2922+*        | ISGYQUAARs |-->|            |-->|            |--> ...                   
                                             2923+*        |____________|   | ISGYQUAARq |   | ISGYQUAARq |                          
                                             2924+*         :  :  :         |____________|   |____________|                          
                                             2925+*         :  :  V                  :                :                              
1         ISGYQUAA  - ISGQUERY Answer Area                                                                      Page   63            
   Active Usings: PARMS,R9  CONSTANTS,R11  CEECAA,R12  CEEDSA,R13                                                                    
0D-Loc    Object Code      Addr1    Addr2    Stmt  Source Statement                          HLASM R6.0  2012/03/05 10.22            
0                                            2926+*         :  : RNAME        _______V_____    _______V_____                         
                                             2927+*         : _V___________  |             |  |             |                        
                                             2928+*         :|             | | ISGYQUAARqx |  | ISGYQUAARqx |                        
                                             2929+*         :| ISGYQUAARsx | |_____________|  |_____________|                        
                                             2930+*         :|_____________|                      :      :                           
                                             2931+*         :                                     V      V                           
                                             2932+*         :                                   ORIG.  User                          
                                             2933+*         V                                   RNAME   Data                         
                                             2934+*         ...                                                    @L4C              
                                             2935+*                                                                                  
                                             2936+*    The answer area written for REQINFO=ENQSTATS queries is in  @L2A              
                                             2937+*    the following format.  Note: Use addresses to locate each   @L2A              
                                             2938+*    record-- the offset to the next record is not guaranteed    @L2A              
                                             2939+*    because the length and order of the records may change.     @L2A              
                                             2940+*    length and order of the records may change.                 @L2A              
                                             2941+*                                                                                  
                                             2942+*     _____________                                                                
                                             2943+*    |             |                                                               
                                             2944+*    | ISGYQUAAHdr |                                                               
                                             2945+*    |_____________|                                                               
                                             2946+*          :                                                                       
                                             2947+*          :                                                                       
                                             2948+*         _V___________     _____________                                          
                                             2949+*        |             |   |             |                                         
                                             2950+*        | ISGYQUAASys |-->| ISGYQUAASys |                                         
                                             2951+*        |_____________|   |_____________|                                         
                                             2952+*               :                 :                                                
                                             2953+*            ___V________      ___V________                                        
                                             2954+*           |            |    |            |                                       
                                             2955+*           | ISGYQUAASp |    | ISGYQUAASp |                                       
                                             2956+*           |____________|    |____________|                     @L2A              
                                             2957+*                                                                                  
                                             2958+*                                                                                  
                                             2959+*01* METHOD OF ACCESS:                                                             
                                             2960+*02*  ASM:                                                                         
                                             2961+*      ISGYQUAA                                                                    
                                             2962+*        DSECT=YES|NO            -- Request DSECT definition                       
                                             2963+*        LIST=YES|NONE           -- Include macro prolog                           
                                             2964+*        TITLE=YES|NO            -- Include macro title                            
                                             2965+*        ISGYQUAAHDR=YES|NO|COND -- Request Header record mapping                  
                                             2966+*        ISGYQUAARS=YES|NO|COND  -- Request Resource record mapping                
                                             2967+*        ISGYQUAARSX=YES|NO|COND -- Request Resource record                        
                                             2968+*                                   extension mapping             @L3A             
                                             2969+*        ISGYQUAARQ=YES|NO|COND  -- Request Requester record mapping               
                                             2970+*        ISGYQUAARQX=YES|NO|COND -- Request Requester record                       
                                             2971+*                                   extension mapping                              
                                             2972+*        ISGYQUAASYS=YES|NO|COND -- Request System record mapping @L2A             
                                             2973+*        ISGYQUAASP=YES|NO|COND  -- Request Space record mapping  @L2A             
                                             2974+*                                                                                  
                                             2975+*     COND indicates to include only if DSECT=YES                                  
                                             2976+*                                                                                  
                                             2977+*     Default: DSECT=YES,LIST=YES,TITLE=YES,ISGYQUAAHDR=YES,                       
                                             2978+*              ISGYQUAARS=COND,ISGYQUAARSX=COND,ISGYQUAARQ=COND                    
                                             2979+*              ISGYQUAARQX=COND                                   @L3C             
                                             2980+*                                                                                  
1         ISGYQUAA  - ISGQUERY Answer Area                                                                      Page   64            
   Active Usings: PARMS,R9  CONSTANTS,R11  CEECAA,R12  CEEDSA,R13                                                                    
0D-Loc    Object Code      Addr1    Addr2    Stmt  Source Statement                          HLASM R6.0  2012/03/05 10.22            
0                                            2981+*02*  PL/X:                                                                        
                                             2982+*      %INCLUDE SYSLIB(ISGYQUAA)                                                   
                                             2983+*                                                                                  
                                             2984+*01* DELETED BY:  User                                                             
                                             2985+*                                                                                  
                                             2986+*01* FREQUENCY:  Created for response to ISGQUERY REQINFO=QSCAN                    
                                             2987+*                or REQINFO=ENQSTATS                             @L2A              
                                             2988+*                                                                                  
                                             2989+*01* DEPENDENCIES:  None                                                           
                                             2990+*                                                                                  
                                             2991+*01* DISTRIBUTION LIBRARY:  AMACLIB                                                
                                             2992+*                                                                                  
                                             2993+*01* CHANGE ACTIVITY:                                                              
                                             2994+*                                                                                  
                                             2995+*    $L0=64GRS   ,HBB7709,030417,PDFX: ISGQUERY interface                          
                                             2996+*    $P1=PJK0935 ,HBB7709,030918,PDCJ: Fix up comments for reserve                 
                                             2997+*                                      bits                                        
                                             2998+*    $L1=64GRS   ,HBB7709,030417,PDFY: ISGQUERY compatability                      
                                             2999+*    $P2=PJK1044 ,HBB7709,031007,PDCJ: Change comment for                          
                                             3000+*                                      ISGYQUAARQSYNCHRES                          
                                             3001+*    $P3=PJK0745 ,HBB7709,031106,PDFX: General doc changes                         
                                             3002+*    $P4=PJK1006 ,HBB7709,031118,PDFY: Remove TaskAbending                         
                                             3003+*    $P5=PJK1491 ,HBB7709,040218,PDFY: Update Comments about reserve               
                                             3004+*    $P6=ME00672 ,HBB7720,040615,PDFY: Add RQX_AltSerExtended                      
                                             3005+*    $L2=ENQAPI  ,HBB7730,050127,PDBC: REQINFO=ENQSTATS support                    
                                             3006+*       =ME03930 ,HBB7730,050808,PDCJ: Fix copyright                               
                                             3007+*    $P7=ME04352 ,HBB7730,050923,PDFY: Fix ISGYQUAARsFirstRq31                     
                                             3008+*    $L3=GRSTOR2 ,HBB7740,060224,PDBC: ANSDETAIL=FULL2 support                     
                                             3009+*       =ME07802 ,HBB7740,060807,PDBC: Updated pragma statements                   
                                             3010+*    $P8=ME07792 ,HBB7740,060915,PDBC: misc comments & constants                   
                                             3011+*    $L4=GRSUDATA,HBB7750,070104,PDFY: ANSDETAIL=FULL3 support                     
                                             3012+*    $P9=ME10828 ,HBB7750,070801,PDFY: Stronger indication of the                  
                                             3013+*                                      availability of Userdata.                   
                                             3014+*    $L5=GRSISVCP,HBB7760,071025,PDFX: Support RscTokens for globals               
                                             3015+*                                                                                  
                                             3016+* END OF SPECIFICATIONS *********************************************/             
                                             3017+*% /*                                                                              
                                             3018+*                                                                                  
                                             3019+*    The following PRAGMA statements provide control info to the CBGEN             
                                             3020+* tool. They must be in the logic/endlogic pair.  Various fields are               
                                             3021+* DELETEd from ASM because we do not want duplicate ASM declares for               
                                             3022+* them.                                                                            
                                             3023+*                                                                                  
                         00000001            3024+ISGYQUAA_KSTEP EQU 1                                                    01-ISGYQUAA
                         00000002            3025+ISGYQUAA_KSYSTEM EQU 2                                                  01-ISGYQUAA
                         00000003            3026+ISGYQUAA_KSYSTEMS EQU 3                                                 01-ISGYQUAA
                         00000003            3027+ISGYQUAA_KSYSPLEX EQU 3                                                 01-ISGYQUAA
                         000001B8            3028+ISGYQUAA_KQSCANMINSUMMARYANSLEN EQU 440 The minimum answer area size   X01-ISGYQUAA
                                                 +                         required when REQUEST=QSCAN,                  X           
                                                 +                         ANSDETAIL=SUMMARY                                         
                         00000320            3029+ISGYQUAA_KQSCANMINFULLANSLEN EQU 800 The minimum answer area size      X01-ISGYQUAA
                                                 +                         required when REQUEST=QSCAN, ANSDETAIL=FULL               
                         00000370            3030+ISGYQUAA_KQSCANMINFULL2ANSLEN EQU 880 The minimum answer area size     X01-ISGYQUAA
                                                 +                         required when REQUEST=QSCAN, ANSDETAIL=FULL2              
1         ISGYQUAA  - ISGQUERY Answer Area                                                                      Page   65            
   Active Usings: PARMS,R9  CONSTANTS,R11  CEECAA,R12  CEEDSA,R13                                                                    
0D-Loc    Object Code      Addr1    Addr2    Stmt  Source Statement                          HLASM R6.0  2012/03/05 10.22            
0                        00000390            3031+ISGYQUAA_KQSCANMINFULL3ANSLEN EQU 912 2 Rnames The minimum answer area X01-ISGYQUAA
                                                 +                         size required when REQUEST=QSCAN,             X           
                                                 +                         ANSDETAIL=FULL3                                           
                                             3032+*                                                                                  
                                             3033+*    ****************************************************************              
                                             3034+*   *                                                                              
                                             3035+*   * ISGYQUAA Header Section                                                      
                                             3036+*   *                                                                              
                                             3037+*   ****************************************************************               
                                             3038+*                                                                                  
                                             3039+*                                                                                  
 00000000                00000000 00000028   3040+ISGYQUAAHDR DSECT        Resource Data Record                           01-ISGYQUAA
 00000000                                    3041+ISGYQUAAHDRMAX DS 0CL40  The max length map                             01-ISGYQUAA
 00000000                                    3042+ISGYQUAAHDRID DS CL8                                                    01-ISGYQUAA
 00000008                                    3043+ISGYQUAAHDRVERSION DS H                                                 01-ISGYQUAA
 0000000A                                    3044+ISGYQUAAHDRREQINFO DS H                                                 01-ISGYQUAA
 0000000C                                    3045+ISGYQUAAHDRNUMRECORDS DS F                                              01-ISGYQUAA
 00000010                                    3046+ISGYQUAAHDRFIRSTRECORD DS 0AD                                           01-ISGYQUAA
 00000010                                    3047+         DS    CL4                                                      01-ISGYQUAA
 00000014                                    3048+ISGYQUAAHDRFIRSTRECORD31 DS A                                           01-ISGYQUAA
 00000018                                    3049+ISGYQUAAHDRTOTALLEN DS 0FL8                                             01-ISGYQUAA
 00000018                                    3050+         DS    CL4                                                      01-ISGYQUAA
 0000001C                                    3051+ISGYQUAAHDRTOTALLEN31 DS F                                              01-ISGYQUAA
 00000020                                    3052+         DS    CL8                                                      01-ISGYQUAA
                                             3053+*                                                                                  
                                             3054+*     ISGYQUAAHDR Constants                                                        
                                             3055+*                                                                                  
                                             3056+*                                                                                  
                         C9E2C7E8            3057+ISGYQUAAHDR_KID_0TO3 EQU C'ISGY' This is the first 4-byte segment of   X01-ISGYQUAA
                                                 +                         an 8-byte constant.                                       
                         D8E4C1C1            3058+ISGYQUAAHDR_KID_4TO7 EQU C'QUAA' This is the second 4-byte segment of  X01-ISGYQUAA
                                                 +                         an 8-byte constant.                                       
                         00000001            3059+ISGYQUAAHDR_KMAXVERSION EQU 1                                           01-ISGYQUAA
                         00000001            3060+ISGYQUAAHDR_KHBB7709 EQU 1                                              01-ISGYQUAA
                         00000001            3061+ISGYQUAAHDR_KVERSION1 EQU 1                                             01-ISGYQUAA
                         00000001            3062+ISGYQUAAHDR_KREQINFO_QSCAN EQU 1                                        01-ISGYQUAA
                         00000002            3063+ISGYQUAAHDR_KREQINFO_ENQSTATS EQU 2                                     01-ISGYQUAA
                         00000028            3064+ISGYQUAAHDR_LEN EQU *-ISGYQUAAHDR                                       01-ISGYQUAA
                                             3065+*                                                                                  
                                             3066+*    ****************************************************************              
                                             3067+*   *                                                                              
                                             3068+*   * ISGYQUAA Resource Data Record                                                
                                             3069+*   *                                                                              
                                             3070+*   ****************************************************************               
                                             3071+*                                                                                  
                                             3072+*                                                                                  
 00000000                00000000 00000050   3073+ISGYQUAARS DSECT         Resource Data Record                           01-ISGYQUAA
 00000000                                    3074+ISGYQUAARSMAX DS 0CL80   The max length map                             01-ISGYQUAA
 00000000                                    3075+ISGYQUAARSVERSION DS H                                                  01-ISGYQUAA
 00000002                                    3076+ISGYQUAARSFLAGS1 DS 0B                                                  01-ISGYQUAA
                         00000080            3077+ISGYQUAARSRQSOMITTED EQU X'80'                                          01-ISGYQUAA
                         00000040            3078+ISGYQUAARSRSXVALID EQU X'40'                                            01-ISGYQUAA
 00000002                00000002 00000003   3079+         ORG   ISGYQUAARSFLAGS1+1                                       01-ISGYQUAA
 00000003                                    3080+         DS    CL5                                                      01-ISGYQUAA
 00000008                                    3081+ISGYQUAARSNEXT DS 0AD                                                   01-ISGYQUAA
1         ISGYQUAA  - ISGQUERY Answer Area                                                                      Page   66            
   Active Usings: PARMS,R9  CONSTANTS,R11  CEECAA,R12  CEEDSA,R13                                                                    
0D-Loc    Object Code      Addr1    Addr2    Stmt  Source Statement                          HLASM R6.0  2012/03/05 10.22            
000000008                                    3082+         DS    CL4                                                      01-ISGYQUAA
 0000000C                                    3083+ISGYQUAARSNEXT31 DS A                                                   01-ISGYQUAA
 00000010                                    3084+ISGYQUAARSFIRSTRQ DS 0AD                                                01-ISGYQUAA
 00000010                                    3085+         DS    CL4                                                      01-ISGYQUAA
 00000014                                    3086+ISGYQUAARSFIRSTRQ31 DS A                                                01-ISGYQUAA
 00000018                                    3087+ISGYQUAARSRNAME DS 0AD                                                  01-ISGYQUAA
 00000018                                    3088+         DS    CL4                                                      01-ISGYQUAA
 0000001C                                    3089+ISGYQUAARSRNAME31 DS A                                                  01-ISGYQUAA
 00000020                                    3090+ISGYQUAARSQNAME DS CL8                                                  01-ISGYQUAA
 00000028                                    3091+ISGYQUAARSNUMRQ DS F                                                    01-ISGYQUAA
 0000002C                                    3092+ISGYQUAARSTOTALRQ DS F                                                  01-ISGYQUAA
 00000030                                    3093+ISGYQUAARSNUMOWNERS DS F                                                01-ISGYQUAA
 00000034                                    3094+ISGYQUAARSNUMEWAITERS DS F                                              01-ISGYQUAA
 00000038                                    3095+ISGYQUAARSNUMSWAITERS DS F                                              01-ISGYQUAA
 0000003C                                    3096+ISGYQUAARSNUMEUSERS DS F                                                01-ISGYQUAA
 00000040                                    3097+ISGYQUAARSNUMSUSERS DS F                                                01-ISGYQUAA
 00000044                                    3098+ISGYQUAARSRNAMELEN DS H                                                 01-ISGYQUAA
 00000046                                    3099+ISGYQUAARSSCOPE DS X                                                    01-ISGYQUAA
 00000047                                    3100+         DS    CL1                                                      01-ISGYQUAA
 00000048                                    3101+ISGYQUAARSRSX DS 0AD                                                    01-ISGYQUAA
 00000048                                    3102+         DS    CL4                                                      01-ISGYQUAA
 0000004C                                    3103+ISGYQUAARSRSX31 DS A                                                    01-ISGYQUAA
                                             3104+*                                                                                  
                                             3105+*     ISGYQUAARS Constants                                                         
                                             3106+*                                                                                  
                                             3107+*                                                                                  
                         00000002            3108+ISGYQUAARS_KMAXVERSION EQU 2                                            01-ISGYQUAA
                         00000001            3109+ISGYQUAARS_KHBB7709 EQU 1                                               01-ISGYQUAA
                         00000002            3110+ISGYQUAARS_KHBB7740 EQU 2                                               01-ISGYQUAA
                         00000001            3111+ISGYQUAARS_KVERSION1 EQU 1                                              01-ISGYQUAA
                         00000002            3112+ISGYQUAARS_KVERSION2 EQU 2                                              01-ISGYQUAA
                         00000050            3113+ISGYQUAARS_LEN EQU *-ISGYQUAARS                                         01-ISGYQUAA
                                             3114+*                                                                                  
                                             3115+*    *****************************************************************             
                                             3116+*   *                                                                              
                                             3117+*   * ISGYQUAA Resource Data Record Extension                                      
                                             3118+*   *   (Only returned when ANSDETAIL=FULL2 or higher)                             
                                             3119+*   *                                                                              
                                             3120+*   ************************************************************                   
                                             3121+*                                                                                  
                                             3122+*                                                                                  
 00000000                00000000 00000030   3123+ISGYQUAARSX DSECT        Resource Data Record Ext.                      01-ISGYQUAA
 00000000                                    3124+ISGYQUAARSXMAX DS 0CL48  The max length map                             01-ISGYQUAA
 00000000                                    3125+ISGYQUAARSXVERSION DS H                                                 01-ISGYQUAA
 00000002                                    3126+ISGYQUAARSXFLAGS1 DS 0B                                                 01-ISGYQUAA
                         00000080            3127+ISGYQUAARSXRSCTOKENVALID EQU X'80'                                      01-ISGYQUAA
 00000002                00000002 00000003   3128+         ORG   ISGYQUAARSXFLAGS1+1                                      01-ISGYQUAA
 00000003                                    3129+         DS    CL1                                                      01-ISGYQUAA
 00000004                                    3130+ISGYQUAARSXRSCTOKEN DS CL32                                             01-ISGYQUAA
 00000024                                    3131+         DS    CL12                                                     01-ISGYQUAA
                                             3132+*                                                                                  
                                             3133+*     ISGYQUAARsx Constants                                                        
                                             3134+*                                                                                  
                                             3135+*                                                                                  
                         00000001            3136+ISGYQUAARSX_KMAXVERSION EQU 1                                           01-ISGYQUAA
1         ISGYQUAA  - ISGQUERY Answer Area                                                                      Page   67            
   Active Usings: PARMS,R9  CONSTANTS,R11  CEECAA,R12  CEEDSA,R13                                                                    
0D-Loc    Object Code      Addr1    Addr2    Stmt  Source Statement                          HLASM R6.0  2012/03/05 10.22            
0                        00000001            3137+ISGYQUAARSX_KHBB7740 EQU 1                                              01-ISGYQUAA
                         00000001            3138+ISGYQUAARSX_KVERSION1 EQU 1                                             01-ISGYQUAA
                         00000030            3139+ISGYQUAARSX_LEN EQU *-ISGYQUAARSX                                       01-ISGYQUAA
                                             3140+*                                                                                  
                                             3141+*    ****************************************************************              
                                             3142+*   *                                                                              
                                             3143+*   * ISGYQUAA Requester Data Record                                               
                                             3144+*   *                                                                              
                                             3145+*   ****************************************************************               
                                             3146+*                                                                                  
                                             3147+*                                                                                  
 00000000                00000000 00000040   3148+ISGYQUAARQ DSECT         Requester Data Record                          01-ISGYQUAA
 00000000                                    3149+ISGYQUAARQMAX DS 0CL64   The max length map                             01-ISGYQUAA
 00000000                                    3150+ISGYQUAARQVERSION DS H                                                  01-ISGYQUAA
 00000002                                    3151+ISGYQUAARQFLAGS1 DS 0B                                                  01-ISGYQUAA
                         00000080            3152+ISGYQUAARQCONTROL EQU X'80'                                             01-ISGYQUAA
                         00000040            3153+ISGYQUAARQRESERVE EQU X'40'                                             01-ISGYQUAA
                         00000020            3154+ISGYQUAARQRESERVECONVERTED EQU X'20'                                    01-ISGYQUAA
                         00000010            3155+ISGYQUAARQSYNCHRES EQU X'10'                                            01-ISGYQUAA
                         00000008            3156+ISGYQUAARQOWNER EQU X'08'                                               01-ISGYQUAA
                         00000004            3157+ISGYQUAARQMATU EQU X'04'                                                01-ISGYQUAA
                         00000002            3158+ISGYQUAARQPOSTED EQU X'02'                                              01-ISGYQUAA
                         00000001            3159+ISGYQUAARQMISC64VALID EQU X'01'                                         01-ISGYQUAA
 00000002                00000002 00000003   3160+         ORG   ISGYQUAARQFLAGS1+1                                       01-ISGYQUAA
 00000003                                    3161+ISGYQUAARQFLAGS2 DS 0B                                                  01-ISGYQUAA
                         00000080            3162+ISGYQUAARQRQXVALID EQU X'80'                                            01-ISGYQUAA
 00000003                00000003 00000004   3163+         ORG   ISGYQUAARQFLAGS2+1                                       01-ISGYQUAA
 00000004                                    3164+ISGYQUAARQTCB DS A                                                      01-ISGYQUAA
 00000008                                    3165+ISGYQUAARQNEXT DS 0AD                                                   01-ISGYQUAA
 00000008                                    3166+         DS    CL4                                                      01-ISGYQUAA
 0000000C                                    3167+ISGYQUAARQNEXT31 DS A                                                   01-ISGYQUAA
 00000010                                    3168+ISGYQUAARQRQX DS 0AD                                                    01-ISGYQUAA
 00000010                                    3169+         DS    CL4                                                      01-ISGYQUAA
 00000014                                    3170+ISGYQUAARQRQX31 DS A                                                    01-ISGYQUAA
 00000018                                    3171+ISGYQUAARQENQTOKEN DS CL32                                              01-ISGYQUAA
 00000038                                    3172+         DS    CL8                                                      01-ISGYQUAA
                                             3173+*                                                                                  
                                             3174+*     ISGYQUAARQ Constants                                                         
                                             3175+*                                                                                  
                                             3176+*                                                                                  
                         00000001            3177+ISGYQUAARQ_KMAXVERSION EQU 1                                            01-ISGYQUAA
                         00000001            3178+ISGYQUAARQ_KHBB7709 EQU 1                                               01-ISGYQUAA
                         00000001            3179+ISGYQUAARQ_KVERSION1 EQU 1                                              01-ISGYQUAA
                         00000040            3180+ISGYQUAARQ_LEN EQU *-ISGYQUAARQ                                         01-ISGYQUAA
                                             3181+*                                                                                  
                                             3182+*    *****************************************************************             
                                             3183+*   *                                                                              
                                             3184+*   * ISGYQUAA Requester Data Record Extension                                     
                                             3185+*   *   (Only returned when ANSDETAIL=FULL or higher)                              
                                             3186+*   *                                                                              
                                             3187+*   ************************************************************                   
                                             3188+*                                                                                  
                                             3189+*                                                                                  
 00000000                00000000 00000088   3190+ISGYQUAARQX DSECT        Requester Data Record Extension                01-ISGYQUAA
 00000000                                    3191+ISGYQUAARQXMAX DS 0CL136 The max len map                                01-ISGYQUAA
1         ISGYQUAA  - ISGQUERY Answer Area                                                                      Page   68            
   Active Usings: PARMS,R9  CONSTANTS,R11  CEECAA,R12  CEEDSA,R13                                                                    
0D-Loc    Object Code      Addr1    Addr2    Stmt  Source Statement                          HLASM R6.0  2012/03/05 10.22            
000000000                                    3192+ISGYQUAARQXFULL2FULL DS 0CL104                                          01-ISGYQUAA
 00000000                                    3193+ISGYQUAARQXVERSION DS H                                                 01-ISGYQUAA
 00000002                                    3194+ISGYQUAARQXFLAGS1 DS 0B                                                 01-ISGYQUAA
                         00000080            3195+ISGYQUAARQXNQXITCHANGED EQU X'80'                                       01-ISGYQUAA
                         00000040            3196+ISGYQUAARQXBATCHCHANGED EQU X'40'                                       01-ISGYQUAA
                         00000020            3197+ISGYQUAARQXRNLCHANGED EQU X'20'                                         01-ISGYQUAA
                         00000010            3198+ISGYQUAARQXORIGQNAMEVALID EQU X'10'                                     01-ISGYQUAA
                         00000008            3199+ISGYQUAARQXORIGRNAMEVALID EQU X'08'                                     01-ISGYQUAA
                         00000004            3200+ISGYQUAARQXORIGUCB@VALID EQU X'04'                                      01-ISGYQUAA
                         00000002            3201+ISGYQUAARQXORIGSCOPEVALID EQU X'02'                                     01-ISGYQUAA
                         00000001            3202+ISGYQUAARQXSERVICEASIDVALID EQU X'01'                                   01-ISGYQUAA
 00000002                00000002 00000003   3203+         ORG   ISGYQUAARQXFLAGS1+1                                      01-ISGYQUAA
 00000003                                    3204+ISGYQUAARQXFLAGS2 DS 0B                                                 01-ISGYQUAA
                         00000080            3205+ISGYQUAARQXMUSTCOMPLETE EQU X'80'                                       01-ISGYQUAA
                         00000040            3206+ISGYQUAARQXAUTHORIZED EQU X'40'                                         01-ISGYQUAA
                         00000020            3207+ISGYQUAARQXALTSEREXTENDED EQU X'20'                                     01-ISGYQUAA
                         00000010            3208+ISGYQUAARQXMATCHINGTASK EQU X'10'                                       01-ISGYQUAA
                         00000008            3209+ISGYQUAARQXECBREQUEST EQU X'08'                                         01-ISGYQUAA
                         00000004            3210+ISGYQUAARQXUSERDATAVALID EQU X'04'                                      01-ISGYQUAA
                         00000002            3211+ISGYQUAARQXUSERDATAOMITTED EQU X'02'                                    01-ISGYQUAA
 00000003                00000003 00000004   3212+         ORG   ISGYQUAARQXFLAGS2+1                                      01-ISGYQUAA
 00000004                                    3213+         DS    CL2                                                      01-ISGYQUAA
 00000006                                    3214+ISGYQUAARQXREQUESTERDATA DS 0CL42                                       01-ISGYQUAA
 00000006                                    3215+ISGYQUAARQXASID DS H                                                    01-ISGYQUAA
 00000008                                    3216+ISGYQUAARQXSTOKEN DS CL8                                                01-ISGYQUAA
 00000010                                    3217+ISGYQUAARQXTTOKEN DS CL16                                               01-ISGYQUAA
 00000020                                    3218+ISGYQUAARQXJOBNAME DS CL8                                               01-ISGYQUAA
 00000028                                    3219+ISGYQUAARQXSYSNAME DS CL8                                               01-ISGYQUAA
 00000030                                    3220+ISGYQUAARQXMTCB DS A                                                    01-ISGYQUAA
 00000034                                    3221+ISGYQUAARQXMASID DS H                                                   01-ISGYQUAA
 00000036                                    3222+ISGYQUAARQXSERVICEASID DS H                                             01-ISGYQUAA
 00000038                                    3223+ISGYQUAARQXECB DS 0A                                                    01-ISGYQUAA
 00000038                                    3224+ISGYQUAARQXSVRB DS A                                                    01-ISGYQUAA
 0000003C                                    3225+ISGYQUAARQXUCB DS A                                                     01-ISGYQUAA
 00000040                                    3226+ISGYQUAARQXDEVICENUM DS CL4                                             01-ISGYQUAA
 00000044                                    3227+         DS    CL4                                                      01-ISGYQUAA
 00000048                                    3228+ISGYQUAARQXORIGQNAME DS CL8                                             01-ISGYQUAA
 00000050                                    3229+ISGYQUAARQXORIGRNAME DS 0AD                                             01-ISGYQUAA
 00000050                                    3230+         DS    CL4                                                      01-ISGYQUAA
 00000054                                    3231+ISGYQUAARQXORIGRNAME31 DS A                                             01-ISGYQUAA
 00000058                                    3232+ISGYQUAARQXORIGUCB@ DS A                                                01-ISGYQUAA
 0000005C                                    3233+ISGYQUAARQXORIGRNAMELEN DS X                                            01-ISGYQUAA
 0000005D                                    3234+ISGYQUAARQXORIGSCOPE DS X                                               01-ISGYQUAA
 0000005E                                    3235+ISGYQUAARQXUSERDATALEN DS H                                             01-ISGYQUAA
 00000060                                    3236+ISGYQUAARQXUSERDATA DS 0AD                                              01-ISGYQUAA
 00000060                                    3237+         DS    CL4                                                      01-ISGYQUAA
 00000064                                    3238+ISGYQUAARQXUSERDATA31 DS A                                              01-ISGYQUAA
 00000068                                    3239+ISGYQUAARQXENQTIME DS CL16                                              01-ISGYQUAA
 00000078                                    3240+         DS    CL16                                                     01-ISGYQUAA
                                             3241+*                                                                                  
                                             3242+*     ISGYQUAARQX Constants                                                        
                                             3243+*                                                                                  
                                             3244+*                                                                                  
                         00000002            3245+ISGYQUAARQX_KMAXVERSION EQU 2                                           01-ISGYQUAA
                         00000001            3246+ISGYQUAARQX_KHBB7709 EQU 1                                              01-ISGYQUAA
1         ISGYQUAA  - ISGQUERY Answer Area                                                                      Page   69            
   Active Usings: PARMS,R9  CONSTANTS,R11  CEECAA,R12  CEEDSA,R13                                                                    
0D-Loc    Object Code      Addr1    Addr2    Stmt  Source Statement                          HLASM R6.0  2012/03/05 10.22            
0                        00000002            3247+ISGYQUAARQX_KHBB7740 EQU 2                                              01-ISGYQUAA
                         00000001            3248+ISGYQUAARQX_KVERSION1 EQU 1                                             01-ISGYQUAA
                         00000002            3249+ISGYQUAARQX_KVERSION2 EQU 2                                             01-ISGYQUAA
                         00000088            3250+ISGYQUAARQX_LEN EQU *-ISGYQUAARQX                                       01-ISGYQUAA
                                             3251+*                                                                                  
                                             3252+*    ****************************************************************              
                                             3253+*   *                                                                              
                                             3254+*   * ISGYQUAA System Data                                                         
                                             3255+*   *   (Only relevant for REQINFO=ENQSTATS)                                       
                                             3256+*   *                                                                              
                                             3257+*   ***********************************************************                    
                                             3258+*                                                                                  
                                             3259+*                                                                                  
 00000000                00000000 00000028   3260+ISGYQUAASYS DSECT        REQINFO=ENQSTATS system data                   01-ISGYQUAA
 00000000                                    3261+ISGYQUAASYSMAX DS 0CL40  The max length map                             01-ISGYQUAA
 00000000                                    3262+ISGYQUAASYSVERSION DS H                                                 01-ISGYQUAA
 00000002                                    3263+ISGYQUAASYSFLAGS1 DS 0B                                                 01-ISGYQUAA
                         00000080            3264+ISGYQUAASYSAUTHORIZED EQU X'80'                                         01-ISGYQUAA
 00000002                00000002 00000003   3265+         ORG   ISGYQUAASYSFLAGS1+1                                      01-ISGYQUAA
 00000003                                    3266+         DS    CL5                                                      01-ISGYQUAA
 00000008                                    3267+ISGYQUAASYSNEXT DS 0AD                                                  01-ISGYQUAA
 00000008                                    3268+         DS    CL4                                                      01-ISGYQUAA
 0000000C                                    3269+ISGYQUAASYSNEXT31 DS A                                                  01-ISGYQUAA
 00000010                                    3270+ISGYQUAASYSSP DS 0AD                                                    01-ISGYQUAA
 00000010                                    3271+         DS    CL4                                                      01-ISGYQUAA
 00000014                                    3272+ISGYQUAASYSSP31 DS A                                                    01-ISGYQUAA
 00000018                                    3273+ISGYQUAASYSPEAKENQDATA DS 0CL8                                          01-ISGYQUAA
 00000018                                    3274+ISGYQUAASYSPEAKENQCOUNT DS F                                            01-ISGYQUAA
 0000001C                                    3275+ISGYQUAASYSPEAKENQASID DS H                                             01-ISGYQUAA
 0000001E                                    3276+         DS    CL2                                                      01-ISGYQUAA
 00000020                                    3277+ISGYQUAASYSENQMAX DS F                                                  01-ISGYQUAA
 00000024                                    3278+         DS    CL4                                                      01-ISGYQUAA
                                             3279+*                                                                                  
                                             3280+*     ISGYQUAASys Constants                                                        
                                             3281+*                                                                                  
                                             3282+*                                                                                  
                         00000001            3283+ISGYQUAASYS_KMAXVERSION EQU 1                                           01-ISGYQUAA
                         00000001            3284+ISGYQUAASYS_KHBB7730 EQU 1                                              01-ISGYQUAA
                         00000001            3285+ISGYQUAASYS_KVERSION1 EQU 1                                             01-ISGYQUAA
                         00000028            3286+ISGYQUAASYS_LEN EQU *-ISGYQUAASYS                                       01-ISGYQUAA
                                             3287+*                                                                                  
                                             3288+*    ****************************************************************              
                                             3289+*   *                                                                              
                                             3290+*   * ISGYQUAA Address Space Data                                                  
                                             3291+*   *   (Only relevant for REQINFO=ENQSTATS)                                       
                                             3292+*   *                                                                              
                                             3293+*   ***********************************************************                    
                                             3294+*                                                                                  
                                             3295+*                                                                                  
 00000000                00000000 00000010   3296+ISGYQUAASP DSECT         REQINFO=ENQSTATS address space specific data   01-ISGYQUAA
 00000000                                    3297+ISGYQUAASPMAX DS 0CL16   The max length map                             01-ISGYQUAA
 00000000                                    3298+ISGYQUAASPVERSION DS H                                                  01-ISGYQUAA
 00000002                                    3299+         DS    CL2                                                      01-ISGYQUAA
 00000004                                    3300+ISGYQUAASPCURRENQCOUNT DS F                                             01-ISGYQUAA
 00000008                                    3301+ISGYQUAASPPEAKENQCOUNT DS F                                             01-ISGYQUAA
1         ISGYQUAA  - ISGQUERY Answer Area                                                                      Page   70            
   Active Usings: PARMS,R9  CONSTANTS,R11  CEECAA,R12  CEEDSA,R13                                                                    
0D-Loc    Object Code      Addr1    Addr2    Stmt  Source Statement                          HLASM R6.0  2012/03/05 10.22            
00000000C                                    3302+ISGYQUAASPENQMAX DS F                                                   01-ISGYQUAA
                                             3303+*                                                                                  
                                             3304+*     ISGYQUAASp Constants                                                         
                                             3305+*                                                                                  
                                             3306+*                                                                                  
                         00000001            3307+ISGYQUAASP_KMAXVERSION EQU 1                                            01-ISGYQUAA
                         00000001            3308+ISGYQUAASP_KHBB7730 EQU 1                                               01-ISGYQUAA
                         00000001            3309+ISGYQUAASP_KVERSION1 EQU 1                                              01-ISGYQUAA
                         00000020            3310+ISGYQUAAUSERDATA_KINITIALLEN EQU 32 The initial length of              X01-ISGYQUAA
                                                 +                         ISGYQUAAUserdata                                          
                         00000010            3311+ISGYQUAASP_LEN EQU *-ISGYQUAASP                                         01-ISGYQUAA
                                             3312          ISGYCON                                                                   
1         ISGYCON  - Constants for users of GRS services                                                        Page   71            
   Active Usings: PARMS,R9  CONSTANTS,R11  CEECAA,R12  CEEDSA,R13                                                                    
0D-Loc    Object Code      Addr1    Addr2    Stmt  Source Statement                          HLASM R6.0  2012/03/05 10.22            
0                                            3314+**/ ISGYCON_1:;                                                                    
                                             3315+*/* START OF SPECIFICATIONS *******************************************            
                                             3316+*                                                                                  
                                             3317+*01* PROPRIETARY STATEMENT =                                                       
                                             3318+*                                                                                  
                                             3319+*    Licensed Materials - Property of IBM                                          
                                             3320+*    5694-A01 Copyright IBM Corp. 2001, 2009                                       
                                             3321+*                                                                                  
                                             3322+*01* STATUS = HBB7760                                                              
                                             3323+*                                                                                  
                                             3324+*01* END OF PROPRIETARY STATEMENT                                                  
                                             3325+*                                                                                  
                                             3326+*01* EXTERNAL CLASSIFICATION: PI                                                   
                                             3327+*01* END OF EXTERNAL CLASSIFICATION:                                               
                                             3328+*                                                                                  
                                             3329+*02* NOTE:  THIS IS A SET OF CONSTANTS NOT AN ACTUAL DATA AREA                     
                                             3330+*           DATA AREA INFORMATION IS NOT APPLICABLE.                               
                                             3331+*                                                                                  
                                             3332+*01* DESCRIPTIVE NAME: Constants for users of GRS services                         
                                             3333+*                                                                                  
                                             3334+*02* ACRONYM:  N/A                                                                 
                                             3335+*                                                                                  
                                             3336+*01* MACRO NAME:   ISGYCON                                                         
                                             3337+*                                                                                  
                                             3338+*01* DSECT NAME:                                                                   
                                             3339+*      N/A                                                                         
                                             3340+*                                                                                  
                                             3341+*01* COMPONENT:  Global Resource Serialization (SCSDS)                             
                                             3342+*                                                                                  
                                             3343+*01* EYE CATCHER: None                                                             
                                             3344+*02*   OFFSET:    N/A                                                              
                                             3345+*02*   LENGTH:    N/A                                                              
                                             3346+*                                                                                  
                                             3347+*01* STORAGE ATTRIBUTES:                                                           
                                             3348+*02*   MAIN STORAGE: N/A                                                           
                                             3349+*                                                                                  
                                             3350+*01* SIZE:   0 bytes                                                               
                                             3351+*                                                                                  
                                             3352+*                                                                                  
                                             3353+*01* CREATED BY: N/A                                                               
                                             3354+*                                                                                  
                                             3355+*01* POINTED TO BY: N/A                                                            
                                             3356+*                                                                                  
                                             3357+*01* SERIALIZATION:  None                                                          
                                             3358+*                                                                                  
                                             3359+*01* FUNCTION:  Provides a list of constants for users of GRS                      
                                             3360+*               services and exits.                                                
                                             3361+*                                                                                  
                                             3362+*01* METHOD OF ACCESS:                                                             
                                             3363+*                                                                                  
                                             3364+*   PL/X: %INCLUDE SYSLIB(ISGYCON)                                                 
                                             3365+*   ASM:   ISGYCON                                                                 
                                             3366+*                                                                                  
                                             3367+* DELETED-BY: N/A                                                                  
                                             3368+*                                                                                  
1         ISGYCON  - Constants for users of GRS services                                                        Page   72            
   Active Usings: PARMS,R9  CONSTANTS,R11  CEECAA,R12  CEEDSA,R13                                                                    
0D-Loc    Object Code      Addr1    Addr2    Stmt  Source Statement                          HLASM R6.0  2012/03/05 10.22            
0                                            3369+* DEPENDENCIES: N/A                                                                
                                             3370+*                                                                                  
                                             3371+* NOTES: None                                                                      
                                             3372+*                                                                                  
                                             3373+* CHANGE-ACTIVITY:                                                                 
                                             3374+*   $L0=GRSWC    HBB7705 000419 PD2V:  GRS Wildcard                                
                                             3375+*   $L1=PCENQ    HBB7705 010508 PDDV:  Exits                                       
                                             3376+*   $L2=PCENQ    HBB7705 010827 PDLG:  Exits                                       
                                             3377+*   $P1=PYM0237  HBB7706 011008 PDWL:  Add new Reason Codes for 4xx                
                                             3378+*                                      ABENDS when QWA Global and Local            
                                             3379+*                                      resource counts exceed 'FFFF'x              
                                             3380+*   $L3=PCENQ    HBB7705 011212 PD2V:  MASID reason codes                          
                                             3381+*   $P2=PYV0363  HBB7707 020213 PDDV:  use EAX for GRS ALET                        
                                             3382+*   $P2=PYV0375  HBB7707 020405 PD2V:  Add 43x Bad Pel Prefix                      
                                             3383+*   $01=OW53321  HBB7707 020429 PDFX:  ABEND for ENQ/DEQ parameter list            
                                             3384+*                                      not in primary                              
                                             3385+*   $L4=64GRS    HBB7709 021125 PDFX:  ISGQUERY return codes                       
                                             3386+*   $L5=64GRS    HBB7709 030623 PDBC:  ENQ/DEQ return code updates                 
                                             3387+*   $P3=PJK0722  HBB7709 030623 PDFX:  Add ISGQUERYRsn_GRSNone                     
                                             3388+*   $P4=PJK0888  HBB7709 030915 PDFX:  ISGENQ reason code update                   
                                             3389+*      =PJK0906  HBB7709 030915 PDFX:  ISGENQ reason code update                   
                                             3390+*   $P5=PJK0902  HBB7709 030915 PDBC:  Add old ENQ ECB return codes                
                                             3391+*   $P6=PJK1044  HBB7709 031021 PDFX:  Remove Synchres disabled RSN                
                                             3392+*   $02=OA05229  HBB7708 031024 PDFX:  Add 73x reason for CSVDYNEX                 
                                             3393+*                                      failed                                      
                                             3394+*   $P7=PJK0875  HBB7709 031021 PDFX:  Remove unneeded ISGENQ RSN codes            
                                             3395+*   $P8=PJK0745  HBB7709 031110 PDFX:  General doc changes                         
                                             3396+*   $P9=PJK1339  HBB7709 040310 PDFY:  Authorize ISGQUERY for MLS                  
                                             3397+*   $PA=ME01502  HBB7720 041105 PDFX:  Add ISGRsnCodeSmcInXmem                     
                                             3398+*   $L6=ENQAPI   HBB7730 050203 PDBC:  ISGADMIN return/reasons                     
                                             3399+*   $PB=ME03985  HBB7730 050721 PDBC:  Fix ISGADMIN rc C typo                      
                                             3400+*      =ME03930  HBB7730 050808 PDCJ:  Fix copyright                               
                                             3401+*   $L7=GRSTOR2  HBB7730 050928 PDBC:  More ISGADMIN return/reasons,               
                                             3402+*                                      Updated reasons with typos                  
                                             3403+*   $L8=GRSTOR2  HBB7740 060515 PDGA:  New reason code                             
                                             3404+*   $L9=GRSTOR2  HBB7740 060524 PDBC:  New ISGADMIN reasons                        
                                             3405+*   $LA=GRSUDATA HBB7750 070122 PDFY:  New ISGENQ/ISGQUERY Reasons                 
                                             3406+*   $PC=ME12166  HBB7760 080701 PDBC:  New ISGENQ reason                           
                                             3407+*                                                                                  
                                             3408+*END OF SPECIFICATIONS ***********************************************/            
                                             3409+*% /*                                                                              
                                             3410+*                                                                                  
                                             3411+*   Return Codes from ENQ/DEQ                                                      
                                             3412+*   ENQ RET=TEST Return Codes                                                      
                                             3413+*                                                                                  
                                             3414+*                                                                                  
                         00000000            3415+ENQ_KTESTRCRESOURCEISAVAILABLE EQU 0                                    01-ISGYCON 
                         00000004            3416+ENQ_KTESTRCRESOURCEISNOTAVAILABLE EQU 4                                 01-ISGYCON 
                         00000008            3417+ENQ_KTESTRCPREVIOUSREQALREADYOWNS EQU 8                                 01-ISGYCON 
                         00000014            3418+ENQ_KTESTRCPREVIOUSREQDOESNOTOWN EQU 20                                 01-ISGYCON 
                         00000020            3419+ENQ_KTESTRCMATCHINGTASKOWNS EQU 32                                      01-ISGYCON 
                                             3420+*                                                                                  
                                             3421+*   ENQ RET=USE Return Codes                                                       
                                             3422+*                                                                                  
                                             3423+*                                                                                  
1         ISGYCON  - Constants for users of GRS services                                                        Page   73            
   Active Usings: PARMS,R9  CONSTANTS,R11  CEECAA,R12  CEEDSA,R13                                                                    
0D-Loc    Object Code      Addr1    Addr2    Stmt  Source Statement                          HLASM R6.0  2012/03/05 10.22            
0                        00000000            3424+ENQ_KUSERCRESOURCEOWNED EQU 0                                           01-ISGYCON 
                         00000004            3425+ENQ_KUSERCRESOURCENOTOWNED EQU 4                                        01-ISGYCON 
                         00000008            3426+ENQ_KUSERCPREVIOUSREQALREADYOWNS EQU 8                                  01-ISGYCON 
                         00000014            3427+ENQ_KUSERCPREVIOUSREQDOESNOTOWN EQU 20                                  01-ISGYCON 
                         00000018            3428+ENQ_KUSERCENVIRONMENTALERROR EQU 24                                     01-ISGYCON 
                                             3429+*                                                                                  
                                             3430+*   ENQ RET=CHNG Return Codes                                                      
                                             3431+*                                                                                  
                                             3432+*                                                                                  
                         00000000            3433+ENQ_KCHNGRCRESOURCECHANGED EQU 0                                        01-ISGYCON 
                         00000004            3434+ENQ_KCHNGRCRESOURCENOTCHANGED EQU 4                                     01-ISGYCON 
                         00000008            3435+ENQ_KCHNGRCRESOURCENOTREQED EQU 8                                       01-ISGYCON 
                         00000014            3436+ENQ_KCHNGRCRESOURCENOTOWNED EQU 20                                      01-ISGYCON 
                         00000018            3437+ENQ_KCHNGRCENVIRONMENTALERROR EQU 24                                    01-ISGYCON 
                                             3438+*                                                                                  
                                             3439+*   ENQ RET=HAVE ReturnCodes                                                       
                                             3440+*                                                                                  
                                             3441+*                                                                                  
                         00000000            3442+ENQ_KHAVERCRESOURCEOWNED EQU 0                                          01-ISGYCON 
                         00000008            3443+ENQ_KHAVERCPREVIOUSREQALREADYOWNS EQU 8                                 01-ISGYCON 
                         00000014            3444+ENQ_KHAVERCPREVIOUSREQDOESNOTOWN EQU 20                                 01-ISGYCON 
                         00000018            3445+ENQ_KHAVERCENVIRONMENTALERROR EQU 24                                    01-ISGYCON 
                         00000020            3446+ENQ_KHAVERCMATCHINGTASKOWNS EQU 32                                      01-ISGYCON 
                         00000028            3447+ENQ_KHAVERCCALLERCANNOTUSE EQU 40                                       01-ISGYCON 
                         00000044            3448+ENQ_KHAVERCMATCHINGTASKVIOLATION EQU 68                                 01-ISGYCON 
                                             3449+*                                                                                  
                                             3450+*   ENQ RET=ECB ReturnCodes                                                        
                                             3451+*                                                                                  
                                             3452+*                                                                                  
                         00000000            3453+ENQ_KECBRCRESOURCEOWNED EQU 0                                           01-ISGYCON 
                         00000004            3454+ENQ_KECBRCWILLBEPOSTED EQU 4                                            01-ISGYCON 
                         00000008            3455+ENQ_KECBRCPREVIOUSREQALREADYOWNS EQU 8                                  01-ISGYCON 
                         00000014            3456+ENQ_KECBRCPREVIOUSREQDOESNOTOWN EQU 20                                  01-ISGYCON 
                         00000018            3457+ENQ_KECBRCENVIRONMENTALERROR EQU 24                                     01-ISGYCON 
                         00000024            3458+ENQ_KECBRCWAITTOOWNEXCLUSIVE EQU 36                                     01-ISGYCON 
                                             3459+*                                                                                  
                                             3460+*   DEQ ReturnCodes                                                                
                                             3461+*                                                                                  
                                             3462+*                                                                                  
                         00000000            3463+DEQ_KRCRESOURCERELEASED EQU 0                                           01-ISGYCON 
                         00000004            3464+DEQ_KRCRESOURCEPREVIOUSREQDOESNOTOWN EQU 4                              01-ISGYCON 
                         00000008            3465+DEQ_KRCRESOURCENOTOWNED EQU 8                                           01-ISGYCON 
                                             3466+*                                                                                  
                                             3467+*   Reason Codes -- GRS ABEND Reason Codes                                         
                                             3468+*   (Note that the reason codes are of the form "xxxxYYYY" where                   
                                             3469+*    "xxxx" is used to contain the module id of the failing module.                
                                             3470+*    Module ids can be found in ISGYMT or ISGFID)                                  
                                             3471+*    Also see ISGCONST for internal reason codes.                                  
                                             3472+*                                                                                  
                                             3473+*                                                                                  
                         0000FFFF            3474+ISGRSNCODEMASK EQU X'0000FFFF' Used to mask off the high half word to  X01-ISGYCON 
                                                 +                         remove the module id from the ABEND and       X           
                                                 +                         reason codes                                              
                                             3475+*                                                                                  
                                             3476+*    3xx Abend Reason codes                                                        
1         ISGYCON  - Constants for users of GRS services                                                        Page   74            
   Active Usings: PARMS,R9  CONSTANTS,R11  CEECAA,R12  CEEDSA,R13                                                                    
0D-Loc    Object Code      Addr1    Addr2    Stmt  Source Statement                          HLASM R6.0  2012/03/05 10.22            
0                                            3477+*                                                                                  
                                             3478+*                                                                                  
                         00000001            3479+ISGRSNCODEUNAUTHNQDQOFAUTHRESOURCE EQU X'00000001'                      01-ISGYCON 
                                             3480+*                                                                                  
                                             3481+*                                      An unauthorized requester                   
                                             3482+*                                      attempted to ENQ or DEQ an                  
                                             3483+*                                      authorized resource                         
                                             3484+*                                                                                  
                         00000002            3485+ISGRSNCODEUNAUTHNQDQOFAUTHRESOURCEBYEXIT EQU X'00000002' An ISGNQXIT   X01-ISGYCON 
                                                 +                         installation exit specified an authorized     X           
                                                 +                         resource name for an unauthorized request                 
                         00000003            3486+ISGRSNCODEUCBNOTALLOCATED EQU X'00000003' An unauthorized requester    X01-ISGYCON 
                                                 +                         attempted to RESERVE a device that is not     X           
                                                 +                         allocated to the requesting task                          
                         00000004            3487+ISGRSNCODEUCBNOTALLOCATEDBYEXIT EQU X'00000004'                         01-ISGYCON 
                                             3488+*                                                                                  
                                             3489+*                                      An ISGNQXIT installation exit               
                                             3490+*                                      specified a UCB for a device                
                                             3491+*                                      that is not allocated to the                
                                             3492+*                                      requesting, unauthorized task               
                                             3493+*                                                                                  
                         00000005            3494+ISGRSNCODEUNAUTHMASIDREQ EQU X'00000005' An unauthorized requester     X01-ISGYCON 
                                                 +                         attempted a MASID request                                 
                         00000006            3495+ISGRSNCODEUNAUTHREQWITHTCBORPELSTPMC EQU X'00000006' An unauthorized   X01-ISGYCON 
                                                 +                         requester specified TCB or Step Must Complete             
                         00000007            3496+ISGRSNCODEUNAUTHGENERICREQUEST EQU X'00000007' An unauthorized (DEQ)   X01-ISGYCON 
                                                 +                         requester attempted to issue a generic        X           
                                                 +                         request                                                   
                         00000008            3497+ISGRSNCODEUNAUTHECBREQUEST EQU X'00000008' An unauthorized (ENQ)       X01-ISGYCON 
                                                 +                         requester attempted to issue an ECB request               
                                             3498+*                                                                                  
                                             3499+*   4xx Abend Reason codes                                                         
                                             3500+*                                                                                  
                                             3501+*                                                                                  
                         00000001            3502+ISGRSNCODEPARMLISTALTEREDWHILEPROCESSING EQU X'00000001' The input     X01-ISGYCON 
                                                 +                         parameter list was altered during ENQ/DEQ     X           
                                                 +                         processing                                                
                         00000002            3503+ISGRSNCODERNLNOANDUCBSPECIFIED EQU X'00000002' The RESERVE request     X01-ISGYCON 
                                                 +                         specified RNL=NO                                          
                         00000003            3504+ISGRSNCODEINVALIDUCB EQU X'00000003' The storage specified by the      X01-ISGYCON 
                                                 +                         input UCB address does not map to a valid UCB             
                         00000004            3505+ISGRSNCODEINVALIDUCBBYEXIT EQU X'00000004' The storage specified by    X01-ISGYCON 
                                                 +                         the UCB address specified by an ISGNQXIT exit X           
                                                 +                         routine does not map to a valid UCB                       
                         00000005            3506+ISGRSNCODEBADUSERPEL EQU X'00000005' The storage passed to ENQ/DEQ     X01-ISGYCON 
                                                 +                         processing could not be accessed in the       X           
                                                 +                         caller's key                                              
                         00000006            3507+ISGRSNCODEBADQNAME EQU X'00000006' The storage containing the QNAME    X01-ISGYCON 
                                                 +                         could not be accessed in the caller's key                 
                         00000007            3508+ISGRSNCODEBADRNAME EQU X'00000007' The storage containing the RNAME    X01-ISGYCON 
                                                 +                         could not be accessed in the caller's key                 
                         00000008            3509+ISGRSNCODEBADUCBPTR EQU X'00000008' The storage containing the pointer X01-ISGYCON 
                                                 +                         to the UCB address could not be accessed in   X           
                                                 +                         the caller's key                                          
1         ISGYCON  - Constants for users of GRS services                                                        Page   75            
   Active Usings: PARMS,R9  CONSTANTS,R11  CEECAA,R12  CEEDSA,R13                                                                    
0D-Loc    Object Code      Addr1    Addr2    Stmt  Source Statement                          HLASM R6.0  2012/03/05 10.22            
0                        00000009            3510+ISGRSNCODEBADUCBADDRESS EQU X'00000009' The storage containing the UCB X01-ISGYCON 
                                                 +                         address could not be accessed in the caller's X           
                                                 +                         key                                                       
                         0000000A            3511+ISGRSNCODELOCALRESOURCECOUNTOVERRUN EQU X'0000000A' The local resource X01-ISGYCON 
                                                 +                         count exceeded 'FFFF'x resources                          
                         0000000B            3512+ISGRSNCODEGLOBALRESOURCECOUNTOVERRUN EQU X'0000000B' The global        X01-ISGYCON 
                                                 +                         resource count exceeded 'FFFF'x resources                 
                         0000000C            3513+ISGRSNCODEINVALIDFORMATWORD EQU X'0000000C' The format word value was  X01-ISGYCON 
                                                 +                         invalid                                                   
                         0000000D            3514+ISGRSNCODEBADTCBSTORAGE EQU X'0000000D' The storage specified by the   X01-ISGYCON 
                                                 +                         input TCB is invalid                                      
                         0000000E            3515+ISGRSNCODENOTATCB EQU X'0000000E' The storage specified by the input   X01-ISGYCON 
                                                 +                         TCB does not map to a valid TCB                           
                         0000000F            3516+ISGRSNCODEMASIDREQSPECIFIEDTCBORPELSTPMC EQU X'0000000F' A MASID       X01-ISGYCON 
                                                 +                         request incorrectly specified TCB or PelStpMC             
                         00000010            3517+ISGRSNCODEINVALIDMASIDRNAMELENGTH EQU X'00000010'                       01-ISGYCON 
                                             3518+*                                                                                  
                                             3519+*                                      A MASID request has an rname                
                                             3520+*                                      with a bad length                           
                                             3521+*                                                                                  
                         00000011            3522+ISGRSNCODEMASIDREQINVALIDRET EQU X'00000011' A MASID request specified X01-ISGYCON 
                                                 +                         invalid RET= value                                        
                         00000012            3523+ISGRSNCODEMASIDREQWITHNOTCB EQU X'00000012' A MASID request has no TCB X01-ISGYCON 
                                                 +                         associated with it                                        
                         00000013            3524+ISGRSNCODEMASIDREQSUBTASKOFTARGET EQU X'00000013'                       01-ISGYCON 
                                             3525+*                                                                                  
                                             3526+*                                      Issuing tasks TCB is a subtask              
                                             3527+*                                      of the target TCB, illegal                  
                                             3528+*                                                                                  
                                             3529+*                                                                                  
                         00000014            3530+ISGRSNCODEREQSETOBSOLETEFLAG EQU X'00000014' Request tried to set an   X01-ISGYCON 
                                                 +                         obsolete bit in the Pel                                   
                         00000015            3531+ISGRSNCODETCBSPECIFIEDANDPELSTPMC EQU X'00000015'                       01-ISGYCON 
                                             3532+*                                                                                  
                                             3533+*                                      Request illegally specified                 
                                             3534+*                                      TCB with PelStpMC                           
                                             3535+*                                                                                  
                         00000016            3536+ISGRSNCODEDEQREQSPECIFIEDPELSAVE EQU X'00000016'                        01-ISGYCON 
                                             3537+*                                                                                  
                                             3538+*                                      Deq request illegally                       
                                             3539+*                                      specified PelSave                           
                                             3540+*                                                                                  
                         00000017            3541+ISGRSNCODEINVALIDRETSPECIFIED EQU X'00000017' Request specified        X01-ISGYCON 
                                                 +                         invalid RET= value                                        
                         00000018            3542+ISGRSNCODEGENERICREQWITHINVALIDRET EQU X'00000018'                      01-ISGYCON 
                                             3543+*                                                                                  
                                             3544+*                                      Generic request specified                   
                                             3545+*                                      invalid RET= value                          
                                             3546+*                                                                                  
                         00000019            3547+ISGRSNCODEENQREQSPECIFIEDGENERIC EQU X'00000019'                        01-ISGYCON 
                                             3548+*                                                                                  
                                             3549+*                                      Enq request illegally                       
                                             3550+*                                      specified PelGen2                           
                                             3551+*                                                                                  
1         ISGYCON  - Constants for users of GRS services                                                        Page   76            
   Active Usings: PARMS,R9  CONSTANTS,R11  CEECAA,R12  CEEDSA,R13                                                                    
0D-Loc    Object Code      Addr1    Addr2    Stmt  Source Statement                          HLASM R6.0  2012/03/05 10.22            
0                        0000001A            3552+ISGRSNCODEDIRENQNOMATCHINGTCB EQU X'0000001A' A directed enq request   X01-ISGYCON 
                                                 +                         was issued with no matching TCB in the        X           
                                                 +                         requestor's address space                                 
                         0000001B            3553+ISGRSNCODEDIRENQANDUCBSPECIFIED EQU X'0000001B'                         01-ISGYCON 
                                             3554+*                                                                                  
                                             3555+*                                      Directed enq request illegally              
                                             3556+*                                      specified UCB                               
                                             3557+*                                                                                  
                         0000001C            3558+ISGRSNCODEDIRENQNOECBANDINVALIDRET EQU X'0000001C'                      01-ISGYCON 
                                             3559+*                                                                                  
                                             3560+*                                      Directed enq request illegally              
                                             3561+*                                      specified no ECB with an                    
                                             3562+*                                      invalid RET= value                          
                                             3563+*                                                                                  
                         0000001D            3564+ISGRSNCODEOECBREQWITHBADRET EQU X'0000001D' This label has a typo but  X01-ISGYCON 
                                                 +                         is kept for compatibility                                 
                         0000001D            3565+ISGRSNCODEECBREQWITHBADRET EQU X'0000001D' An ECB request but RET does X01-ISGYCON 
                                                 +                         not specify ECB                                           
                         0000001E            3566+ISGRSNCODEOECBREQWITHSTEPMUSTCOMPLETE EQU X'0000001E' This label has a X01-ISGYCON 
                                                 +                         typo but is kept for compatibility                        
                         0000001E            3567+ISGRSNCODEECBREQWITHSTEPMUSTCOMPLETE EQU X'0000001E' An ECB request    X01-ISGYCON 
                                                 +                         illegally specified PelStpMC                              
                         0000001F            3568+ISGRSNCODEBADFORMATWORD EQU X'0000001F' The storage containing the     X01-ISGYCON 
                                                 +                         format word could not be accessed in the      X           
                                                 +                         caller's key                                              
                         00000020            3569+ISGRSNCODEBADFORMATVALUE EQU X'00000020' The storage containing the    X01-ISGYCON 
                                                 +                         format value could not be accessed in the     X           
                                                 +                         caller's key                                              
                         00000021            3570+ISGRSNCODEPARMLISTALETNOTZERO EQU X'00000021' ENQ/DEQ parameter list   X01-ISGYCON 
                                                 +                         was not in the primary address space                      
                         00000022            3571+ISGRSNCODEBADPELPREFIX EQU X'00000022' The storage containing the      X01-ISGYCON 
                                                 +                         format value could not be accessed in the     X           
                                                 +                         caller's key                                              
                         00000023            3572+ISGRSNCODESMCINXMEM EQU X'00000023' SMC or RMC was specified while     X01-ISGYCON 
                                                 +                         P^=H.                                                     
                                             3573+*                                                                                  
                                             3574+*   7xx Abend Reason codes                                                         
                                             3575+*                                                                                  
                                             3576+*                                                                                  
                         00000000            3577+ISGRSNCODEGENERALFAILURE EQU X'00000000' General module failure in     X01-ISGYCON 
                                                 +                         ENQ/DEQ processing                                        
                         00000001            3578+ISGRSNCODEIOSVDSTFFAILURE EQU X'00000001' Synchronous RESERVE failed   X01-ISGYCON 
                                                 +                         during device state transition flushing                   
                         00000002            3579+ISGRSNCODERESERVESTARTFAILURE EQU X'00000002' RESERVE start processing X01-ISGYCON 
                                                 +                         failed                                                    
                         00000003            3580+ISGRSNCODERESERVEDONEFAILURE EQU X'00000003' Synchronous RESERVE done  X01-ISGYCON 
                                                 +                         processing failed                                         
                         00000004            3581+ISGRSNCODECOULDNOTOBTAINHOMESTORAGE EQU X'00000004' ENQ/DEQ processing X01-ISGYCON 
                                                 +                         could not obtain storage in the home address  X           
                                                 +                         space                                                     
                         00000005            3582+ISGRSNCODECOULDNOTOBTAINCOMMONSTORAGE EQU X'00000005' ENQ/DEQ          X01-ISGYCON 
                                                 +                         processing could not obtain storage in the    X           
                                                 +                         common area                                               
                         00000006            3583+ISGRSNCODECOULDNOTOBTAINPRIMARYALET EQU X'00000006' ENQ/DEQ processing X01-ISGYCON 
1         ISGYCON  - Constants for users of GRS services                                                        Page   77            
   Active Usings: PARMS,R9  CONSTANTS,R11  CEECAA,R12  CEEDSA,R13                                                                    
0D-Loc    Object Code      Addr1    Addr2    Stmt  Source Statement                          HLASM R6.0  2012/03/05 10.22            
0                                                +                         could not obtain the ALET of the caller's     X           
                                                 +                         primary address space                                     
                         00000007            3584+ISGRSNCODECOULDNOTSUSPENDFORRNLCHANGE EQU X'00000007' ENQ processing   X01-ISGYCON 
                                                 +                         could not obtain a DSQE to suspend a request  X           
                                                 +                         for a RNL change                                          
                         00000008            3585+ISGRSNCODECOULDNOTOBTAINGRSALET EQU X'00000008'                         01-ISGYCON 
                                             3586+*                                                                                  
                                             3587+*                                      ENQ/DEQ processing could not                
                                             3588+*                                      obtain the ALET of the GRS                  
                                             3589+*                                      address space                               
                                             3590+*                                                                                  
                         00000009            3591+ISGRSNCODECOULDNOTOBTAINPRIMARYSTORAGE EQU X'00000009' ENQ/DEQ         X01-ISGYCON 
                                                 +                         processing could not obtain storage in the    X           
                                                 +                         primary address space                                     
                         00000100            3592+ISGRSNCODECOULDNOTQUERYLSE EQU X'00000100' ENQ/DEQ processing could    X01-ISGYCON 
                                                 +                         not query the LSE of an ENQ requestor                     
                         00000200            3593+ISGRSNCODECOULDNOTUPDATELSE EQU X'00000200' ENQ/DEQ processing could   X01-ISGYCON 
                                                 +                         not update the LSE of an ENQ requestor                    
                         000000FD            3594+ISGRSNCODECSVDYNEXABEND EQU X'000000FD' Abend in CSVDYNEX               01-ISGYCON 
                         000000FE            3595+ISGRSNCODEEXITABEND EQU X'000000FE' Abend in dynamic exit               01-ISGYCON 
                         000000FF            3596+ISGRSNCODEUCBOVERFLOW EQU X'000000FF' RESERVE processing detected an   X01-ISGYCON 
                                                 +                         overflow when updating the RESERVE count                  
                                             3597+*                                                                                  
                                             3598+*   ISGQUERY Return and Reason Codes                                               
                                             3599+*   (Note that the reason codes are of the form "xxxxYYYY" where                   
                                             3600+*    "xxxx" is used to contain the module id of the failing module.                
                                             3601+*    Module ids can be found in ISGYMT or ISGFID)                                  
                                             3602+*    Use ISGRsnCodeMask to remove the module id from the reason codes              
                                             3603+*                                                                                  
                                             3604+*                                                                                  
                                             3605+*                                                                                  
                         00000000            3606+ISGQUERYRC_OK EQU X'00000000'                                           01-ISGYCON 
                         00000004            3607+ISGQUERYRC_WARN EQU X'00000004'                                         01-ISGYCON 
                         00000401            3608+ISGQUERYRSN_NOMATCHINGRNLE EQU X'00000401'                              01-ISGYCON 
                         00000402            3609+ISGQUERYRSN_RNLCHANGEINPROGRESS EQU X'00000402'                         01-ISGYCON 
                         00000403            3610+ISGQUERYRSN_GRSRNLEXCLUDE EQU X'00000403'                               01-ISGYCON 
                         00000404            3611+ISGQUERYRSN_NOMATCHINGRESOURCES EQU X'00000404'                         01-ISGYCON 
                         00000405            3612+ISGQUERYRSN_ANSWERAREAFULL EQU X'00000405'                              01-ISGYCON 
                         00000406            3613+ISGQUERYRSN_GRSNONE EQU X'00000406'                                     01-ISGYCON 
                         00000008            3614+ISGQUERYRC_PARMERROR EQU X'00000008'                                    01-ISGYCON 
                         00000801            3615+ISGQUERYRSN_BADPLISTADDRESS EQU X'00000801'                             01-ISGYCON 
                         00000802            3616+ISGQUERYRSN_BADPLISTALET EQU X'00000802'                                01-ISGYCON 
                         00000803            3617+ISGQUERYRSN_BADPLISTVERSION EQU X'00000803'                             01-ISGYCON 
                         00000804            3618+ISGQUERYRSN_RESERVEDFIELDNOTNULL EQU X'00000804'                        01-ISGYCON 
                         00000805            3619+ISGQUERYRSN_BADREQINFO EQU X'00000805'                                  01-ISGYCON 
                         00000806            3620+ISGQUERYRSN_BADRNL EQU X'00000806'                                      01-ISGYCON 
                         00000807            3621+ISGQUERYRSN_BADRNAMEADDRESS EQU X'00000807'                             01-ISGYCON 
                         00000808            3622+ISGQUERYRSN_BADRNAMEALET EQU X'00000808'                                01-ISGYCON 
                         00000809            3623+ISGQUERYRSN_BADRNAMELEN EQU X'00000809'                                 01-ISGYCON 
                         0000080A            3624+ISGQUERYRSN_BADRNLEADDRESS EQU X'0000080A'                              01-ISGYCON 
                         0000080B            3625+ISGQUERYRSN_BADRNLEALET EQU X'0000080B'                                 01-ISGYCON 
                         0000080C            3626+ISGQUERYRSN_MUTUALLYEXCLUSIVE EQU X'0000080C'                           01-ISGYCON 
                         0000080D            3627+ISGQUERYRSN_BADANSAREAADDRESS EQU X'0000080D'                           01-ISGYCON 
                         0000080E            3628+ISGQUERYRSN_BADANSAREAALET EQU X'0000080E'                              01-ISGYCON 
                         0000080F            3629+ISGQUERYRSN_BADSCANACTION EQU X'0000080F'                               01-ISGYCON 
1         ISGYCON  - Constants for users of GRS services                                                        Page   78            
   Active Usings: PARMS,R9  CONSTANTS,R11  CEECAA,R12  CEEDSA,R13                                                                    
0D-Loc    Object Code      Addr1    Addr2    Stmt  Source Statement                          HLASM R6.0  2012/03/05 10.22            
0                        00000810            3630+ISGQUERYRSN_BADRESUMETOKENADDRESS EQU X'00000810'                       01-ISGYCON 
                         00000811            3631+ISGQUERYRSN_BADRESUMETOKENALET EQU X'00000811'                          01-ISGYCON 
                         00000812            3632+ISGQUERYRSN_BADGATHERFROM EQU X'00000812'                               01-ISGYCON 
                         00000813            3633+ISGQUERYRSN_BADSEARCH EQU X'00000813'                                   01-ISGYCON 
                         00000814            3634+ISGQUERYRSN_BADENQTOKENADDRESS EQU X'00000814'                          01-ISGYCON 
                         00000815            3635+ISGQUERYRSN_BADENQTOKENALET EQU X'00000815'                             01-ISGYCON 
                         00000816            3636+ISGQUERYRSN_BADQNAMEMATCH EQU X'00000816'                               01-ISGYCON 
                         00000817            3637+ISGQUERYRSN_BADRNAMEMATCH EQU X'00000817'                               01-ISGYCON 
                         00000818            3638+ISGQUERYRSN_BADSCOPE EQU X'00000818'                                    01-ISGYCON 
                         00000819            3639+ISGQUERYRSN_BADSERIALIZEBY EQU X'00000819'                              01-ISGYCON 
                         0000081A            3640+ISGQUERYRSN_ANSLENTOOSMALL EQU X'0000081A'                              01-ISGYCON 
                         0000081B            3641+ISGQUERYRSN_RESUMETOKENNOTVALID EQU X'0000081B'                         01-ISGYCON 
                         0000081C            3642+ISGQUERYRSN_RESUMETOKENTOOOLD EQU X'0000081C'                           01-ISGYCON 
                         0000081D            3643+ISGQUERYRSN_ENQTOKENNOTVALID EQU X'0000081D'                            01-ISGYCON 
                         0000081E            3644+ISGQUERYRSN_BADREQUESTERLIMIT EQU X'0000081E'                           01-ISGYCON 
                         0000081F            3645+ISGQUERYRSN_NOPOSSIBLEMATCH EQU X'0000081F'                             01-ISGYCON 
                         00000820            3646+ISGQUERYRSN_BADANSDETAIL EQU X'00000820'                                01-ISGYCON 
                         00000821            3647+ISGQUERYRSN_NOTAUTHTOQSCAN EQU X'00000821'                              01-ISGYCON 
                         00000822            3648+ISGQUERYRSN_BADASID EQU X'00000822'                                     01-ISGYCON 
                         00000823            3649+ISGQUERYRSN_BADUSERDATAADDRESS EQU X'00000823'                          01-ISGYCON 
                         00000824            3650+ISGQUERYRSN_BADUSERDATAALET EQU X'00000824'                             01-ISGYCON 
                         00000825            3651+ISGQUERYRSN_BADUSERDATALEN EQU X'00000825'                              01-ISGYCON 
                         00000826            3652+ISGQUERYRSN_BADUSERDATAMATCH EQU X'00000826'                            01-ISGYCON 
                         0000000C            3653+ISGQUERYRC_ENVERROR EQU X'0000000C'                                     01-ISGYCON 
                         00000C01            3654+ISGQUERYRSN_SRBMODE EQU X'00000C01'                                     01-ISGYCON 
                         00000C02            3655+ISGQUERYRSN_NOTENABLED EQU X'00000C02'                                  01-ISGYCON 
                         00000C03            3656+ISGQUERYRSN_COMPLEXMIGRATING EQU X'00000C03'                            01-ISGYCON 
                         00000C04            3657+ISGQUERYRSN_CANNOTOBTAINLOCKS EQU X'00000C04'                           01-ISGYCON 
                         00000C05            3658+ISGQUERYRSN_LOCKHELD EQU X'00000C05'                                    01-ISGYCON 
                         00000C06            3659+ISGQUERYRSN_MAXCONCURRENTREQUESTS EQU X'00000C06'                       01-ISGYCON 
                         00000C07            3660+ISGQUERYRSN_RINGRESUMEINSTAR EQU X'00000C07'                            01-ISGYCON 
                         00000C08            3661+ISGQUERYRSN_INSUFFICIENTSTORAGE EQU X'00000C08'                         01-ISGYCON 
                         00000010            3662+ISGQUERYRC_COMPERROR EQU X'00000010'                                    01-ISGYCON 
                                             3663+*                                                                                  
                                             3664+*   ISGENQ Return and Reason Codes                                                 
                                             3665+*   (Note that the reason codes are of the form "xxxxYYYY" where                   
                                             3666+*    "xxxx" is used to contain the module id of the failing module.                
                                             3667+*    Module ids can be found in ISGYMT or ISGFID)                                  
                                             3668+*    Use ISGRsnCodeMask to remove the module id from the reason codes              
                                             3669+*                                                                                  
                                             3670+*                                                                                  
                                             3671+*                                                                                  
                         00000000            3672+ISGENQRC_OK EQU X'00000000'                                             01-ISGYCON 
                         00000004            3673+ISGENQRC_WARN EQU X'00000004'                                           01-ISGYCON 
                         00000401            3674+ISGENQRSN_NONZERORETURNCODES EQU X'00000401'                            01-ISGYCON 
                         00000402            3675+ISGENQRSN_REQUESTNOTPROCESSED EQU X'00000402'                           01-ISGYCON 
                         00000403            3676+ISGENQRSN_ECBWILLBEPOSTED EQU X'00000403'                               01-ISGYCON 
                         00000404            3677+ISGENQRSN_NOTIMMEDIATELYAVAILABLE EQU X'00000404'                       01-ISGYCON 
                         00000405            3678+ISGENQRSN_TASKOWNSEXCLUSIVE EQU X'00000405'                             01-ISGYCON 
                         00000406            3679+ISGENQRSN_TASKOWNSSHARED EQU X'00000406'                                01-ISGYCON 
                         00000407            3680+ISGENQRSN_TASKWAITING EQU X'00000407'                                   01-ISGYCON 
                         00000409            3681+ISGENQRSN_OTHERSHAREDOWNERS EQU X'00000409'                             01-ISGYCON 
                         0000040A            3682+ISGENQRSN_TASKDOESNOTOWN EQU X'0000040A'                                01-ISGYCON 
                         0000040B            3683+ISGENQRSN_TASKSUSPENDEDFORRESOURCE EQU X'0000040B'                      01-ISGYCON 
                         0000040D            3684+ISGENQRSN_UNPROTECTEDQNAME EQU X'0000040D'                              01-ISGYCON 
1         ISGYCON  - Constants for users of GRS services                                                        Page   79            
   Active Usings: PARMS,R9  CONSTANTS,R11  CEECAA,R12  CEEDSA,R13                                                                    
0D-Loc    Object Code      Addr1    Addr2    Stmt  Source Statement                          HLASM R6.0  2012/03/05 10.22            
0                        0000040E            3685+ISGENQRSN_UNPROTECTEDEXITQNAME EQU X'0000040E'                          01-ISGYCON 
                         0000040F            3686+ISGENQRSN_ECBATLEASTONEREQUESTFAILED EQU X'0000040F'                    01-ISGYCON 
                         00000008            3687+ISGENQRC_PARMERROR EQU X'00000008'                                      01-ISGYCON 
                         00000801            3688+ISGENQRSN_BADPLISTADDRESS EQU X'00000801'                               01-ISGYCON 
                         00000802            3689+ISGENQRSN_BADPLISTALET EQU X'00000802'                                  01-ISGYCON 
                         00000803            3690+ISGENQRSN_BADPLISTVERSION EQU X'00000803'                               01-ISGYCON 
                         00000804            3691+ISGENQRSN_RESERVEDFIELDNOTNULL EQU X'00000804'                          01-ISGYCON 
                         00000805            3692+ISGENQRSN_MUTUALLYEXCLUSIVE EQU X'00000805'                             01-ISGYCON 
                         00000806            3693+ISGENQRSN_BADREQUEST EQU X'00000806'                                    01-ISGYCON 
                         00000807            3694+ISGENQRSN_BADCONTENTIONACT EQU X'00000807'                              01-ISGYCON 
                         00000808            3695+ISGENQRSN_BADOWNINGTTOKEN EQU X'00000808'                               01-ISGYCON 
                         00000809            3696+ISGENQRSN_BADANSAREAADDRESS EQU X'00000809'                             01-ISGYCON 
                         0000080A            3697+ISGENQRSN_BADANSAREAALET EQU X'0000080A'                                01-ISGYCON 
                         0000080B            3698+ISGENQRSN_ANSLENTOOSMALL EQU X'0000080B'                                01-ISGYCON 
                         0000080C            3699+ISGENQRSN_BADRNAMEADDRESS EQU X'0000080C'                               01-ISGYCON 
                         0000080D            3700+ISGENQRSN_BADRNAMEALET EQU X'0000080D'                                  01-ISGYCON 
                         0000080E            3701+ISGENQRSN_BADRNAMELEN EQU X'0000080E'                                   01-ISGYCON 
                         0000080F            3702+ISGENQRSN_BADSCOPE EQU X'0000080F'                                      01-ISGYCON 
                         00000810            3703+ISGENQRSN_BADUCB@ EQU X'00000810'                                       01-ISGYCON 
                         00000811            3704+ISGENQRSN_BADCOND EQU X'00000811'                                       01-ISGYCON 
                         00000812            3705+ISGENQRSN_BADSYNCHRES EQU X'00000812'                                   01-ISGYCON 
                         00000813            3706+ISGENQRSN_BADENQTOKENADDRESS EQU X'00000813'                            01-ISGYCON 
                         00000814            3707+ISGENQRSN_BADENQTOKENALET EQU X'00000814'                               01-ISGYCON 
                         00000815            3708+ISGENQRSN_BADENQTOKEN EQU X'00000815'                                   01-ISGYCON 
                         00000816            3709+ISGENQRSN_BADNUMRES EQU X'00000816'                                     01-ISGYCON 
                         00000817            3710+ISGENQRSN_BADRESTABLEADDRESS EQU X'00000817'                            01-ISGYCON 
                         00000818            3711+ISGENQRSN_BADRESTABLEALET EQU X'00000818'                               01-ISGYCON 
                         00000819            3712+ISGENQRSN_BADRESTABLE EQU X'00000819'                                   01-ISGYCON 
                         0000081A            3713+ISGENQRSN_BADENQTOKENTBLADDRESS EQU X'0000081A'                         01-ISGYCON 
                         0000081B            3714+ISGENQRSN_BADENQTOKENTBLALET EQU X'0000081B'                            01-ISGYCON 
                         0000081C            3715+ISGENQRSN_BADRETURNTABLEADDRESS EQU X'0000081C'                         01-ISGYCON 
                         0000081D            3716+ISGENQRSN_BADRETURNTABLEALET EQU X'0000081D'                            01-ISGYCON 
                         0000081E            3717+ISGENQRSN_NOTAUTHORIZEDFORQNAME EQU X'0000081E'                         01-ISGYCON 
                         0000081F            3718+ISGENQRSN_NOTAUTHORIZEDFOREXITQNAME EQU X'0000081F'                     01-ISGYCON 
                         00000820            3719+ISGENQRSN_NOTAUTHORIZEDFORECB EQU X'00000820'                           01-ISGYCON 
                         00000821            3720+ISGENQRSN_NOTAUTHORIZEDFOROWNINGTTOKEN EQU X'00000821'                  01-ISGYCON 
                         00000822            3721+ISGENQRSN_BADUSERDATAADDRESS EQU X'00000822'                            01-ISGYCON 
                         00000823            3722+ISGENQRSN_BADUSERDATAALET EQU X'00000823'                               01-ISGYCON 
                         00000824            3723+ISGENQRSN_DEVICENOTALLOCATED EQU X'00000824'                            01-ISGYCON 
                         00000825            3724+ISGENQRSN_EXITDEVICENOTALLOCATED EQU X'00000825'                        01-ISGYCON 
                         00000826            3725+ISGENQRSN_BADCONTROL EQU X'00000826'                                    01-ISGYCON 
                         00000827            3726+ISGENQRSN_BADEXITUCB@ EQU X'00000827'                                   01-ISGYCON 
                         00000828            3727+ISGENQRSN_NOTAUTHORIZEDFORENQMAX EQU X'00000828'                        01-ISGYCON 
                         0000000C            3728+ISGENQRC_ENVERROR EQU X'0000000C'                                       01-ISGYCON 
                         00000C01            3729+ISGENQRSN_REQUESTLIMITEXCEEDED EQU X'00000C01'                          01-ISGYCON 
                         00000C05            3730+ISGENQRSN_ABENDINEXIT EQU X'00000C05'                                   01-ISGYCON 
                         00000C0A            3731+ISGENQRSN_TASKENDING EQU X'00000C0A'                                    01-ISGYCON 
                         00000C0B            3732+ISGENQRSN_FRRHELD EQU X'00000C0B'                                       01-ISGYCON 
                         00000C0C            3733+ISGENQRSN_LOCKHELD EQU X'00000C0C'                                      01-ISGYCON 
                         00000C0D            3734+ISGENQRSN_SRBMODE EQU X'00000C0D'                                       01-ISGYCON 
                         00000C0E            3735+ISGENQRSN_NOTENABLED EQU X'00000C0E'                                    01-ISGYCON 
                         00000C0F            3736+ISGENQRSN_MASIDTARGET EQU X'00000C0F'                                   01-ISGYCON 
                         00000010            3737+ISGENQRC_COMPERROR EQU X'00000010'                                      01-ISGYCON 
                         00001002            3738+ISGENQRSN_CANNOTOBTAINHOMESTORAGE EQU X'00001002'                       01-ISGYCON 
                         00001003            3739+ISGENQRSN_CANNOTOBTAINCOMMONSTORAGE EQU X'00001003'                     01-ISGYCON 
1         ISGYCON  - Constants for users of GRS services                                                        Page   80            
   Active Usings: PARMS,R9  CONSTANTS,R11  CEECAA,R12  CEEDSA,R13                                                                    
0D-Loc    Object Code      Addr1    Addr2    Stmt  Source Statement                          HLASM R6.0  2012/03/05 10.22            
0                        00001004            3740+ISGENQRSN_CANNOTOBTAINPRIMARYALET EQU X'00001004'                       01-ISGYCON 
                         00001006            3741+ISGENQRSN_SYNCHRESFLUSHFAILED EQU X'00001006'                           01-ISGYCON 
                         00001007            3742+ISGENQRSN_RESERVESTARTFAILED EQU X'00001007'                            01-ISGYCON 
                         00001008            3743+ISGENQRSN_RESERVECOUNTOVERFLOW EQU X'00001008'                          01-ISGYCON 
                         00001009            3744+ISGENQRSN_CANNOTOBTAINDSQE EQU X'00001009'                              01-ISGYCON 
                         0000100A            3745+ISGENQRSN_RESERVEDONEFAILED EQU X'0000100A'                             01-ISGYCON 
                         0000100B            3746+ISGENQRSN_CANNOTOBTAINPRIMARYSTORAGE EQU X'0000100B'                    01-ISGYCON 
                                             3747+*                                                                                  
                                             3748+*   ISGADMIN Return and Reason Codes                                               
                                             3749+*   (Note that the reason codes are of the form "xxxxYYYY" where                   
                                             3750+*    "xxxx" is used to contain the module id of the failing module.                
                                             3751+*    Module ids can be found in ISGYMT or ISGFID)                                  
                                             3752+*    Use ISGRsnCodeMask to remove the module id from the reason codes              
                                             3753+*                                                                                  
                                             3754+*                                                                                  
                                             3755+*                                                                                  
                         00000000            3756+ISGADMINRC_OK EQU X'00000000'                                           01-ISGYCON 
                         00000004            3757+ISGADMINRC_WARN EQU X'00000004'                                         01-ISGYCON 
                         00000401            3758+ISGADMINRSN_ENQMAXVALUELOW EQU X'00000401'                              01-ISGYCON 
                         00000402            3759+ISGADMINRSN_RESETENQMAXIGNORED EQU X'00000402'                          01-ISGYCON 
                         00000008            3760+ISGADMINRC_PARMERROR EQU X'00000008'                                    01-ISGYCON 
                         00000801            3761+ISGADMINRSN_BADPLISTADDRESS EQU X'00000801'                             01-ISGYCON 
                         00000802            3762+ISGADMINRSN_BADPLISTALET EQU X'00000802'                                01-ISGYCON 
                         00000803            3763+ISGADMINRSN_BADPLISTVERSION EQU X'00000803'                             01-ISGYCON 
                         00000804            3764+ISGADMINRSN_RESERVEDFIELDNOTNULL EQU X'00000804'                        01-ISGYCON 
                         00000805            3765+ISGADMINRSN_BADREQUEST EQU X'00000805'                                  01-ISGYCON 
                         00000806            3766+ISGADMINRSN_ENQMAXVALUETOOLOW EQU X'00000806'                           01-ISGYCON 
                         00000807            3767+ISGADMINRSN_BADMOVINGWAITERADDRESS EQU X'00000807'                      01-ISGYCON 
                         00000808            3768+ISGADMINRSN_BADMOVINGWAITERALET EQU X'00000808'                         01-ISGYCON 
                         00000809            3769+ISGADMINRSN_BADMOVINGWAITER EQU X'00000809'                             01-ISGYCON 
                         0000080A            3770+ISGADMINRSN_BADBEFOREREQUESTERADDRESS EQU X'0000080A'                   01-ISGYCON 
                         0000080B            3771+ISGADMINRSN_BADBEFOREREQUESTERALET EQU X'0000080B'                      01-ISGYCON 
                         0000080C            3772+ISGADMINRSN_BADBEFOREREQUESTER EQU X'0000080C'                          01-ISGYCON 
                         0000080D            3773+ISGADMINRSN_SAMEREQUESTER EQU X'0000080D'                               01-ISGYCON 
                         0000080E            3774+ISGADMINRSN_INCONSISTENTRESOURCE EQU X'0000080E'                        01-ISGYCON 
                         0000080F            3775+ISGADMINRSN_BADSCOPE EQU X'0000080F'                                    01-ISGYCON 
                         00000810            3776+ISGADMINRSN_BADCONTROL EQU X'00000810'                                  01-ISGYCON 
                         00000811            3777+ISGADMINRSN_CANNOTMOVEOWNER EQU X'00000811'                             01-ISGYCON 
                         00000812            3778+ISGADMINRSN_ALREADYBEFOREREQUESTER EQU X'00000812'                      01-ISGYCON 
                         00000813            3779+ISGADMINRSN_CANNOTMOVEBEFOREOWNER EQU X'00000813'                       01-ISGYCON 
                         00000814            3780+ISGADMINRSN_CANNOTMOVEAFTERSHAREDOWNER EQU X'00000814'                  01-ISGYCON 
                         00000815            3781+ISGADMINRSN_CANNOTMAKEANOTHEROWNER EQU X'00000815'                      01-ISGYCON 
                         00000816            3782+ISGADMINRSN_ALREADYLASTREQUESTER EQU X'00000816'                        01-ISGYCON 
                         00000817            3783+ISGADMINRSN_CANNOTMOVEMASIDUSER EQU X'00000817'                         01-ISGYCON 
                         00000818            3784+ISGADMINRSN_MASIDCONTROLCONFLICT EQU X'00000818'                        01-ISGYCON 
                         0000000C            3785+ISGADMINRC_ENVERROR EQU X'0000000C'                                     01-ISGYCON 
                         00000C01            3786+ISGADMINRSN_NOTAUTHORIZED EQU X'00000C01'                               01-ISGYCON 
                         00000C02            3787+ISGADMINRSN_FRRHELD EQU X'00000C02'                                     01-ISGYCON 
                         00000C03            3788+ISGADMINRSN_LOCKHELD EQU X'00000C03'                                    01-ISGYCON 
                         00000C04            3789+ISGADMINRSN_SRBMODE EQU X'00000C04'                                     01-ISGYCON 
                         00000C05            3790+ISGADMINRSN_NOTENABLED EQU X'00000C05'                                  01-ISGYCON 
                         00000C06            3791+ISGADMINRSN_QUEUEDAMAGE1 EQU X'00000C06'                                01-ISGYCON 
                         00000C07            3792+ISGADMINRSN_QUEUEDAMAGE2 EQU X'00000C07'                                01-ISGYCON 
                         00000010            3793+ISGADMINRC_COMPERROR EQU X'00000010'                                    01-ISGYCON 
                                             3794+*                                                                                  
1         ISGYCON  - Constants for users of GRS services                                                        Page   81            
   Active Usings: PARMS,R9  CONSTANTS,R11  CEECAA,R12  CEEDSA,R13                                                                    
0D-Loc    Object Code      Addr1    Addr2    Stmt  Source Statement                          HLASM R6.0  2012/03/05 10.22            
0                                            3795+* ********************************************************************             
                                             3796+* * Declares for ENQMAXx values in GRSCNFxx, SETGRS, and ISGADMIN:   *             
                                             3797+* * These are smallest possible maximums for authorized and          *             
                                             3798+* * unauthorized requesters, to help prevent the installation        *             
                                             3799+* * from inadvertently causing excessive ABEND538s.                                
                                             3800+* ********************************************************************             
                                             3801+*                                                                                  
                                             3802+*                                                                                  
                         0003D090            3803+ENQMAXA_SMALLESTMAXIMUM EQU 250000                                      01-ISGYCON 
                         00004000            3804+ENQMAXU_SMALLESTMAXIMUM EQU 16384                                       01-ISGYCON 
                                             3805          ISGRNLE                                                                   
                                             3806+**/                                                                                
                                             3807+*%PLSRNLE: ;                                                                       
                                             3808+*/** START OF SPECIFICATIONS  *****************************************            
                                             3809+*                                                                                  
                                             3810+*01*  MACRO-NAME = ISGRNLE                                                         
                                             3811+*                                                                                  
                                             3812+*01*  MACRO-DATE = 11/10/03                                        @P1C            
                                             3813+*                                                                                  
                                             3814+*01*  DESCRIPTIVE-NAME = RESOURCE NAME LIST ENTRY                                  
                                             3815+*                                                                                  
                                             3816+*01*  DSECT NAME = RNLE, RNL_HEADER                                                
                                             3817+*                                                                                  
                                             3818+*01*  COMPONENT = GLOBAL RESOURCE SERIALIZATION (SCSDS)                            
                                             3819+*                                                                                  
                                             3820+*01*  PROPRIETARY STATEMENT =                                                      
                                             3821+*                                                                                  
                                             3822+*     LICENSED MATERIALS - PROPERTY OF IBM                                         
                                             3823+*     "RESTRICTED MATERIALS OF IBM"                                                
                                             3824+*     5694-A01                                                                     
                                             3825+*     (C) COPYRIGHT IBM CORP. 1982,  2004                                          
                                             3826+*                                                                                  
                                             3827+*01*  STATUS = HBB7709                                                             
                                             3828+*                                                                                  
                                             3829+*01*  EXTERNAL CLASSIFICATION: PI                                                  
                                             3830+*01*  END OF EXTERNAL CLASSIFICATION:                                              
                                             3831+*                                                                                  
                                             3832+*01*  FUNCTION = DEFINES RESOURCES THAT ARE TO BE INCLUDED OR                      
                                             3833+*                EXCLUDED FROM GLOBAL RESOURCE SERIALIZATION AND ALSO              
                                             3834+*                DEFINES RESERVE RESOURCES THAT ARE TO BE CONVERTED TO             
                                             3835+*                GLOBAL ENQS                                                       
                                             3836+*                                                                                  
                                             3837+*01*  METHOD-OF-ACCESS = PLS - DCL RNLE PTR(31)                                    
                                             3838+*                              %INCLUDE SYSLIB(ISGRNLE)                            
                                             3839+*                        BAL - DSECT IS PRODUCED REQUIRING A                       
                                             3840+*                              USING ON THE RNLE.                                  
                                             3841+*                                                                                  
                                             3842+*01*  CREATED-BY = THE RNLES ARE CREATED BY ISGNRNLP AT SYSTEM                     
                                             3843+*                  INITIALIZATION OR BY ISGCRNLP DURING A DYNAMIC RNL              
                                             3844+*                  CHANGE.                                                         
                                             3845+*                                                                                  
                                             3846+*01* STORAGE ATTRIBUTES:                                                           
                                             3847+*02*  SUBPOOL = 245                                                                
                                             3848+*02*  KEY = 0                                                                      
                                             3849+*02*  RESIDENCY = ABOVE THE 16M LINE                                               
1         ISGYCON  - Constants for users of GRS services                                                        Page   82            
   Active Usings: PARMS,R9  CONSTANTS,R11  CEECAA,R12  CEEDSA,R13                                                                    
0D-Loc    Object Code      Addr1    Addr2    Stmt  Source Statement                          HLASM R6.0  2012/03/05 10.22            
0                                            3850+*                                                                                  
                                             3851+*01* SIZE = 10 BYTES + VARIABLE LENGTH RNAME                                       
                                             3852+*                                                                                  
                                             3853+*01* EYE-CATCHER:  N/A                                                             
                                             3854+*02*  OFFSET:  N/A                                                                 
                                             3855+*02*  LENGTH:  N/A                                                                 
                                             3856+*                                                                                  
                                             3857+*01*  DELETED-BY = AFTER A DYNAMIC RNL CHANGE, THE OLD RNLS ARE                    
                                             3858+*                  DELETED BY ISGCIRC, ISGCIRS, ISGCPRC, ISGCPRS,                  
                                             3859+*                  DEPENDING ON THE GRS MODE AND WHETHER OR NOT THE                
                                             3860+*                  SYSTEM INITIATED OR PARTICIPATED THE RNL CHANGE.                
                                             3861+*                                                                                  
                                             3862+*01*  POINTED-TO-BY = THERE ARE THREE LISTS OF RNLES:                              
                                             3863+*                     GVTSERNL POINTS TO THE FIRST RNLE IN THE                     
                                             3864+*                       SYSTEMS EXCLUSION LIST                                     
                                             3865+*                     GVTSIRNL POINTS TO THE FIRST RNLE IN THE                     
                                             3866+*                       SYSTEM INCLUSION LIST                                      
                                             3867+*                     GVTRCRNL POINTS TO THE FIRST RNLE IN THE                     
                                             3868+*                       RESERVE CONVERSION LIST                                    
                                             3869+*                                                                                  
                                             3870+*01*  SERIALIZATION = CHANGES TO THE RNLS ARE SERIALIZED BY THE                    
                                             3871+*                     CMSEQDQ LOCK                                                 
                                             3872+*                                                                                  
                                             3873+*01*  CHANGE-ACTIVITY =                                                            
                                             3874+*$L1=RNLPRMLB,JBB2125,820608,PD1M: RNLS IN PARMLIB                 @L1A            
                                             3875+*$L2=GRSW1   ,HBB4410,890206,PDDX: GRSRNL=EXCLUDE SUPPORT          @L2A            
                                             3876+*$L3=GRSW1   ,HBB4410,890403,PDEN: ADD RNLEFXDP                    @L3A            
                                             3877+*$L4=DRNL    ,HBB4410,891127,PDEN: ADD RNL_HEADER                  @L4A            
                                             3878+*$L5=GRSWC   ,HBB7705,991128,PDWL: ADD PATTERN ENTRIES             @L5A            
                                             3879+*$P0=PX00029 ,HBB7705,000105,PDWI: REMOVE RNLESPEC BIT             @P0A            
                                             3880+*$P1=PJK0745 ,HBB7709,031110,PDFX: GENERAL DOC CHANGES                             
                                             3881+*                                                                                  
                                             3882+******  END OF SPECIFICATIONS  ***************************************/            
                                             3883+*/*A000000-999999                                            @G381PYC*/            
                                             3884+*        %GOTO PLSRNLE1;                                             /*            
 00000000                00000000 0000000A   3885+RNLE     DSECT                            RNLE ENTRY                    01-ISGRNLE 
 00000000                                    3886+RNLEFXDP DS    0CL10                      FIXED PORTION OF RNLE    @L3A 01-ISGRNLE 
 00000000                                    3887+RNLEFLGS DS    B                          FLAG BYTE                     01-ISGRNLE 
                         00000080            3888+RNLELAST EQU   X'80'                      WHEN 1, THIS IS A DUMMY RNLE  01-ISGRNLE 
                                             3889+*                                         INDICATING THE END OF THE                
                                             3890+*                                         LIST                     @P1C            
                         00000040            3891+RNLEGENR EQU   X'40'                      WHEN 1, GENERIC ENTRY         01-ISGRNLE 
                         00000020            3892+RNLEXALL EQU   X'20'                      WHEN 1, GRSRNL=EXCLUDE,       01-ISGRNLE 
                                             3893+*                                         INDICATED ON A DUMMY RNLE                
                                             3894+*                                                                  @P1C            
                         00000010            3895+RNLEPATT EQU   X'10'                      WHEN 1, PATTERN ENTRY    @L5C 01-ISGRNLE 
                         00000008            3896+RNLEFR04 EQU   X'08'                      RESERVED                 @P0C 01-ISGRNLE 
                         00000004            3897+RNLEFR03 EQU   X'04'                      RESERVED                      01-ISGRNLE 
                         00000002            3898+RNLEFR02 EQU   X'02'                      RESERVED                      01-ISGRNLE 
                         00000001            3899+RNLEFR01 EQU   X'01'                      RESERVED                      01-ISGRNLE 
 00000001                                    3900+RNLERNML DS    AL(1)                      LENGTH OF RNAME               01-ISGRNLE 
 00000002                                    3901+RNLEQNME DS    CL8                        QNAME                         01-ISGRNLE 
 0000000A                                    3902+RNLERNME DS    0C                         RNAME (VARIABLE LENGTH)       01-ISGRNLE 
                                             3903+*                                                                                  
 00000000                00000000 0000000C   3904+RNL_HEADDR  DSECT                         RNL HEADER              3@L4A 01-ISGRNLE 
1         ISGYCON  - Constants for users of GRS services                                                        Page   83            
   Active Usings: PARMS,R9  CONSTANTS,R11  CEECAA,R12  CEEDSA,R13                                                                    
0D-Loc    Object Code      Addr1    Addr2    Stmt  Source Statement                          HLASM R6.0  2012/03/05 10.22            
000000000                                    3905+RNLTYPE  DS CL8                           TYPE OF RNL                   01-ISGRNLE 
 00000008                                    3906+RNL_LENGTH   DS F                         LENGTH OF RNL                 01-ISGRNLE 
 00000000                00000000 00000018   3907 PARMS    DSECT                                                                     
 00000000                                    3908 @ARGC    DS    A                  ADDRESS OF NUMBER OF ARGUMENTS                   
 00000004                                    3909 @ARGVL   DS    A                  ADDRESS OF VECTOR OF LENGTH OF ARGS              
 00000008                                    3910 @ARGV    DS    A                  ADDRESS OF VECTOR OF ARGS                        
 0000000C                                    3911 @ENVL    DS    A                  ADDRESS OF NUMBER OF ENV VARS                    
 00000010                                    3912 @ENVVL   DS    A                  ADDRESS OF VECTOR OF LENGTH OF ENV VA            
 00000014                                    3913 @ENV     DS    A                  ADDRESS OF VECTOR OF ENV VARS                    
 00000000                00000000 00000139   3914 RETURN_STRUC DSECT                                                                 
 00000000                                    3915 RTN_QNAME DS   CL8                ISGYQUAARSQNAME                                  
 00000008                                    3916 RTN_JOBNAME DS CL8                ISGYQUAARQXJOBNAME                               
 00000010                                    3917 RTN_RLEN DS    F                  ISGYQUAARSRNAMELEN                               
 00000014                                    3918 RTN_SYSNAME DS CL8                ISGYQUAARQXSYSNAME                               
 0000001C                                    3919 RTN_EXCSHR DS  CL8                ISGYQUAARQFLAGS1                                 
                                             3920 *ISGYQUAARQCONTROL EQ X'80'       ON-SHARED                                        
                                             3921 *ISGYQUAARQOWNER   EQ X'08'                                                        
                                             3922 *ISGYQUAARQMATU    EQ X'04'                                                        
 00000024                                    3923 RTN_STATUS DS  CL8                                                                 
 0000002C                                    3924 RTN_SCOPE  DS  CL8                ISGYQUAARSSCOPE                                  
                                             3925 * ISGYQUAA_KSTEP                                                                   
                                             3926 * ISGYQUAA_KSYSTEM                                                                 
                                             3927 * ISGYQUAA_KSYSPLEX                                                                
 00000034                                    3928 RTN_TCB  DS    A                                                                   
 00000038                                    3929 RTN_ASID DS    H                                                                   
 0000003A                                    3930 RTN_RNAME DS   CL255                                                               
                         00000139            3931 RTN_NEXT EQU   *                                                                   
                         00000139            3932 RTN_LEN  EQU   *-RTN_QNAME                                                         
                                             3933 *        regs                                                                      
                                             3934 *        AGO   .SKIP1                                                              
                         00000000            3935 R0       EQU   0,,,,GR                                                             
                         00000001            3936 R1       EQU   1,,,,GR                                                             
                         00000002            3937 R2       EQU   2,,,,GR                                                             
                         00000003            3938 R3       EQU   3,,,,GR                                                             
                         00000004            3939 R4       EQU   4,,,,GR                                                             
                         00000005            3940 R5       EQU   5,,,,GR                                                             
                         00000006            3941 R6       EQU   6,,,,GR                                                             
                         00000007            3942 R7       EQU   7,,,,GR                                                             
                         00000008            3943 R8       EQU   8,,,,GR                                                             
                         00000009            3944 R9       EQU   9,,,,GR                                                             
                         0000000A            3945 R10      EQU   10,,,,GR                                                            
                         0000000B            3946 R11      EQU   11,,,,GR                                                            
                         0000000C            3947 R12      EQU   12,,,,GR                                                            
                         0000000D            3948 R13      EQU   13,,,,GR                                                            
                         0000000E            3949 R14      EQU   14,,,,GR                                                            
                         0000000F            3950 R15      EQU   15,,,,GR                                                            
                         00000000            3951 R0_64    EQU   0,,,,GR64                                                           
                         00000001            3952 R1_64    EQU   1,,,,GR64                                                           
                         00000002            3953 R2_64    EQU   2,,,,GR64                                                           
                         00000003            3954 R3_64    EQU   3,,,,GR64                                                           
                         00000004            3955 R4_64    EQU   4,,,,GR64                                                           
                         00000005            3956 R5_64    EQU   5,,,,GR64                                                           
                         00000006            3957 R6_64    EQU   6,,,,GR64                                                           
                         00000007            3958 R7_64    EQU   7,,,,GR64                                                           
                         00000008            3959 R8_64    EQU   8,,,,GR64                                                           
1         ISGYCON  - Constants for users of GRS services                                                        Page   84            
   Active Usings: PARMS,R9  CONSTANTS,R11  CEECAA,R12  CEEDSA,R13                                                                    
0D-Loc    Object Code      Addr1    Addr2    Stmt  Source Statement                          HLASM R6.0  2012/03/05 10.22            
0                        00000009            3960 R9_64    EQU   9,,,,GR64                                                           
                         0000000A            3961 R10_64   EQU   10,,,,GR64                                                          
                         0000000B            3962 R11_64   EQU   11,,,,GR64                                                          
                         0000000C            3963 R12_64   EQU   12,,,,GR64                                                          
                         0000000D            3964 R13_64   EQU   13,,,,GR64                                                          
                         0000000E            3965 R14_64   EQU   14,,,,GR64                                                          
                         0000000F            3966 R15_64   EQU   15,,,,GR64                                                          
                         00000000            3967 R0_32    EQU   0,,,,GR32                                                           
                         00000001            3968 R1_32    EQU   1,,,,GR32                                                           
                         00000002            3969 R2_32    EQU   2,,,,GR32                                                           
                         00000003            3970 R3_32    EQU   3,,,,GR32                                                           
                         00000004            3971 R4_32    EQU   4,,,,GR32                                                           
                         00000005            3972 R5_32    EQU   5,,,,GR32                                                           
                         00000006            3973 R6_32    EQU   6,,,,GR32                                                           
                         00000007            3974 R7_32    EQU   7,,,,GR32                                                           
                         00000008            3975 R8_32    EQU   8,,,,GR32                                                           
                         00000009            3976 R9_32    EQU   9,,,,GR32                                                           
                         0000000A            3977 R10_32   EQU   10,,,,GR32                                                          
                         0000000B            3978 R11_32   EQU   11,,,,GR32                                                          
                         0000000C            3979 R12_32   EQU   12,,,,GR32                                                          
                         0000000D            3980 R13_32   EQU   13,,,,GR32                                                          
                         0000000E            3981 R14_32   EQU   14,,,,GR32                                                          
                         0000000F            3982 R15_32   EQU   15,,,,GR32                                                          
                         00000000            3983 AR0      EQU   0,,,,AR                                                             
                         00000001            3984 AR1      EQU   1,,,,AR                                                             
                         00000002            3985 AR2      EQU   2,,,,AR                                                             
                         00000003            3986 AR3      EQU   3,,,,AR                                                             
                         00000004            3987 AR4      EQU   4,,,,AR                                                             
                         00000005            3988 AR5      EQU   5,,,,AR                                                             
                         00000006            3989 AR6      EQU   6,,,,AR                                                             
                         00000007            3990 AR7      EQU   7,,,,AR                                                             
                         00000008            3991 AR8      EQU   8,,,,AR                                                             
                         00000009            3992 AR9      EQU   9,,,,AR                                                             
                         0000000A            3993 AR10     EQU   10,,,,AR                                                            
                         0000000B            3994 AR11     EQU   11,,,,AR                                                            
                         0000000C            3995 AR12     EQU   12,,,,AR                                                            
                         0000000D            3996 AR13     EQU   13,,,,AR                                                            
                         0000000E            3997 AR14     EQU   14,,,,AR                                                            
                         0000000F            3998 AR15     EQU   15,,,,AR                                                            
                                             3999 .SKIP1   ANOP                                                                      
 00000000                                    4000          END   LSENQ                                                               
1                               Ordinary Symbol and Literal Cross Reference                                     Page   85            
-Symbol   Length   Value     Id    R Type Asm  Program   Defn References                     HLASM R6.0  2012/03/05 10.22            
0@ARGC         4 00000000 FFFFFFF1     A  A              3908  591   738                                                             
 @ARGV         4 00000008 FFFFFFF1     A  A              3910  593                                                                   
 @ARGVL        4 00000004 FFFFFFF1     A  A              3909  592                                                                   
 ALET          4 00000A10 00000001     A  A              1289  645   725   759   864   918  1085  1257  1290  1291                   
 ARGEND        2 000004A0 00000001     H  H               842  685B  704B                                                            
 ARGLP         2 0000019C 00000001     H  H               608  841B                                                                  
 ARGNEXT       2 00000494 00000001     H  H               838  612B  627B  682B  694B  703B  777B  782B  788B  794B  834B            
 BADOPT        2 0000040A 00000001     H  H               795  661B  674B  707B  775B  780B  785B  791B                              
 BADPARMS      2 0000094C 00000001     H  H              1224 1211B                                                                  
 BPX1WRT       4 00000144 FFFFFFFF     A  A              1945  573M  632   712   746   851   905  1072  1244                         
 BPX1WRV       4 00000148 FFFFFFFF     A  A              1946  584M  807   975  1179                                                 
 BUFFERA       4 00000150 FFFFFFFF     A  A              1948  629M  643   709M  723   743M  757   848M  862   902M  916  1056M 1083 
                                                              1226M 1255                                                             
 CALLX         4 00000198 FFFFFFFF     A  A              1988  537   633   713   747   806   852   906   974  1015  1052  1073  1178 
                                                              1227  1245                                                             
 CEEBETBL      1 00000000 0000000A     T                 1799 1799                                                                   
 CEECAA        1 00000000 FFFFFFFB     J                 2490  485   487   501   505U                                                
 CEECAAEOS                                                                                                                           
               4 0000000C FFFFFFFB     A  A              2502  485                                                                   
 CEECAAGETS                                                                                                                          
               4 000002BC FFFFFFFB     A  A              2635  487                                                                   
 CEECAALWS                                                                                                                           
               4 00000280 FFFFFFFB     A  A              2595  501                                                                   
 CEECAARS      4 000002D4 FFFFFFFB     X  X              2643 2779                                                                   
 CEEDSA        1 00000000 FFFFFFFF     J                 1843  473M  481   494M  495M  496M  496   497M  500U  506U 1883  1929  2030 
 CEEDSABKC                                                                                                                           
               4 00000004 FFFFFFFF     A  A              1850  494M                                                                  
 CEEDSAEND                                                                                                                           
               8 00000080 FFFFFFFF     D  D              1882 1883                                                                   
 CEEDSAFLAGS                                                                                                                         
               2 00000000 FFFFFFFF     X  X              1845  496M  496                                                             
 CEEDSAFWC                                                                                                                           
               4 00000008 FFFFFFFF     A  A              1851  497M                                                                  
 CEEDSAHP_BIAS                                                                                                                       
            2048 00000000 FFFFFFFE     X  X              1899 1900                                                                   
 CEEDSAHP_FIXED                                                                                                                      
               1 00000800 FFFFFFFE     X  X              1901 1903  1905  1925                                                       
 CEEDSAHP8TO15                                                                                                                       
               4 00000810 FFFFFFFE     F  F              1910 1911                                                                   
 CEEDSALWS                                                                                                                           
               4 00000048 FFFFFFFF     A  A              1867  501M                                                                  
 CEEDSANAB                                                                                                                           
               4 0000004C FFFFFFFF     A  A              1868  481   495M                                                            
 CEEDSAR14                                                                                                                           
               4 0000000C FFFFFFFF     F  F              1852  473M                                                                  
 CEEINPL       8 00001230 00000001     D  D              1789  491  1791                                                             
 CEEINPLSTST                                                                                                                         
               4 00001238 00000001     F  F              1792 1791                                                                   
 CEEINPL0005                                                                                                                         
               4 00000050 00000001     A  A               491  474                                                                   
 CEEINT        1 00000000 00000002     T                  492  492                                                                   
 CEEINT0005                                                                                                                          
               4 00000054 00000001     V  V               492  475                                                                   
 CEEMAIN       1 00001280 00000003     J                  521  522   523                                                             
 CEESTART      1 00000000 00000009     T                 1809 1798  1815                                                             
1                               Ordinary Symbol and Literal Cross Reference                                     Page   86            
-Symbol   Length   Value     Id    R Type Asm  Program   Defn References                     HLASM R6.0  2012/03/05 10.22            
0CEETERM_BLOCK                                                                                                                       
               4 00000188 FFFFFFFF     F  F              1987  511M  512M  513   514M  516M  517M  518                               
 CEETIMES      4 00001268 00000001     F  F              1827 1817                                                                   
 CEETREC       1 00000000 00000004     T                  528  528                                                                   
 CEEX0005      1 00000058 00000001     U                  493  486B  490B                                                            
 CEEY0005      1 000009F0 00000001 A   U                  466  467   482   483   483                                                 
 CEEZ0005      1 00000014 00000001     U                  472  464B                                                                  
 CEE3DMP       1 00000000 00000007     T                 1294 1294                                                                   
 CEE3INF       4 00000A14 00000001     V  V              1292  538                                                                   
 CEE3INF       1 00000000 00000005     T                 1292 1292                                                                   
 CONSTANTS                                                                                                                           
               8 000009C0 00000001     D  D              1270  531   532U 1660  1661U                                                
 COUNT         4 0000014C FFFFFFFF     F  F              1947  631M  647   711M  727   745M  761   850M  866   904M  920  1071M 1087 
                                                              1243M 1259                                                             
 CP_QNAME      6 00000A24 00000001     I                 1296  894X                                                                  
 CP_RNAME      6 00000A2A 00000001     I                 1297  936X                                                                  
 D_RC          8 00000098 FFFFFFFF     D  D              1939 1154M 1155M 1156                                                       
 D_TROO        4 00001106 00000001     I                 1629 1630B 1640B                                                            
 D_TROOE       2 0000112C 00000001     H  H              1641 1631B                                                                  
 DIRECTEDLOADMODULEENTRYPT64                                                                                                         
               8 00000010 FFFFFFFD     A  AD             2434 2435                                                                   
 DIRECTEDLOADMODULELENGTH64                                                                                                          
               8 00000000 FFFFFFFD     F  FD             2424 2425                                                                   
 DIRECTEDLOADMODULESTART64                                                                                                           
               8 00000008 FFFFFFFD     A  AD             2429 2430                                                                   
 DO_DOT        2 000010F6 00000001     H  H              1624  535                                                                   
 DO_ENCODE                                                                                                                           
               2 000010F0 00000001     H  H              1621  953B  965B 1133B 1168B                                                
 DO_HEX        2 00001136 00000001     H  H              1645  792                                                                   
 DO_OCTAL      2 00001194 00000001     H  H              1678  786                                                                   
 DOQNAME       2 0000050A 00000001     H  H               878  847B                                                                  
 DSASIZE       1 000009E9 FFFFFFFF A   U                 2030  466                                                                   
 E_CONSTANTS                                                                                                                         
               1 000010F0 00000001     U                 1618 1661U                                                                  
 E_DO_HEX      2 00001194 00000001     H  H              1676 1647U                                                                  
 ENCODE@       4 00000094 FFFFFFFF     A  A              1938  536M  787M  793M 1622                                                 
 ENV           4 00000164 FFFFFFFF     F  F              1975  548                                                                   
 ERRFMT1      30 00000A5E 00000001     C  C              1301 1239  1998                                                             
 ERRMSG1      50 00000220 FFFFFFFF     C  C              1998 1225                                                                   
 ERROR1        2 0000070A 00000001     H  H              1051 1040B 1047B                                                            
 ERROR2        2 000001F2 00000001     H  H               628  621B                                                                  
 F_MODIFIER                                                                                                                          
               4 000000AC FFFFFFFF     F  F              1942 1045                                                                   
 F_RC          4 000000A8 FFFFFFFF     F  F              1941 1041M 1053  1159M 1160M 1161                                           
 FC            4 00000170 FFFFFFFF     F  F              1980  554                                                                   
 FIELD1@       4 00000958 FFFFFFFF     A  A              2001  798M  949M  954  1130M 1135                                           
 FIELD1L       4 0000095C FFFFFFFF     F  F              2002  955M 1136M                                                            
 FIELD2@       4 00000968 FFFFFFFF     A  A              2004  801M  962M  966  1165M 1170                                           
 FIELD2L       4 0000096C FFFFFFFF     F  F              2005  800M  967M 1171M                                                      
 FIELD3@       4 00000978 FFFFFFFF     A  A              2007 1140M                                                                  
 FIELD3L       4 0000097C FFFFFFFF     F  F              2008 1141M                                                                  
 FIELD4@       4 00000988 FFFFFFFF     A  A              2010 1146M                                                                  
 FIELD4L       4 0000098C FFFFFFFF     F  F              2011 1147M                                                                  
 FIELD5@       4 00000998 FFFFFFFF     A  A              2013 1143M                                                                  
 FIELD5L       4 0000099C FFFFFFFF     F  F              2014 1144M                                                                  
1                               Ordinary Symbol and Literal Cross Reference                                     Page   87            
-Symbol   Length   Value     Id    R Type Asm  Program   Defn References                     HLASM R6.0  2012/03/05 10.22            
0FIELD6@       4 000009A8 FFFFFFFF     A  A              2016 1149M                                                                  
 FIELD6L       4 000009AC FFFFFFFF     F  F              2017 1150M                                                                  
 FIELD7@       4 000009B8 FFFFFFFF     A  A              2019 1152M                                                                  
 FIELD7L       4 000009BC FFFFFFFF     F  F              2020 1153M                                                                  
 FIELD8@       4 000009C8 FFFFFFFF     A  A              2022 1157M                                                                  
 FIELD8L       4 000009CC FFFFFFFF     F  F              2023 1158M                                                                  
 FIELD9@       4 000009D8 FFFFFFFF     A  A              2025 1162M                                                                  
 FIELD9L       4 000009DC FFFFFFFF     F  F              2026 1163M                                                                  
 FORMAT       37 00000A36 00000001     C  C              1299 1066                                                                   
 GO            2 000000B4 00000001     H  H               529  507B                                                                  
 GOBACK        2 0000007E 00000001     H  H               508  741B 1099B 1109B 1269B                                                
 GOOD1         2 000007AA 00000001     H  H              1110 1038B                                                                  
 GOOD2         2 00000782 00000001     H  H              1097 1049B 1128B                                                            
 GOTQNAME      2 00000528 00000001     H  H               889  880B                                                                  
 GPID          4 0000016C FFFFFFFF     F  F              1979  552                                                                   
 GQLST         1 000000B4 FFFFFFFF     X  X              1944  585M 1030                                                             
 GQPARM        8 00000DE8 00000001     D  D              1519  585  1518  1589                                                       
 GQPARML       1 00000090 00000001 A   U                 1589  585  1944                                                             
 H_TROO        4 00001148 00000001     I                 1652 1653B 1669B                                                            
 H_TROOE       2 00001184 00000001     H  H              1670 1654B                                                                  
 HELPMSG      33 00000F32 00000001     C  C              1606 1277  1617                                                             
 IHB0091A      2 0000094A 00000001     H  H              1222 1216B                                                                  
 INITERR       2 00000914 00000001     H  H              1208  562B  658B  772B  877B  931B                                          
 IOV_ALET      4 00000A10 00000001     U                 1290  821   989  1193                                                       
 IOV_BUFFER_ALET                                                                                                                     
               4 00000A10 00000001     U                 1291  823   991  1195                                                       
 IOV_COUNT                                                                                                                           
               4 00000210 FFFFFFFF     F  F              1989  805M  817   973M  985  1172M 1173  1189                               
 IOV_ENTRY                                                                                                                           
               4 00000000 FFFFFFFC     F  F              2472 2477                                                                   
 IOV_STRUC                                                                                                                           
               8 00000958 FFFFFFFF     D  D              2000  819   987  1191  2028                                                 
 IOV_STRUC_L                                                                                                                         
               1 00000090 FFFFFFFF A   U                 2028 1176  1284                                                             
 IS_OPTION                                                                                                                           
               2 0000024E 00000001     H  H               659  616B                                                                  
 ISGQUERY      4 00000A20 00000001     V  V              1295 1016                                                                   
 ISGQUERY      1 00000000 00000008     T                 1295 1295                                                                   
 ISGYQUAAHDR                                                                                                                         
               1 00000000 FFFFFFFA     J                 3040 3064                                                                   
 ISGYQUAARQ                                                                                                                          
               1 00000000 FFFFFFF7     J                 3148 3180                                                                   
 ISGYQUAARQFLAGS1                                                                                                                    
               1 00000002 FFFFFFF7     B  B              3151 3160                                                                   
 ISGYQUAARQFLAGS2                                                                                                                    
               1 00000003 FFFFFFF7     B  B              3161 3163                                                                   
 ISGYQUAARQX                                                                                                                         
               1 00000000 FFFFFFF6     J                 3190 3250                                                                   
 ISGYQUAARQXFLAGS1                                                                                                                   
               1 00000002 FFFFFFF6     B  B              3194 3203                                                                   
 ISGYQUAARQXFLAGS2                                                                                                                   
               1 00000003 FFFFFFF6     B  B              3204 3212                                                                   
 ISGYQUAARS                                                                                                                          
               1 00000000 FFFFFFF9     J                 3073 3113                                                                   
 ISGYQUAARSFLAGS1                                                                                                                    
1                               Ordinary Symbol and Literal Cross Reference                                     Page   88            
-Symbol   Length   Value     Id    R Type Asm  Program   Defn References                     HLASM R6.0  2012/03/05 10.22            
0              1 00000002 FFFFFFF9     B  B              3076 3079                                                                   
 ISGYQUAARSX                                                                                                                         
               1 00000000 FFFFFFF8     J                 3123 3139                                                                   
 ISGYQUAARSXFLAGS1                                                                                                                   
               1 00000002 FFFFFFF8     B  B              3126 3128                                                                   
 ISGYQUAASP                                                                                                                          
               1 00000000 FFFFFFF4     J                 3296 3311                                                                   
 ISGYQUAASYS                                                                                                                         
               1 00000000 FFFFFFF5     J                 3260 3286                                                                   
 ISGYQUAASYSFLAGS1                                                                                                                   
               1 00000002 FFFFFFF5     B  B              3263 3265                                                                   
 IShelp        2 000002F8 00000001     H  H               708  598B                                                                  
 LD2_0017      2 00000114 00000001     H  H               567  570                                                                   
 LD2_0019      2 0000012C 00000001     H  H               578  581                                                                   
 LE2_0017      8 00000114 00000001     C  C               568  570                                                                   
 LE2_0019      8 0000012C 00000001     C  C               579  581                                                                   
 LHELPMSG      1 000001BE 00000001 A   U                 1617  710                                                                   
 LOAD2_0017                                                                                                                          
               2 0000011C 00000001     H  H               569  566B                                                                  
 LOAD2_0019                                                                                                                          
               2 00000134 00000001     H  H               580  577B                                                                  
 LPARMSbd4                                                                                                                           
               1 00000028 00000001 A   U                 1602  744                                                                   
 LPARMSGT2                                                                                                                           
               1 0000002D 00000001 A   U                 1598  630                                                                   
 LPARMSGT3                                                                                                                           
               1 00000025 00000001 A   U                 1600  903                                                                   
 LPARMSLT2                                                                                                                           
               1 00000031 00000001 A   U                 1605  849                                                                   
 LSENQ         1 00000000 00000001     J                  455  456   457   458   468   503   504U  509   524   526  1818  4000       
 LSENQ_PPA                                                                                                                           
               4 00001208 00000001     F  F              1731  468                                                                   
 MBdbug        2 000003CE 00000001     H  H               778  667B                                                                  
 MBeopts       2 000003BE 00000001     H  H               773  669B                                                                  
 MBhelp        2 000002F0 00000001     H  H               705  673B                                                                  
 MBHEX         2 000003F4 00000001     H  H               789  665B                                                                  
 MBOCTAL       2 000003DE 00000001     H  H               783  663B                                                                  
 MBRNAME       2 0000048C 00000001     H  H               835  619B  624B                                                            
 MBtabchar                                                                                                                           
               2 0000028A 00000001     H  H               675  671B                                                                  
 MEMBER        4 00000168 FFFFFFFF     F  F              1977  550                                                                   
 MODIFIER      4 0000017C FFFFFFFF     F  F              1983  511   559M  594M                                                      
 NL            1 00000A7F 00000001     C  C              1305 1272                                                                   
 NL1           4 000009E0 FFFFFFFF     F  F              2027 1125M                                                                  
 NOTOPT        2 000001BE 00000001     H  H               617  614B                                                                  
 NOWRT         2 00000686 00000001     H  H              1001  947B                                                                  
 O_TROO        4 000011A4 00000001     I                 1683 1684B 1707B                                                            
 O_TROOE       2 000011FC 00000001     H  H              1708 1685B                                                                  
 OK1           2 000005C8 00000001     H  H               945  941B                                                                  
 ONOFF         1 000009E8 FFFFFFFF     X  X              2029  613   776M  781M  946                                                 
 OPTMSG1      15 00000E78 00000001     C  C              1595  796  1596                                                             
 OPTMSG1L      1 0000000F 00000001 A   U                 1596  797                                                                   
 PARMS         1 00000000 FFFFFFF1     J                 3907  534U                                                                  
 PARMSbd4     40 00000ED9 00000001     C  C              1601 1278  1602                                                             
 PARMSGT2     45 00000E87 00000001     C  C              1597 1276  1598                                                             
1                               Ordinary Symbol and Literal Cross Reference                                     Page   89            
-Symbol   Length   Value     Id    R Type Asm  Program   Defn References                     HLASM R6.0  2012/03/05 10.22            
0PARMSGT3     37 00000EB4 00000001     C  C              1599 1280  1600                                                             
 PARMSLT2     42 00000F01 00000001     C  C              1603 1279  1605                                                             
 PPANL0111                                                                                                                           
               2 00001226 00000001     R  A              1787 1732                                                                   
 PPA2M0111                                                                                                                           
               4 00001264 00000001     A  A              1818 1790  1797                                                             
 PPA20111      4 00001254 00000001     F  F              1810 1751  1817                                                             
 PRINT         2 000007E2 00000001     H  H              1126 1206B                                                                  
 PRNTABLE      1 00000CE8 00000001     X  X              1320 1321  1323  1325  1327  1329  1331  1333  1335  1337  1339  1341  1343 
                                                              1345  1347  1349  1351  1353  1355  1357  1359  1361  1363  1365  1367 
                                                              1369  1371  1374  1376  1378  1380  1382  1384  1386  1388  1390  1392 
                                                              1394  1396  1398  1400  1402  1404  1406  1408  1410  1412  1414  1416 
                                                              1418  1420  1422  1424  1427  1429  1431  1433  1435  1437  1439  1441 
                                                              1443  1445  1448  1450  1452  1454  1456  1458  1460  1462  1464  1466 
                                                              1468  1470  1472  1474  1476  1479  1481  1483  1485  1487  1489  1491 
                                                              1493  1495  1497  1499  1501  1503  1505  1507  1509  1511  1627  1637 
                                                              1650  1666  1681  1704                                                 
 QNAME         8 00000220 FFFFFFFF     C  C              1993  893M  940   951  1024  1296M 1995  1997                               
 QNAME@        4 00000080 FFFFFFFF     A  A              1933  599M  599   600   601   602   620   622M  845   884M  890             
 QNAMEL        4 00000084 FFFFFFFF     F  F              1934  600M  623M  879   886M                                                
 QNAMEX        8 00000327 FFFFFFFF     C  C              1995  948  1129                                                             
 REASON_CODE                                                                                                                         
               4 00000184 FFFFFFFF     A  A              1985  829   997  1201                                                       
 RETCODE       4 00000158 FFFFFFFF     A  A              1950  651   731   765   870   924  1091  1263                               
 RETURN_CODE                                                                                                                         
               4 00000178 FFFFFFFF     F  F              1982  512   737M  737   827   995  1036M 1048M 1048  1199  1209M            
 RETURN_STRUC                                                                                                                        
               1 00000000 FFFFFFF0     J                 3914 1113U                                                                  
 RETURN_VALUE                                                                                                                        
               4 00000180 FFFFFFFF     A  A              1984  825   993  1197                                                       
 RETURN@       4 000000B0 FFFFFFFF     A  A              1943 1013M 1032  1054  1098  1111                                           
 RETVAL        4 00000154 FFFFFFFF     A  A              1949  649   729   763   868   922  1089  1261                               
 RLENOK        2 000005A8 00000001     H  H               932  900B                                                                  
 RNAME       255 00000228 FFFFFFFF     C  C              1994  964  1026  1297M 1298M 1996                                           
 RNAME_LEN                                                                                                                           
               4 00000214 FFFFFFFF     F  F              1990  934M  942   963  1028                                                 
 RNAME@        4 00000088 FFFFFFFF     A  A              1935  602M  618   622   625M  625   626   837M  846   898                   
 RNAMEL        4 0000008C FFFFFFFF     F  F              1936  601M  623   626M  836M  896                                           
 RNAMEX      255 00000357 FFFFFFFF     C  C              1996  961  1164                                                             
 RSNCODE       4 0000015C FFFFFFFF     A  A              1951  653   733   767   872   926  1093  1265                               
 RTN_ASID      2 00000038 FFFFFFF0     H  H              3929 1159                                                                   
 RTN_EXCSHR                                                                                                                          
               8 0000001C FFFFFFF0     C  C              3919 1142                                                                   
 RTN_JOBNAME                                                                                                                         
               8 00000008 FFFFFFF0     C  C              3916 1139                                                                   
 RTN_NEXT      1 00000139 FFFFFFF0     U                 3931 1205                                                                   
 RTN_QNAME                                                                                                                           
               8 00000000 FFFFFFF0     C  C              3915 1132  3932                                                             
 RTN_RLEN      4 00000010 FFFFFFF0     F  F              3917 1166                                                                   
 RTN_RNAME                                                                                                                           
             255 0000003A FFFFFFF0     C  C              3930 1167                                                                   
 RTN_SCOPE                                                                                                                           
               8 0000002C FFFFFFF0     C  C              3924 1151                                                                   
 RTN_STATUS                                                                                                                          
               8 00000024 FFFFFFF0     C  C              3923 1148                                                                   
1                               Ordinary Symbol and Literal Cross Reference                                     Page   90            
-Symbol   Length   Value     Id    R Type Asm  Program   Defn References                     HLASM R6.0  2012/03/05 10.22            
0RTN_SYSNAME                                                                                                                         
               8 00000014 FFFFFFF0     C  C              3918 1145                                                                   
 RTN_TCB       4 00000034 FFFFFFF0     A  A              3928 1154                                                                   
 R0_32         1 00000000 FFFFFFF0 A   U  GR32           3967  573   584   586M  587   588M  589   796M  798   802M  803   804M  805 
                                                               845M  883M  884   885M  886   888   958M  960   970M  971   972M  973 
                                                              1041  1114M 1116  1117  1118  1119  1120  1121  1122  1123  1124M 1125 
                                                              1134M 1141  1144  1147  1150  1153  1158  1169M 1628M 1628  1651M 1651 
                                                              1682M 1682                                                             
 R1            1 00000001 FFFFFFF0 A   U  GR             3936 1100                                                                   
 R1_32         1 00000001 FFFFFFF0 A   U  GR32           3968  533   537M  633M  680M  681   713M  738M  739M  739   740   747M  797M
                                                               798   802M  803   806M  852M  906M  959M  960   970M  971   974M 1013 
                                                              1014  1015M 1052M 1073M 1098M 1115M 1116  1117  1118  1119  1120  1121 
                                                              1122  1123  1124M 1125  1139M 1140  1142M 1143  1145M 1146  1148M 1149 
                                                              1151M 1152  1156M 1157  1161M 1162  1178M 1227M 1245M 1627M 1637M 1650M
                                                              1660M 1661U 1663D 1666M 1681M 1704M                                    
 R10_32        1 0000000A FFFFFFF0 A   U  GR32           3977  951M  964M 1132M 1167M 1173M 1176  1629M 1635M 1635  1652M 1659  1664M
                                                              1664  1683M 1689  1702M 1702                                           
 R11_32        1 0000000B FFFFFFF0 A   U  GR32           3978  503M  504U  509M  530D  531M  532U 1620D                              
 R12_32        1 0000000C FFFFFFF0 A   U  GR32           3979  505U 1625  1643M 1648  1672M 1679  1710M                              
 R13_32        1 0000000D FFFFFFF0 A   U  GR32           3980  506U 1625  1642  1643  1648  1671  1672  1679  1709  1710             
 R14_32        1 0000000E FFFFFFF0 A   U  GR32           3981  953M  965M 1133M 1168M 1625  1643M 1644B 1648  1672M 1673B 1679  1710M
                                                              1711B                                                                  
 R15_32        1 0000000F FFFFFFF0 A   U  GR32           3982  535M  536   538M  558M  559   632M  712M  746M  786M  787   792M  793 
                                                               807M  851M  905M  975M 1016M 1036  1037M 1037  1039  1041  1057M 1071 
                                                              1072M 1179M 1228M 1243  1244M 1622M 1623B 1646M 1647U 1677D            
 R2_32         1 00000002 FFFFFFF0 A   U  GR32           3969  591M  594   595M  595   596   605M  684   703M  841M 1004M 1054M 1055M
                                                              1055  1056  1100M 1111M 1112  1127  1225M 1226                         
 R3            1 00000003 FFFFFFF0 A   U  GR             3938 1207D                                                                  
 R3_32         1 00000003 FFFFFFF0 A   U  GR32           3970  592M  606M  606   609   686   701M  701   839M  839  1053M 1112M 1113U
                                                              1127  1205M 1658M 1658  1688M 1688  1689M 1691  1694M 1695  1698M 1699 
 R4_32         1 00000004 FFFFFFF0 A   U  GR32           3971  593M  607M  607   610   687   702M  702   840M  840  1053M            
 R5_32         1 00000005 FFFFFFF0 A   U  GR32           3972  609M  611M  611   630M  631   660   676   678M  679   686M  689M  689 
                                                               691M  691   695M  696   706   710M  711   744M  745   774   779   784 
                                                               790   800   836   849M  850   879M  888M  891M  894   896M  897M  899 
                                                               903M  904   934   935M  936   942M  943M  944                         
 R6_32         1 00000006 FFFFFFF0 A   U  GR32           3973  610M  615   662   664   666   668   670   672   680   687M  688M  688 
                                                               693   697   801   837   890M  898M 1296  1297                         
 R7_32         1 00000007 FFFFFFF0 A   U  GR32           3974  560M  590M  597M  657M  771M  833M  876M  930M  933M 1209  1210       
 R8_32         1 00000008 FFFFFFF0 A   U  GR32           3975  948M  949   954M  955   956   961M  962   966M  967   968  1129M 1130 
                                                              1135M 1136  1137  1164M 1165  1170M 1171  1174  1629M 1634  1636M 1636 
                                                              1642  1652M 1657  1659  1662  1665M 1665  1671  1683M 1690  1691  1692 
                                                              1693  1695  1696  1697  1699  1700  1701  1703M 1703  1709             
 R9_32         1 00000009 FFFFFFF0 A   U  GR32           3976  533M  534U  950M  963M 1131M 1166M 1626  1638M 1639M 1639  1649  1667M
                                                              1668M 1668  1680  1705M 1706M 1706                                     
 SPRINTF       4 00000A18 00000001     V  V              1293 1057  1228                                                             
 SPRINTF       1 00000000 00000006     T                 1293 1293                                                                   
 STDERR        4 00000A0C 00000001     F  F              1288  641   721   755   815   860   914   983  1081  1253                   
 STDOUT        4 00000A08 00000001     F  F              1287 1187                                                                   
 STORAGE_LENGTH                                                                                                                      
               4 00000A04 00000001     A  A              1286 1004  1014                                                             
 SYS           4 00000160 FFFFFFFF     F  F              1952  546   561                                                             
 SYSDSN        6 00000A80 00000001     C  C              1306  883   885                                                             
 TAB           1 00000A7E 00000001     C  C              1304  586                                                                   
 TAB@          4 00000218 FFFFFFFF     A  A              1991  587M  681M  697M  958  1114                                           
 TABL          4 0000021C FFFFFFFF     F  F              1992  589M  679M  696M  959  1115                                           
1                               Ordinary Symbol and Literal Cross Reference                                     Page   91            
-Symbol   Length   Value     Id    R Type Asm  Program   Defn References                     HLASM R6.0  2012/03/05 10.22            
0TAB1          4 00000960 FFFFFFFF     F  F              2003  799M  799   960M 1116M                                                
 TAB2          4 00000970 FFFFFFFF     F  F              2006  803M  971M 1117M                                                      
 TAB3          4 00000980 FFFFFFFF     F  F              2009 1118M                                                                  
 TAB4          4 00000990 FFFFFFFF     F  F              2012 1119M                                                                  
 TAB5          4 000009A0 FFFFFFFF     F  F              2015 1120M                                                                  
 TAB6          4 000009B0 FFFFFFFF     F  F              2018 1121M                                                                  
 TAB7          4 000009C0 FFFFFFFF     F  F              2021 1122M                                                                  
 TAB8          4 000009D0 FFFFFFFF     F  F              2024 1123M                                                                  
 TOHEX        16 00000CD6 00000001     C  C              1317 1155  1160  1662                                                       
 TOUPPER       1 00000BD6 00000001     R  A              1309 1298  1309  1310  1312  1314                                           
 TR_RNAME      6 00000A30 00000001     I                 1298  944X                                                                  
 TSTIgn        2 000002E0 00000001     H  H               700  690B  692B                                                            
 TSTNextArg                                                                                                                          
               2 000002A6 00000001     H  H               683  677B                                                                  
 =A(HELPMSG)                                                                                                                         
               4 000009E0 00000001     A                 1277  709                                                                   
 =A(IOV_STRUC_L/8)                                                                                                                   
               4 000009FC 00000001     A                 1284 1172                                                                   
 =A(NL,1)      4 000009C0 00000001     A                 1272  802   970  1124                                                       
 =A(PARMSbd4)                                                                                                                        
               4 000009E4 00000001     A                 1278  743                                                                   
 =A(PARMSGT2)                                                                                                                        
               4 000009DC 00000001     A                 1276  629                                                                   
 =A(PARMSGT3)                                                                                                                        
               4 000009EC 00000001     A                 1280  902                                                                   
 =A(PARMSLT2)                                                                                                                        
               4 000009E8 00000001     A                 1279  848                                                                   
 =A(0)         4 000009D8 00000001     A                 1275  618   620   846                                                       
 =AL1(B'00000000',(0*16),(10),B'00000011')                                                                                           
               1 000009F4 00000001     R                 1282 1104                                                                   
 =AL1(B'00000000',(0*16),(10),B'00000110')                                                                                           
               1 000009F0 00000001     R                 1281 1008                                                                   
 =C'\0x'       3 00001190 00000001     C                 1675 1657                                                                   
 =CL8' '       8 000009C8 00000001     C                 1273  893                                                                   
 =CL8'SYSDSN'                                                                                                                        
               8 000009D0 00000001     C                 1274  940                                                                   
 =F'4'         4 000009F8 00000001     F                 1283 1163                                                                   
 =V(CEETREC)                                                                                                                         
               4 000000B0 00000001     V                  528  519                                                                   
 =X'0404'      2 00000A00 00000001     X                 1285 1045                                                                   
1                                  Unreferenced Symbols Defined in CSECTs                                       Page   92            
-  Defn  Symbol                                                                              HLASM R6.0  2012/03/05 10.22            
0  1294  CEE3DMP                                                                                                                     
    895  DORNAME                                                                                                                     
    901  ERROR3                                                                                                                      
    742  ERROR4                                                                                                                      
   1588  GQPARM_PL_END                                                                                                               
   1555  GQPARM_XANSAREA_ADDR3164                                                                                                    
   1560  GQPARM_XANSAREA_ALET                                                                                                        
   1570  GQPARM_XANSDETAIL                                                                                                           
   1572  GQPARM_XANSDETAIL_FULL                                                                                                      
   1573  GQPARM_XANSDETAIL_FULL2                                                                                                     
   1574  GQPARM_XANSDETAIL_FULL3                                                                                                     
   1571  GQPARM_XANSDETAIL_SUMMARY                                                                                                   
   1563  GQPARM_XANSLEN                                                                                                              
   1568  GQPARM_XASID                                                                                                                
   1556  GQPARM_XENQTOKEN_ADDR3164                                                                                                   
   1561  GQPARM_XENQTOKEN_ALET                                                                                                       
   1535  GQPARM_XFLAGS1                                                                                                              
   1544  GQPARM_XFLAGS2                                                                                                              
   1546  GQPARM_XFLAGS3                                                                                                              
   1578  GQPARM_XGATHERFROM                                                                                                          
   1580  GQPARM_XGATHERFROM_SYSPLEX                                                                                                  
   1579  GQPARM_XGATHERFROM_SYSTEM                                                                                                   
   1552  GQPARM_XJOBNAME                                                                                                             
   1565  GQPARM_XMINOWNERS                                                                                                           
   1545  GQPARM_XMINOWNERS_NO_MINOWN                                                                                                 
   1564  GQPARM_XMINREQUESTERS                                                                                                       
   1543  GQPARM_XMINREQUESTERS_NO_MINREQ                                                                                             
   1566  GQPARM_XMINWAITERS                                                                                                          
   1547  GQPARM_XMINWAITERS_NO_MINWAIT                                                                                               
   1550  GQPARM_XQNAME                                                                                                               
   1536  GQPARM_XQNAMEMATCH_PATTERN                                                                                                  
   1521  GQPARM_XREQINFO                                                                                                             
   1524  GQPARM_XREQINFO_ENQSTATS                                                                                                    
   1523  GQPARM_XREQINFO_QSCAN                                                                                                       
   1522  GQPARM_XREQINFO_RNLSEARCH                                                                                                   
   1567  GQPARM_XREQUESTERLIMIT                                                                                                      
   1557  GQPARM_XRESUMETOKEN_ADDR3164                                                                                                
   1562  GQPARM_XRESUMETOKEN_ALET                                                                                                    
   1553  GQPARM_XRNAME_ADDR3164                                                                                                      
   1558  GQPARM_XRNAME_ALET                                                                                                          
   1569  GQPARM_XRNAMELEN                                                                                                            
   1538  GQPARM_XRNAMEMATCH_PATTERN                                                                                                  
   1537  GQPARM_XRNAMEMATCH_SPECIFIC                                                                                                 
   1581  GQPARM_XRNL                                                                                                                 
   1584  GQPARM_XRNL_RCRNL                                                                                                           
   1583  GQPARM_XRNL_SERNL                                                                                                           
   1582  GQPARM_XRNL_SIRNL                                                                                                           
   1554  GQPARM_XRNLE_ADDR3164                                                                                                       
   1559  GQPARM_XRNLE_ALET                                                                                                           
   1587  GQPARM_XRSVNNNN                                                                                                             
   1548  GQPARM_XRSV0100                                                                                                             
   1585  GQPARM_XRSV0200                                                                                                             
   1531  GQPARM_XSCANACTION                                                                                                          
   1534  GQPARM_XSCANACTION_QUIT                                                                                                     
   1533  GQPARM_XSCANACTION_RESUME                                                                                                   
1                                  Unreferenced Symbols Defined in CSECTs                                       Page   93            
-  Defn  Symbol                                                                              HLASM R6.0  2012/03/05 10.22            
0  1532  GQPARM_XSCANACTION_START                                                                                                    
   1525  GQPARM_XSCOPE                                                                                                               
   1526  GQPARM_XSCOPE_ANY                                                                                                           
   1527  GQPARM_XSCOPE_STEP                                                                                                          
   1530  GQPARM_XSCOPE_SYSPLEX                                                                                                       
   1528  GQPARM_XSCOPE_SYSTEM                                                                                                        
   1529  GQPARM_XSCOPE_SYSTEMS                                                                                                       
   1575  GQPARM_XSEARCH                                                                                                              
   1577  GQPARM_XSEARCH_BY_ENQTOKEN                                                                                                  
   1576  GQPARM_XSEARCH_BY_FILTER                                                                                                    
   1540  GQPARM_XSERIALIZEBY_ENQ_ONLY                                                                                                
   1539  GQPARM_XSERIALIZEBY_RESERVE                                                                                                 
   1551  GQPARM_XSYSNAME                                                                                                             
   1549  GQPARM_XTTOKEN                                                                                                              
   1586  GQPARM_XUSERDATALEN                                                                                                         
   1542  GQPARM_XUSERDATAMATCH_PATTERN                                                                                               
   1541  GQPARM_XUSERDATAMATCH_SPECIFIC                                                                                              
   1520  GQPARM_XVERSION                                                                                                             
   1518  M00M0110                                                                                                                    
   1308  OPTIONS                                                                                                                     
   1730  PPA10111                                                                                                                    
   1815  PPA2S0111                                                                                                                   
   1307  TITLE                                                                                                                       
1                                          Macro and Copy Code Source Summary                                   Page   94            
- Con Source                                        Volume    Members                        HLASM R6.0  2012/03/05 10.22            
0     PRIMARY INPUT                                           B        BAL      BAS      BC       BCT      BE       BH               
                                                              BL       BM       BNE      BNH      BNL      BNM      BNO              
                                                              BNP      BNZ      BO       BP       BXH      BXLE     BZ               
   L1 /home/tsh009/utilities-1                                PRNTABLE                                                               
   L2 CEE.SCEEMAC                                   I17RS3    CEECAA   CEEDNUT  CEEDSA   CEEENTRY CEEPPA   CEETERM                   
   L3 SYS1.MACLIB                                   I17RS2    BPXYCONS BPXYIOV  CALL     IEABRC   IEABRCX  IHBINNRR                  
                                                              IHBOPLTX ISGQUERY ISGYCON  ISGYQUAA LOAD     STORAGE                   
                                                              SYSSTATE WTO                                                           
   L4 SYS1.MODGEN                                   I17RS1    ISGRNLE                                                                
1                                                Dsect Cross Reference                                          Page   95            
-Dsect     Length      Id       Defn                                                         HLASM R6.0  2012/03/05 10.22            
0CEECAA   000003F8  FFFFFFFB    2490                                                                                                 
 CEEDSA   000009E9  FFFFFFFF    1843                                                                                                 
 CEEDSAHP 00000840  FFFFFFFE    1893                                                                                                 
 DIRECTEDLOADRETURNEDPARMS                                                                                                           
          00000018  FFFFFFFD    2423                                                                                                 
 IOV      00000008  FFFFFFFC    2471                                                                                                 
 ISGYQUAAHDR                                                                                                                         
          00000028  FFFFFFFA    3040                                                                                                 
 ISGYQUAARQ                                                                                                                          
          00000040  FFFFFFF7    3148                                                                                                 
 ISGYQUAARQX                                                                                                                         
          00000088  FFFFFFF6    3190                                                                                                 
 ISGYQUAARS                                                                                                                          
          00000050  FFFFFFF9    3073                                                                                                 
 ISGYQUAARSX                                                                                                                         
          00000030  FFFFFFF8    3123                                                                                                 
 ISGYQUAASP                                                                                                                          
          00000010  FFFFFFF4    3296                                                                                                 
 ISGYQUAASYS                                                                                                                         
          00000028  FFFFFFF5    3260                                                                                                 
 PARMS    00000018  FFFFFFF1    3907                                                                                                 
 RETURN_STRUC                                                                                                                        
          00000139  FFFFFFF0    3914                                                                                                 
 RNL_HEADDR                                                                                                                          
          0000000C  FFFFFFF2    3904                                                                                                 
 RNLE     0000000A  FFFFFFF3    3885                                                                                                 
1                                                      Using Map                                                Page   96            
-                                                                                            HLASM R6.0  2012/03/05 10.22            
   Stmt  -----Location----- Action ----------------Using----------------- Reg Max     Last Label and Using Text                      
           Count      Id           Type          Value    Range     Id        Disp    Stmt                                           
0   459  00000000  00000001 PUSH                                                                                                     
    460  00000000  00000001 DROP                                           **                                                        
    461  00000000  00000001 USING  ORDINARY    00000000 00001000 00000001  15 00054    475 *,15                                      
    476  00000020  00000001 DROP                                           15              15                                        
    499  0000006C  00000001 POP                                                                                                      
    500  0000006C  00000001 USING  ORDINARY    00000000 00001000 FFFFFFFF  13 00048    501 CEEDSA,13                                 
    504  0000007A  00000001 USING  ORDINARY    00000000 00001000 00000001  11 000B0    519 LSENQ,R11_32                              
    505  0000007A  00000001 USING  ORDINARY    00000000 00001000 FFFFFFFB  12 00000        CEECAA,R12_32                             
    506  0000007A  00000001 USING  ORDINARY    00000000 00001000 FFFFFFFF  13 009E8   1622 CEEDSA,R13_32                             
    530  000000B4  00000001 DROP                                           11              R11_32                                    
    532  000000BA  00000001 USING  ORDINARY    000009C0 00001000 00000001  11 00428   1298 CONSTANTS,R11_32                          
    534  000000BC  00000001 USING  ORDINARY    00000000 00001000 FFFFFFF1   9 00008    738 PARMS,R9_32                               
   1113  000007B2  00000001 USING  ORDINARY    00000000 00001000 FFFFFFF0   3 00139   1205 RETURN_STRUC,R3_32                        
   1207  00000914  00000001 DROP                                            3              R3                                        
   1619  000010F0  00000001 PUSH                                                                                                     
   1620  000010F0  00000001 DROP                                           11              R11_32                                    
   1647  00001138  00000001 USING  ORDINARY    00001138 0000005C 00000001  15 00058   1657 (*,E_DO_HEX),R15_32                       
   1661  00001168  00000001 USING  ORDINARY    000009C0 00000730 00000001   1 00226   1662 (CONSTANTS,E_CONSTANTS),R1_32             
   1663  0000116E  00000001 DROP                                            1              R1_32                                     
   1677  00001194  00000001 DROP                                           15              R15_32                                    
   1712  00001206  00000001 POP                                                                                                      
1                                   General Purpose Register Cross Reference                                    Page   97            
- Register  References (M=modified, B=branch, U=USING, D=DROP, N=index)                      HLASM R6.0  2012/03/05 10.22            
0    0(0)     473   482M  483M  484M  485   495   546M  547   548M  549   550M  551   552M  553   554M  555   570M  573   581M  584  
              586M  587   588M  589   641M  642   643M  644   645M  646   647M  648   649M  650   651M  652   653M  654   721M  722  
              723M  724   725M  726   727M  728   729M  730   731M  732   733M  734   755M  756   757M  758   759M  760   761M  762  
              763M  764   765M  766   767M  768   796M  798   802M  803   804M  805   815M  816   817M  818   819M  820   821M  822  
              823M  824   825M  826   827M  828   829M  830   845M  860M  861   862M  863   864M  865   866M  867   868M  869   870M 
              871   872M  873   883M  884   885M  886   888   914M  915   916M  917   918M  919   920M  921   922M  923   924M  925  
              926M  927   958M  960   970M  971   972M  973   983M  984   985M  986   987M  988   989M  990   991M  992   993M  994  
              995M  996   997M  998  1007M 1024M 1025  1026M 1027  1028M 1029  1030M 1031  1032M 1033  1041  1066M 1067  1081M 1082  
             1083M 1084  1085M 1086  1087M 1088  1089M 1090  1091M 1092  1093M 1094  1103M 1114M 1116  1117  1118  1119  1120  1121  
             1122  1123  1124M 1125  1134M 1141  1144  1147  1150  1153  1158  1169M 1187M 1188  1189M 1190  1191M 1192  1193M 1194  
             1195M 1196  1197M 1198  1199M 1200  1201M 1202  1239M 1240  1253M 1254  1255M 1256  1257M 1258  1259M 1260  1261M 1262  
             1263M 1264  1265M 1266  1625  1628M 1628  1629  1643M 1648  1651M 1651  1652  1672M 1679  1682M 1682  1683  1710M       
     1(1)     473   478   481M  484   489M  494   495   496   496   497   498   502M  513M  514   515M  515   516   518M  533   537M 
              547   549   551   553   555   556   571M  571   582M  582   633M  642   644   646   648   650   652   654   655   680M 
              681   713M  722   724   726   728   730   732   734   735   738M  739M  739   740   747M  756   758   760   762   764  
              766   768   769   797M  798   802M  803   806M  816   818   820   822   824   826   828   830   831   852M  861   863  
              865   867   869   871   873   874   906M  915   917   919   921   923   925   927   928   959M  960   970M  971   974M 
              984   986   988   990   992   994   996   998   999  1013  1014  1015M 1025  1027  1029  1031  1033  1034  1052M 1065  
             1067  1068  1069  1073M 1082  1084  1086  1088  1090  1092  1094  1095  1098M 1100  1115M 1116  1117  1118  1119  1120  
             1121  1122  1123  1124M 1125  1139M 1140  1142M 1143  1145M 1146  1148M 1149  1151M 1152  1156M 1157  1161M 1162  1178M 
             1188  1190  1192  1194  1196  1198  1200  1202  1203  1216M 1227M 1238  1240  1241  1245M 1254  1256  1258  1260  1262  
             1264  1266  1267  1625  1627M 1629  1637M 1643M 1648  1650M 1652  1660M 1661U 1663D 1666M 1672M 1679  1681M 1683  1704M 
             1710M                                                                                                                   
     2(2)     473   474M  478M  502   591M  594   595M  595   596   605M  684   703M  841M 1004M 1007  1054M 1055M 1055  1056  1065  
             1100M 1103  1111M 1112  1127  1225M 1226  1238  1625  1643M 1648  1672M 1679  1710M                                     
     3(3)     473   592M  606M  606   609   686   701M  701   839M  839  1012M 1053M 1068  1108M 1112M 1113U 1127  1205M 1207D 1625  
             1643M 1648  1658M 1658  1672M 1679  1688M 1688  1689M 1691  1694M 1695  1698M 1699  1710M                               
     4(4)     473   593M  607M  607   610   687   702M  702   840M  840  1012M 1053M 1069  1108M 1625  1643M 1648  1672M 1679  1710M 
     5(5)     473   609M  611M  611   630M  631   660   676   678M  679   686M  689M  689   691M  691   695M  696   706   710M  711  
              744M  745   774   779   784   790   800   836   849M  850   879M  888M  891M  894   896M  897M  899   903M  904   934  
              935M  936   942M  943M  944  1625  1643M 1648  1672M 1679  1710M                                                       
     6(6)     473   610M  615   662   664   666   668   670   672   680   687M  688M  688   693   697   801   837   890M  898M 1296  
             1297  1625  1643M 1648  1672M 1679  1710M                                                                               
     7(7)     473   560M  590M  597M  657M  771M  833M  876M  930M  933M 1209  1210  1241  1625  1643M 1648  1672M 1679  1710M       
     8(8)     473   948M  949   954M  955   956   961M  962   966M  967   968  1129M 1130  1135M 1136  1137  1164M 1165  1170M 1171  
             1174  1625  1629M 1634  1636M 1636  1642  1643M 1648  1652M 1657  1659  1662  1665M 1665  1671  1672M 1679  1683M 1690  
             1691  1692  1693  1695  1696  1697  1699  1700  1701  1703M 1703  1709  1710M                                           
     9(9)     473   533M  534U  950M  963M 1131M 1166M 1625  1626  1629M 1638M 1639M 1639  1643M 1648  1649  1652M 1667M 1668M 1668  
             1672M 1679  1680  1683M 1705M 1706M 1706  1710M                                                                         
    10(A)     473   951M  964M 1132M 1167M 1173M 1176  1625  1629M 1635M 1635  1643M 1648  1652M 1659  1664M 1664  1672M 1679  1683M 
             1689  1702M 1702  1710M                                                                                                 
    11(B)     473   503M  504U  509M  530D  531M  532U 1620D 1625  1643M 1648  1672M 1679  1710M                                     
    12(C)     473   479   485   487   501   505U 1625  1643M 1648  1672M 1679  1710M                                                 
    13(D)     473   481   494   497   498M  500U  506U 1625  1642  1643  1648  1671  1672  1679  1709  1710                          
    14(E)     473   477M  479M  480   488M  520M  557M  656M  736M  770M  832M  875M  929M  953M  965M 1000M 1009M 1010M 1010N 1011M 
             1011N 1012  1012M 1035M 1070M 1096M 1105M 1106M 1106N 1107M 1107N 1108  1108M 1133M 1168M 1204M 1242M 1268M 1625  1643M 
             1644B 1648  1672M 1673B 1679  1710M 1711B                                                                               
    15(F)     461U  471   473   475M  476D  477B  487M  488B  489   519M  520B  535M  536   538M  557B  558M  559   566M  570   577M 
              581   632M  656B  712M  736B  746M  770B  786M  787   792M  793   807M  832B  851M  875B  905M  929B  975M 1000B 1008M 
             1016M 1035B 1036  1037M 1037  1039  1041  1057M 1070B 1071  1072M 1096B 1104M 1179M 1204B 1228M 1242B 1243  1244M 1268B 
             1622M 1623B 1625  1643M 1646M 1647U 1648  1672M 1677D 1679  1710M                                                       
1                                  Diagnostic Cross Reference and Assembler Summary                             Page   98            
-                                                                                            HLASM R6.0  2012/03/05 10.22            
0     No Statements Flagged in this Assembly                                                                                         
 HIGH LEVEL ASSEMBLER, 5696-234, RELEASE 6.0, PTF UK67595                                                                            
0SYSTEM: z/OS 01.12.00              JOBNAME: TSH0098     STEPNAME: STEP1      PROCSTEP: (NOPROC)                                     
0Data Sets Allocated for this Assembly                                                                                               
  Con DDname   Data Set Name                                Volume  Member                                                           
   P1 SYSIN    /home/tsh009/utilities-1/lsenq.s                                                                                      
   L1 SYSLIB   /home/tsh009/utilities-1                                                                                              
   L2          CEE.SCEEMAC                                  I17RS3                                                                   
   L3          SYS1.MACLIB                                  I17RS2                                                                   
   L4          SYS1.MODGEN                                  I17RS1                                                                   
      SYSADATA /home/tsh009/utilities-1/lsenq.ad                                                                                     
      SYSLIN   /home/tsh009/utilities-1/lsenq.o                                                                                      
      SYSPRINT /home/tsh009/utilities-1/lsenq.listing                                                                                
      SYSTERM  /dev/fd2                                                                                                              
                                                                                                                                     
 Input/Output Exit Statistics                                                                                                        
 Exit Type  Name      Calls  ---Records---  Diagnostic                                                                               
                             Added Deleted  Messages                                                                                 
 LIBRARY    FLOWASM   18489      0       0        0                                                                                  
 LISTING    FLOWASM    5279      0       0        0                                                                                  
 SOURCE     FLOWASM     976      0       0        0                                                                                  
                                                                                                                                     
 1890636K allocated to Buffer Pool       Storage required    2216K                                                                   
     974 Primary Input Records Read        18442 Library Records Read                  0 Work File Reads                             
       0 ASMAOPT Records Read               5277 Primary Print Records Written         0 Work File Writes                            
     139 Object Records Written             7446 ADATA Records Written                                                               
0Assembly Start Time: 10.22.46 Stop Time: 10.22.47 Processor Time: 00.00.00.3825                                                     
 Return Code 000                                                                                                                     
