1                                         High Level Assembler Option Summary                   (PTF UK67595)   Page    1            
-                                                                                            HLASM R6.0  2012/02/10 10.07            
0  No Overriding ASMAOPT Parameters                                                                                                  
   Overriding Parameters-  OBJECT,LIST(MAX),TERM,ASA,ADATA,ADATA                                                                     
   No Process Statements                                                                                                             
                                                                                                                                     
                                                                                                                                     
   Options for this Assembly                                                                                                         
03   ADATA                                                                                                                           
     ALIGN                                                                                                                           
 3   ASA                                                                                                                             
     BATCH                                                                                                                           
     CODEPAGE(047C)                                                                                                                  
   NOCOMPAT                                                                                                                          
   NODBCS                                                                                                                            
   NODECK                                                                                                                            
     DXREF                                                                                                                           
     ESD                                                                                                                             
   NOEXIT                                                                                                                            
     FLAG(0,ALIGN,CONT,EXLITW,NOIMPLEN,NOPAGE0,PUSH,RECORD,NOSUBSTR,USING0)                                                          
   NOFOLD                                                                                                                            
   NOGOFF                                                                                                                            
   NOINFO                                                                                                                            
     LANGUAGE(EN)                                                                                                                    
   NOLIBMAC                                                                                                                          
     LINECOUNT(60)                                                                                                                   
 3   LIST(MAX)                                                                                                                       
     MACHINE(,NOLIST)                                                                                                                
     MXREF(SOURCE)                                                                                                                   
 3   OBJECT                                                                                                                          
     OPTABLE(UNI,NOLIST)                                                                                                             
   NOPCONTROL                                                                                                                        
   NOPESTOP                                                                                                                          
   NOPROFILE                                                                                                                         
   NORA2                                                                                                                             
   NORENT                                                                                                                            
     RLD                                                                                                                             
     RXREF                                                                                                                           
     SECTALGN(8)                                                                                                                     
     SIZE(MAX)                                                                                                                       
   NOSUPRWARN                                                                                                                        
     SYSPARM()                                                                                                                       
 3   TERM(WIDE)                                                                                                                      
   NOTEST                                                                                                                            
     THREAD                                                                                                                          
   NOTRANSLATE                                                                                                                       
     TYPECHECK(MAGNITUDE,REGISTER)                                                                                                   
     USING(NOLIMIT,MAP,WARN(15))                                                                                                     
   NOWORKFILE                                                                                                                        
     XREF(SHORT,UNREFS)                                                                                                              
                                                                                                                                     
   Standard   DD Names- SYSLIN   SYSLIB   SYSIN    SYSPRINT SYSPUNCH SYSUT1   SYSTERM  SYSADATA ASMAOPT                              
   Overriding DD Names- SYS00014 SYS00004 SYS00012 SYS00013                   SYS00011 SYS00015                                      
1QUERYSMS                                      External Symbol Dictionary                                       Page    2            
-Symbol   Type   Id     Address  Length   Owner Id Flags Alias-of                            HLASM R6.0  2012/02/10 10.07            
0QUERYSMS  SD 00000001 00000000 000005DB             06                                                                              
1QUERYSMS REXX FUNCTION - QUERY SMS                                                                             Page    3            
   Active Usings: None                                                                                                               
0  Loc    Object Code      Addr1    Addr2    Stmt  Source Statement                          HLASM R6.0  2012/02/10 10.07            
0                                               2 &MAXVOLS SETA      2000 /* MAX DASD SMS VOLUMES IN THE SYSTEM */                   
                                                3 ***********************************************************************            
                                                4 *                 MODULE NAME = QUERYSMS                              *            
                                                5 *             DESCRIPTIVE NAME =  REXX FUNCTION TO QUERY SMS THROW SSI*            
                                                6 *             AUTHOR = SALVADOR CARRASCO                              *            
                                                7 *                 FUNCTION =                                          *            
                                                8 *                arg(1)='SGV' - return a list of volumes associated   *            
                                                9 *                               the storage group arg(2)              *            
                                               10 *                       'VSG' - return the storage group associated   *            
                                               11 *                               the volume arg(2)                     *            
                                               12 *                       'VOL' - return arg(2) volume definition       *            
                                               13 *                       'AVL' - return the list of all volumes        *            
                                               14 *                       'SGL' - return the list of storage groups     *            
                                               15 *             RESTRICTIONS = NONE                                     *            
                                               16 *             REGISTER CONVENTIONS = STANDARD CONVENTIONS.            *            
                                               17 *             ATTRIBUTES = KEY NZ, PROBLEM STATE, ENABLED, NO LOCKS   *            
                                               18 *             ENTRY POINTS = QUERYSMS (ONLY ENTRY POINT)              *            
                                               19 *             INPUT = REG0 POINTS TO REXX ENVBLOCK                    *            
                                               20 *                     REG1 POINTS TO REXX ARGTABLE                    *            
                                               21 *             EXIT - NORMAL = AT PROGRAM END VIA BR 14                *            
                                               22 *             OUTPUT = DATA IN REXX STACK                             *            
                                               23 *                      RETURN CODE = 1                                *            
                                               24 *             EXIT - ERROR = AT PROGRAM END VIA BR 14                 *            
                                               25 *             OUTPUT = ERROR MSG TO IRXSAY                            *            
                                               26 *                      RETURN CODE = 16                               *            
                                               27 *             EXTERNAL REFERENCES =                                   *            
                                               28 *                CONTROL BLOCKS = VARIOUS MVS/SMS.                    *            
                                               29 *                                 SEE BOTTOM OF CODE.                 *            
                                               30 ***********************************************************************            
 00000000                00000000 000005DB     31 QUERYSMS CSECT                                                                     
                                               32 QUERYSMS AMODE 31                                                                  
                                               33 QUERYSMS RMODE ANY                                                                 
                                               34          YREGS                         STD REGISTER EQUATES                        
0                        00000000              36+R0       EQU   0                                                        01-YREGS   
                         00000001              37+R1       EQU   1                                                        01-YREGS   
                         00000002              38+R2       EQU   2                                                        01-YREGS   
                         00000003              39+R3       EQU   3                                                        01-YREGS   
                         00000004              40+R4       EQU   4                                                        01-YREGS   
                         00000005              41+R5       EQU   5                                                        01-YREGS   
                         00000006              42+R6       EQU   6                                                        01-YREGS   
                         00000007              43+R7       EQU   7                                                        01-YREGS   
                         00000008              44+R8       EQU   8                                                        01-YREGS   
                         00000009              45+R9       EQU   9                                                        01-YREGS   
                         0000000A              46+R10      EQU   10                                                       01-YREGS   
                         0000000B              47+R11      EQU   11                                                       01-YREGS   
                         0000000C              48+R12      EQU   12                                                       01-YREGS   
                         0000000D              49+R13      EQU   13                                                       01-YREGS   
                         0000000E              50+R14      EQU   14                                                       01-YREGS   
                         0000000F              51+R15      EQU   15                                                       01-YREGS   
0                                              53 * ADDRESSING                                                                       
                                               54          SAVE  (14,12),,*              SAVE PREVIOUS                               
 00000000 47F0 F00E               0000000E     56+         B     14(0,15)                          BRANCH AROUND ID       01-SAVE    
 00000004 08                                   57+         DC    AL1(8)                                                   01-SAVE    
1QUERYSMS REXX FUNCTION - QUERY SMS                                                                             Page    4            
   Active Usings: None                                                                                                               
0  Loc    Object Code      Addr1    Addr2    Stmt  Source Statement                          HLASM R6.0  2012/02/10 10.07            
000000005 D8E4C5D9E8E2D4E2                     58+         DC    CL8'QUERYSMS'                     IDENTIFIER             01-SAVE    
 0000000D 00                                     +                                                                                   
 0000000E 90EC D00C               0000000C     59+         STM   14,12,12(13)                      SAVE REGISTERS         01-SAVE    
 00000012 18CF                                 60          LR    R12,R15                 BASE REG                                    
                     R:C 00000000              61          USING QUERYSMS,R12            =BASE REGISTER     =                        
 00000014 18B0                                 62          LR    R11,R0                  REXX ENVBLOCK ADD.                          
 00000016 18A1                                 63          LR    R10,R1                  REXX EFPL ADD.                              
                                               64          GETMAIN RU,LV=LDATA,LOC=BELOW GET WORK AREA                               
 00000018                                      66+         CNOP  0,4                                                      01-GETMAIN 
 00000018 47F0 C024               00000024     67+         B     IHB0004C           BRANCH AROUND DATA                    01-GETMAIN 
 0000001C 0000015C                             68+IHB0004L DC    A(LDATA)           LENGTH                                01-GETMAIN 
 00000020 00                                   69+IHB0004F DC    BL1'00000000'                         Flags.        @L7C 01-GETMAIN 
 00000021 00                                   70+         DC    AL1(0)             RESERVED                              01-GETMAIN 
 00000022 00                                   71+         DC    AL1(0)             SUBPOOL                               01-GETMAIN 
 00000023 12                                   72+         DC    BL1'00010010'                 MODE BYTE         @G860P30 01-GETMAIN 
 00000024                                      73+IHB0004C DS     0H                                                      01-GETMAIN 
 00000024 5800 C01C               0000001C     74+         L     0,IHB0004L         LOAD LENGTH                           01-GETMAIN 
 00000028 58F0 C020               00000020     75+         L     15,IHB0004F                       LOAD GETMAIN PARMS     01-GETMAIN 
 0000002C 1B11                                 76+         SR    1,1                     ZERO RESERVED REG 1              01-GETMAIN 
 0000002E 0A78                                 77+         SVC   120                     ISSUE GETMAIN SVC                01-GETMAIN 
 00000030 18FD                                 78          LR    R15,R13                 PREVIOUS SAVEAREA                           
 00000032 18D1                                 79          LR    R13,R1                  NEW SAVEAREA/WORK AREA                      
 00000034 50F0 D004               00000004     80          ST    R15,4(,R13)             SAVE OLD SAVEAREA                           
 00000038 50DF 0008               00000008     81          ST    R13,8(R15)              SAVE NEW SAVEAREA                           
                     R:D 00000000              82          USING DATA,R13                =SAVEAREA+WORK AREA=                        
                     R:B 00000000              83          USING ENVBLOCK,R11            =REXX ENV BLOCK    =                        
                     R:A 00000000              84          USING EFPL,R10                =REXX EFPL         =                        
                     R:9 00000000              85          USING EVALBLOCK,R9            =REXX EVALBLOCK    =                        
                     R:8 00000000              86          USING ARGTABLE_ENTRY,R8       =REXX ARG TABLE    =                        
 0000003C 5890 A014               00000014     87          L     R9,EFPLEVAL             USE DEFAULT EVALBLOCK                       
 00000040 5890 9000               00000000     88          L     R9,0(,R9)               ADDRESS IT                                  
 00000044 5880 A010               00000010     89          L     R8,EFPLARG              FIRST ARG                                   
                                               90 * GET AND VERIFY PARM                                                              
 00000048 D702 D098 D098 00000098 00000098     91          XC    PARM1,PARM1             CLEAR PARM1                                 
 0000004E D21D D09B C5A4 0000009B 000005A4     92          MVC   PARM2,=CL30' '          CLEAR PARM2                                 
 00000054 5810 8000               00000000     93          L     R1,ARGTABLE_ARGSTRING_PTR  GET FIRST ARG ADD                        
 00000058 1211                                 94          LTR   R1,R1                   TEST                                        
 0000005A 4740 C162               00000162     95          BM    EXITNOK                 NO PARM -> ERROR                            
 0000005E 5820 8004               00000004     96          L     R2,ARGTABLE_ARGSTRING_LENGTH GET LENGTH OF ARG                      
                                               97 *        C     R2,=F'3'                LENGTH = 3 ?                                
 00000062 A72E 0003               00000003     98          CHI   R2,3                    LENGTH = 3 ?                                
 00000066 4770 C162               00000162     99          BNE   EXITNOK                 NO -> EXIT NO OK                            
 0000006A 0620                                100          BCTR  R2,0                    LEN=LEN-1                                   
 0000006C 4420 C0E0               000000E0    101          EX    R2,COPYPAR1             EXECUTE MOVE                                
 00000070 4180 8008               00000008    102          LA    R8,ARGTABLE_NEXT        POINT TO NEXT ARG                           
 00000074 5810 8000               00000000    103          L     R1,ARGTABLE_ARGSTRING_PTR GET ARG ADD                               
 00000078 1211                                104          LTR   R1,R1                   TEST                                        
 0000007A 4740 C094               00000094    105          BM    CHECKP1                 NO PARM2 -> SKIP                            
 0000007E 5820 8004               00000004    106          L     R2,ARGTABLE_ARGSTRING_LENGTH GET LENGTH OF ARG                      
                                              107 *        C     R2,=F'30'               LENGTH <= 30 ?                              
 00000082 A72E 001E               0000001E    108          CHI   R2,30   '               LENGTH <= 30 ?                              
 00000086 4720 C162               00000162    109          BH    EXITNOK                 NO -> EXIT NO OK                            
 0000008A 4020 D0BA               000000BA    110          STH   R2,PARM2L               SAVE LENGTH                                 
 0000008E 0620                                111          BCTR  R2,0                    LEN=LEN-1                                   
 00000090 4420 C0E6               000000E6    112          EX    R2,COPYPAR2             EXECUTE MOVE                                
1QUERYSMS REXX FUNCTION - QUERY SMS                                                                             Page    5            
   Active Usings: ARGTABLE_ENTRY,R8  EVALBLOCK,R9  EFPL,R10  ENVBLOCK,R11  QUERYSMS,R12  DATA,R13                                    
0  Loc    Object Code      Addr1    Addr2    Stmt  Source Statement                          HLASM R6.0  2012/02/10 10.07            
0                        00000094             113 CHECKP1  EQU   *                                                                   
 00000094 92E5 D0BC      000000BC             114          MVI   TYPE,C'V'               VLD PROCESS                                 
 00000098 D502 D098 C5CC 00000098 000005CC    115          CLC   PARM1,=C'VOL'           ARG(1) = 'VOL' ?                            
 0000009E 4780 C0D2               000000D2    116          BE    CHECKP2                 YES, CHECK ARG(2)                           
 000000A2 D502 D098 C5CF 00000098 000005CF    117          CLC   PARM1,=C'AVL'           ARG(1) = 'AVL' ?                            
 000000A8 4780 C0EC               000000EC    118          BE    MAIN                    YES, PROCEED                                
 000000AC D502 D098 C5D2 00000098 000005D2    119          CLC   PARM1,=C'SGV'           ARG(1) = 'SGV' ?                            
 000000B2 4780 C0D2               000000D2    120          BE    CHECKP2                 YES, PROCEED                                
 000000B6 92E2 D0BC      000000BC             121          MVI   TYPE,C'S'               SGD PROCESS                                 
 000000BA D502 D098 C5D5 00000098 000005D5    122          CLC   PARM1,=C'VSG'           ARG(1) = 'VSG' ?                            
 000000C0 4780 C0D2               000000D2    123          BE    CHECKP2                 YES, PROCEED                                
 000000C4 D502 D098 C5D8 00000098 000005D8    124          CLC   PARM1,=C'SGL'           ARG(1) = 'SGL' ?                            
 000000CA 4780 C0EC               000000EC    125          BE    MAIN                    YES, PROCEED                                
 000000CE 47F0 C162               00000162    126          B     EXITNOK                 ARG(1) NOT VALID                            
 000000D2 D51D D09B C5A4 0000009B 000005A4    127 CHECKP2  CLC   PARM2,=CL30' '          ARG(2) EMPTY ?                              
 000000D8 4780 C162               00000162    128          BE    EXITNOK                 YES, EXIT NO OK                             
 000000DC 47F0 C0EC               000000EC    129          B     MAIN                    ARG(2) OK -> PROCEED                        
 000000E0 D200 D098 1000 00000098 00000000    130 COPYPAR1 MVC   PARM1(0),0(R1)          MOVE ARG(1)                                 
 000000E6 D200 D09B 1000 0000009B 00000000    131 COPYPAR2 MVC   PARM2(0),0(R1)          MOVE ARG(2)                                 
                                              132 * MAIN                                                                             
                                              133 MAIN     GETMAIN RU,LV=WKTBL,LOC=ANY   GET WORK AREA                               
 000000EC                                     135+         CNOP  0,4                                                      01-GETMAIN 
 000000EC 47F0 C0F8               000000F8    136+MAIN     B     IHB0006C           BRANCH AROUND DATA                    01-GETMAIN 
 000000F0 0043DF18                            137+IHB0006L DC    A(WKTBL)           LENGTH                                01-GETMAIN 
 000000F4 00                                  138+IHB0006F DC    BL1'00000000'                         Flags.        @L7C 01-GETMAIN 
 000000F5 00                                  139+         DC    AL1(0)             RESERVED                              01-GETMAIN 
 000000F6 00                                  140+         DC    AL1(0)             SUBPOOL                               01-GETMAIN 
 000000F7 72                                  141+         DC    BL1'01110010'                 MODE BYTE         @G860P30 01-GETMAIN 
 000000F8                                     142+IHB0006C DS     0H                                                      01-GETMAIN 
 000000F8 5800 C0F0               000000F0    143+         L     0,IHB0006L         LOAD LENGTH                           01-GETMAIN 
 000000FC 58F0 C0F4               000000F4    144+         L     15,IHB0006F                       LOAD GETMAIN PARMS     01-GETMAIN 
 00000100 1B11                                145+         SR    1,1                     ZERO RESERVED REG 1              01-GETMAIN 
 00000102 0A78                                146+         SVC   120                     ISSUE GETMAIN SVC                01-GETMAIN 
 00000104 5010 D158               00000158    147          ST    R1,WORKVLD              SAVE BUFFER ADDRESS                         
 00000108 45E0 C1AA               000001AA    148          BAL   R14,CALLSMS             GET SMS INFORMATION                         
 0000010C 45E0 C2CE               000002CE    149          BAL   R14,SAVEDAT             WRITE DATA                                  
 00000110 5810 D158               00000158    150          L     R1,WORKVLD              GET BUFFER ADDRESS                          
                                              151          FREEMAIN RU,LV=WKTBL,A=(1)    FREE SAVE/WORK AREA                         
 00000114                                     153+         CNOP  0,4                                                      01-FREEMAIN
 00000114 47F0 C120               00000120    154+         B     *+12-4*0-2*0                BRANCH AROUND DATA @O2C      01-FREEMAIN
 00000118 0043DF18                            155+         DC    A(WKTBL)                          LENGTH                 01-FREEMAIN
 0000011C 00                                  156+IHB0008F DC    BL1'00000000'            Flags              @O2A         01-FREEMAIN
 0000011D 00                                  157+         DC    AL1(0)                            RESERVED               01-FREEMAIN
 0000011E 00                                  158+         DC    AL1(0)                            SUBPOOL NUMBER         01-FREEMAIN
 0000011F 03                                  159+         DC    BL1'00000011'                     MODE BYTE              01-FREEMAIN
 00000120 5800 C118               00000118    160+         L     0,*-8+2*0                         LOAD LENGTH            01-FREEMAIN
 00000124 58F0 C11C               0000011C    161+         L     15,IHB0008F                       LOAD PARAMETERS        01-FREEMAIN
 00000128 0A78                                162+         SVC   120                               ISSUE FREEMAIN SVC     01-FREEMAIN
 0000012A 47F0 C172               00000172    163          B     EXITOK                                                              
                                              164 * EXIT                                                                             
 0000012E 4EF0 D090               00000090    165 EXITBAD1 CVD   R15,WORKD               CONV TO DECIMAL SSI RC                      
 00000132 DE05 C512 D095 00000512 00000095    166          ED    ABE01M(6),WORKD+5       EDIT IN MSG                                 
 00000138 4110 C4F0               000004F0    167          LA    R1,ABE01                LOAD MSG ADD                                
 0000013C 45E0 C346               00000346    168          BAL   R14,WRITEER             SAY ERROR                                   
 00000140 41B0 0010               00000010    169          LA    R11,16                  RETURN CODE=16                              
1QUERYSMS REXX FUNCTION - QUERY SMS                                                                             Page    6            
   Active Usings: ARGTABLE_ENTRY,R8  EVALBLOCK,R9  EFPL,R10  ENVBLOCK,R11  QUERYSMS,R12  DATA,R13                                    
0  Loc    Object Code      Addr1    Addr2    Stmt  Source Statement                          HLASM R6.0  2012/02/10 10.07            
000000144 47F0 C180               00000180    170          B     $E02                                                                
 00000148 4E10 D090               00000090    171 EXITBAD2 CVD   R1,WORKD                CONV TO DECIMAL SSSA RSN                    
 0000014C DE05 C551 D095 00000551 00000095    172          ED    ABE02M(6),WORKD+5       EDIT IN MSG                                 
 00000152 4110 C53E               0000053E    173          LA    R1,ABE02                LOAD MSG ADD                                
 00000156 45E0 C346               00000346    174          BAL   R14,WRITEER             SAY ERROR                                   
 0000015A 41B0 0010               00000010    175          LA    R11,16                  RETURN CODE=16                              
 0000015E 47F0 C180               00000180    176          B     $E02                                                                
 00000162 4110 C3B8               000003B8    177 EXITNOK  LA    R1,ERR01                ARG/PARM ERROR                              
 00000166 45E0 C346               00000346    178          BAL   R14,WRITEER             SAY ERROR                                   
 0000016A 41B0 0010               00000010    179          LA    R11,16                  RC=16                                       
 0000016E 47F0 C180               00000180    180          B     $E02                                                                
 00000172 92F1 9010      00000010             181 EXITOK   MVI   EVALBLOCK_EVDATA,C'1'   RETURN 'TRUE'                               
 00000176 4110 0001               00000001    182          LA    R1,1                    RETURN LENGTH                               
 0000017A 5010 9008               00000008    183          ST    R1,EVALBLOCK_EVLEN      SAVE IT                                     
 0000017E 1FBB                                184          SLR   R11,R11                 RETURN CODE=0                               
 00000180 181D                                185 $E02     LR    R1,R13                  GET SAVE/WORK AREA                          
 00000182 58D0 D004               00000004    186          L     R13,4(,13)              GET OLD SAVEAREA                            
                                              187          FREEMAIN RU,LV=LDATA,A=(1)    FREE SAVE/WORK AREA                         
 00000186 0700                                189+         CNOP  0,4                                                      01-FREEMAIN
 00000188 47F0 C194               00000194    190+         B     *+12-4*0-2*0                BRANCH AROUND DATA @O2C      01-FREEMAIN
 0000018C 0000015C                            191+         DC    A(LDATA)                          LENGTH                 01-FREEMAIN
 00000190 00                                  192+IHB0010F DC    BL1'00000000'            Flags              @O2A         01-FREEMAIN
 00000191 00                                  193+         DC    AL1(0)                            RESERVED               01-FREEMAIN
 00000192 00                                  194+         DC    AL1(0)                            SUBPOOL NUMBER         01-FREEMAIN
 00000193 03                                  195+         DC    BL1'00000011'                     MODE BYTE              01-FREEMAIN
 00000194 5800 C18C               0000018C    196+         L     0,*-8+2*0                         LOAD LENGTH            01-FREEMAIN
 00000198 58F0 C190               00000190    197+         L     15,IHB0010F                       LOAD PARAMETERS        01-FREEMAIN
 0000019C 0A78                                198+         SVC   120                               ISSUE FREEMAIN SVC     01-FREEMAIN
 0000019E 18FB                                199          LR    R15,R11                 GET RETURN CODE                             
                                              200          RETURN (14,12),RC=(15)        RETURN TO CALLER                            
 000001A0 58E0 D00C               0000000C    202+         L     14,12(0,13)                       RESTORE REG 14    @L1C 01-RETURN  
 000001A4 980C D014               00000014    203+         LM    0,12,20(13)                       RESTORE THE REGISTERS  01-RETURN  
 000001A8 07FE                                204+         BR    14                                RETURN                 01-RETURN  
                                              205 * CALLSMS                                                                          
                         000001AA             206 CALLSMS  EQU   *                                                                   
 000001AA 50E0 D04C               0000004C    207          ST    R14,SCALLSMS            SAVE RETURN ADDRESS.                        
                                              208 * CONSTRUCT SSOB                                                                   
 000001AE D71B D0C8 D0C8 000000C8 000000C8    209          XC    WORKSSOB,WORKSSOB       CLEAR SSOB                                  
 000001B4 4120 D0C8               000000C8    210          LA    R2,WORKSSOB             LOAD SSOB ADD.                              
                     R:2 00000000             211          USING SSOB,R2                 MAP IT                                      
 000001B8 D203 2000 C590 00000000 00000590    212          MVC   SSOBID,=C'SSOB'         SSOB ACRON.                                 
 000001BE D201 2004 C5C2 00000004 000005C2    213          MVC   SSOBLEN,=AL2(SSOBHSIZ)  SSOB LENGTH                                 
 000001C4 D201 2006 C5C4 00000006 000005C4    214          MVC   SSOBFUNC,=AL2(SSOBSSMS) FUNCTION CODE FOR SMS SERVICES              
 000001CA 5810 0010               00000010    215          L     R1,CVTPTR(0,0)          -> CVT                                      
 000001CE 5810 1128               00000128    216          L     R1,CVTJESCT-CVTMAP(,R1) -> JES2 COMMUNICATION TABLE                 
 000001D2 5810 1064               00000064    217          L     R1,JESCTEXT-JESCT(,R1)  -> PAGEABLE JESCT                           
 000001D6 D203 2008 1054 00000008 00000054    218          MVC   SSOBSSIB,JESSMSIB-JESPEXT(R1) -> SMS SSIB                           
 000001DC 5620 C594               00000594    219          O     R2,=X'80000000'         SET LAST PARM                               
 000001E0 5020 D0C0               000000C0    220          ST    R2,PTRSSOB              SAVE IT                                     
                                              221 * CONSTRUCT SSSA                                                                   
 000001E4 D76F D0E8 D0E8 000000E8 000000E8    222          XC    WORKSSSA,WORKSSSA       CLEAR SSSA                                  
 000001EA 4130 D0E8               000000E8    223          LA    R3,WORKSSSA             LOAD SSSA ADD.                              
 000001EE 5030 2010               00000010    224          ST    R3,SSOBINDV             FUNCTION DEPENDENT AREA POINTER             
                     R:3 00000000             225          USING IEFSSSA,R3              MAP IT                                      
 000001F2 D203 3002 C598 00000002 00000598    226          MVC   SSSAID,=C'SSSA'         SSSA ACRON.                                 
1QUERYSMS REXX FUNCTION - QUERY SMS                                                                             Page    7            
   Active Usings: SSOB,R2  IEFSSSA,R3  ARGTABLE_ENTRY,R8  EVALBLOCK,R9  EFPL,R10  ENVBLOCK,R11  QUERYSMS,R12  DATA,R13               
0  Loc    Object Code      Addr1    Addr2    Stmt  Source Statement                          HLASM R6.0  2012/02/10 10.07            
0000001F8 4100 0070               00000070    227          LA    R0,SSSALN+SSSA1LN+32    LENGTH                                      
 000001FC 4000 3000               00000000    228          STH   R0,SSSALEN                                                          
 00000200 D201 3006 C5C6 00000006 000005C6    229          MVC   SSSAVER,=AL2(SSOBSSVR)  VERSION NUMBER                              
 00000206 D201 3008 C5C8 00000008 000005C8    230          MVC   SSSASFN,=AL2(SSSAACTV)  RETURNS DATA FROM THE ACTIVE CFG            
 0000020C 9280 300C      0000000C             231          MVI   SSSAIFLG,SSSANAUT       CALLER NOT AUTHORIZED                       
                         00000210             232 $C0      EQU   *                                                                   
 00000210 D502 D098 C5CF 00000098 000005CF    233          CLC   PARM1,=C'AVL'           ARG(1) = 'AVL' ?                            
 00000216 4770 C222               00000222    234          BNE   $C1                     NO, TRY NEXT                                
 0000021A 9214 3034      00000034             235          MVI   SSSA1TYP,SSSA1AVL       RETURN THE LIST OF ALL VOLUMES              
 0000021E 47F0 C284               00000284    236          B     $C9                                                                 
 00000222 D502 D098 C5CC 00000098 000005CC    237 $C1      CLC   PARM1,=C'VOL'           ARG(1) = 'VOL' ?                            
 00000228 4770 C240               00000240    238          BNE   $C2                     NO, TRY NEXT                                
 0000022C 920D 3034      00000034             239          MVI   SSSA1TYP,SSSA1VOL       RETURN A VOLUME                             
 00000230 D201 3050 C5CA 00000050 000005CA    240          MVC   SSSA1NML,=AL2(6)        LENGTH OF VOLSER                            
 00000236 D205 3052 D09B 00000052 0000009B    241          MVC   SSSA1NAM(6),PARM2+0     MOVE VOLSER                                 
 0000023C 47F0 C284               00000284    242          B     $C9                                                                 
 00000240 D502 D098 C5D2 00000098 000005D2    243 $C2      CLC   PARM1,=C'SGV'           ARG(1) = 'SGV' ?                            
 00000246 4770 C25E               0000025E    244          BNE   $C3                     NO, TRY NEXT                                
 0000024A 9207 3034      00000034             245          MVI   SSSA1TYP,SSSA1SGV       RETURN A LISTVOL FROM A STORGRP             
 0000024E D201 3050 D0BA 00000050 000000BA    246          MVC   SSSA1NML,PARM2L         LENGTH OF STORGRP NAME                      
 00000254 D21D 3052 D09B 00000052 0000009B    247          MVC   SSSA1NAM(30),PARM2+0     MOVE STORGRP                               
 0000025A 47F0 C284               00000284    248          B     $C9                                                                 
 0000025E D502 D098 C5D5 00000098 000005D5    249 $C3      CLC   PARM1,=C'VSG'           ARG(1) = 'VSG' ?                            
 00000264 4770 C27C               0000027C    250          BNE   $C4                     NO, TRY NEXT                                
 00000268 9208 3034      00000034             251          MVI   SSSA1TYP,SSSA1VSG       RETURN THE SG FROM A VOLUME                 
 0000026C D201 3050 C5CA 00000050 000005CA    252          MVC   SSSA1NML,=AL2(6)        LENGTH OF VOLSER                            
 00000272 D205 3052 D09B 00000052 0000009B    253          MVC   SSSA1NAM(6),PARM2+0     MOVE VOLSER                                 
 00000278 47F0 C284               00000284    254          B     $C9                                                                 
                         0000027C             255 $C4      EQU   *                       ARG(1) = 'SGL'                              
 0000027C 920C 3034      00000034             256          MVI   SSSA1TYP,SSSA1SGL       RETURN SG LIST                              
 00000280 47F0 C284               00000284    257          B     $C9                                                                 
                         00000284             258 $C9      EQU   *                                                                   
 00000284 D203 304C C59C 0000004C 0000059C    259          MVC   SSSA1CNT,=F'1'          ONE REQUEST                                 
 0000028A D203 3040 C5A0 00000040 000005A0    260          MVC   SSSA1LEN,=AL4(WKTBL)    LENGTH OF WORK AREA                         
 00000290 5810 D158               00000158    261          L     R1,WORKVLD              GET VLD WORK AREA                           
 00000294 5010 303C               0000003C    262          ST    R1,SSSA1PTR             SAVE VLD WORK AREA                          
                                              263 * CALL SSI                                                                         
 00000298 4110 D0C0               000000C0    264          LA    R1,PTRSSOB              GET ADD OF SSOB ADD                         
                                              265          IEFSSREQ ,                    CALL SSI                                    
                                              266+*                                                                                  
                                              267+*  PASS CONTROL TO THE SUBSYSTEM TO PROCESS REQUEST -                              
                                              268+*                                                                                  
                                              269+*        INPUT - REGISTER 1 POINTS TO A ONE-WORD PARAMETER LIST                    
                                              270+*                WITH THE HIGH-ORDER BIT ON AND A POINTER                          
                                              271+*                TO AN SSOB IN THE LOW-ORDER 31 BITS.                              
                                              272+*                                                                                  
 0000029C 58F0 0010               00000010    273+         L     15,CVTPTR(0,0)     SET CVT ADDRESSABILITY        YM02296 01-IEFSSREQ
                                              274+*                                                                  @P2D            
 000002A0 58F0 F128               00000128    275+         L     15,296(0,15)       Set JESCT addressability         @P2C 01-IEFSSREQ
                                              276+*                                                                  @P2D            
 000002A4 58F0 F014               00000014    277+         L     15,JESSSREQ-JESCT(0,15)  Set subsystem request          X01-IEFSSREQ
                                                 +                                    routine address                @P2C            
 000002A8 12FF                                278+         LTR   15,15              TEST IF IEFJSREQ WAS LOADED      @L1A 01-IEFSSREQ
 000002AA A784 0005               000002B4    279+         JZ    NSSI0014           BRANCH AROUND THE CALL           @L2C 01-IEFSSREQ
 000002AE 0DEF                                280+         BASR  14,15              PROCESS SUBSYSTEM REQUEST        @L2C 01-IEFSSREQ
1QUERYSMS REXX FUNCTION - QUERY SMS                                                                             Page    8            
   Active Usings: SSOB,R2  IEFSSSA,R3  ARGTABLE_ENTRY,R8  EVALBLOCK,R9  EFPL,R10  ENVBLOCK,R11  QUERYSMS,R12  DATA,R13               
0  Loc    Object Code      Addr1    Addr2    Stmt  Source Statement                          HLASM R6.0  2012/02/10 10.07            
0000002B0 A7F4 0004               000002B8    281+         J     XSSI0014           BRANCH AROUND SET RETURN CODE    @L2C 01-IEFSSREQ
                         000002B4             282+NSSI0014       EQU *                                               @L1A 01-IEFSSREQ
 000002B4 41F0 0018               00000018    283+         LA    15,24              SET THE RETURN CODE IN REG 15 TO @L1A 01-IEFSSREQ
                                              284+*                                 INDICATE IEFJSREQ IS NOT LOADED  @L1A            
                         000002B8             285+XSSI0014       EQU *                                               @L1A 01-IEFSSREQ
                                              286+*                                                                  @P2D            
 000002B8 12FF                                287          LTR   R15,R15                 TEST RC                                     
 000002BA 4770 C12E               0000012E    288          BNZ   EXITBAD1                ?=0 -> EXIT BAD RETURN CODE                 
 000002BE 5810 3028               00000028    289          L     R1,SSSARSN              LOAD SSSA REASON CODE                       
 000002C2 1211                                290          LTR   R1,R1                   TEST RC                                     
 000002C4 4770 C148               00000148    291          BNZ   EXITBAD2                ?=0 -> EXIT BAD RETURN CODE                 
                                              292          DROP  R2,R3                   END OF PROCESS                              
 000002C8 58E0 D04C               0000004C    293 RCALLSMS L     R14,SCALLSMS            GET RETURN ADD.                             
 000002CC 07FE                                294          BR    R14                     RETURN TO CALLER                            
                                              295 * SAVEDAT - SAVE RETURNED INFORMATION                                              
                         000002CE             296 SAVEDAT  EQU       *                                                               
 000002CE 50E0 D048               00000048    297          ST    R14,SSAVEDAT            SAVE CALLER'S RET. ADD.                     
                                              298 * PREPARE CALL TO QUEUE                                                            
 000002D2 5810 B01C               0000001C    299          L     R1,ENVBLOCK_IRXEXTE     GET VECTOR EXTERNAL ROUTINES ADD            
 000002D6 5870 102C               0000002C    300          L     R7,IRXSTK-IRXEXTE(,R1)  GET STACK ROUTINE ADD.                      
 000002DA 50B0 D06C               0000006C    301          ST    R11,_STKENV             SAVE ENV ADD                                
 000002DE D207 D058 C580 00000058 00000580    302          MVC   _STKFUNC,=CL8'QUEUE'    SET QUEUE FUNCTION                          
 000002E4 4110 D058               00000058    303          LA    R1,_STKFUNC             GET ADD                                     
 000002E8 5010 D074               00000074    304          ST    R1,_STKPARM+0           SET AS PARM1                                
 000002EC 4110 D060               00000060    305          LA    R1,_STKDAT              GET DATA ADDRESS                            
 000002F0 5010 D078               00000078    306          ST    R1,_STKPARM+4           SET AS PARM2                                
 000002F4 4110 D064               00000064    307          LA    R1,_STKLEN              GET DATA LENGTH                             
 000002F8 5010 D07C               0000007C    308          ST    R1,_STKPARM+8           SET AS PARM3                                
 000002FC 4110 D068               00000068    309          LA    R1,_STKRC               GET RC AREA                                 
 00000300 5010 D080               00000080    310          ST    R1,_STKPARM+12          SET AS PARM4                                
 00000304 4110 D06C               0000006C    311          LA    R1,_STKENV              GET ENVBLCOK ADD                            
 00000308 5010 D084               00000084    312          ST    R1,_STKPARM+16          SET AS PARM5                                
 0000030C 4110 D070               00000070    313          LA    R1,_STKRCE              GET RCE ADDRESS                             
 00000310 5610 C594               00000594    314          O     R1,=X'80000000'         SET AS LAST PARM                            
 00000314 5010 D088               00000088    315          ST    R1,_STKPARM+20          SET AS PARM6                                
                                              316 * WRITE ITEMS                                                                      
 00000318 5820 D158               00000158    317          L     R2,WORKVLD              GET WORK ADD                                
                     R:2 00000000             318          USING VLD,R2                  MAP AS VLD/SGD                              
 0000031C 5830 200C               0000000C    319          L     R3,VLDPCNT              GET TOTAL COUNT                             
 00000320 5840 2014               00000014    320          L     R4,VLDPLEN              GET LENGTH OF EACH ITEM                     
 00000324 5040 D064               00000064    321          ST    R4,_STKLEN              SET LENGTH FOR IRXSTK                       
 00000328 4120 2018               00000018    322          LA    R2,VLDEF                GET FIRST ENTRY                             
                                              323          DROP  R2                                                                  
 0000032C 5020 D060               00000060    324 NEXT     ST    R2,_STKDAT              SET DATA ADDRESS                            
 00000330 180B                                325          LR    R0,R11                  GET ENVBLOCK                                
 00000332 18F7                                326          LR    R15,R7                  GET IRXSTK ENTRY POINT                      
 00000334 4110 D074               00000074    327          LA    R1,_STKPARM             LOAD PARM ADD                               
 00000338 05EF                                328          BALR  R14,R15                 CALL IRXSTK                                 
 0000033A 1A24                                329          AR    R2,R4                   SKIP TO NEXT ENTRY                          
 0000033C 4630 C32C               0000032C    330          BCT   R3,NEXT                 REPEAT, UNTIL COUNT = 0                     
 00000340 58E0 D048               00000048    331 RSAVEDAT L     R14,SSAVEDAT            GET CALLER RETURN ADD                       
 00000344 07FE                                332          BR    R14                     RETURN TO CALLER                            
                                              333 * WRITER - WRITE ERROR MSG                                                         
                         00000346             334 WRITEER  EQU       *                                                               
 00000346 50E0 D050               00000050    335          ST    R14,SWRITEER                                                        
1QUERYSMS REXX FUNCTION - QUERY SMS                                                                             Page    9            
   Active Usings: ARGTABLE_ENTRY,R8  EVALBLOCK,R9  EFPL,R10  ENVBLOCK,R11  QUERYSMS,R12  DATA,R13                                    
0  Loc    Object Code      Addr1    Addr2    Stmt  Source Statement                          HLASM R6.0  2012/02/10 10.07            
0                                             336 * PREPARE CALL TO SAY                                                              
 0000034A 5820 B01C               0000001C    337          L     R2,ENVBLOCK_IRXEXTE     GET VECTOR EXTERNAL ROUTINES ADD            
 0000034E 5870 2050               00000050    338          L     R7,IRXSAY-IRXEXTE(,R2)  GET STACK ROUTINE ADD.                      
 00000352 50B0 D06C               0000006C    339          ST    R11,_STKENV             SAVE ENV ADD                                
 00000356 D207 D058 C588 00000058 00000588    340          MVC   _STKFUNC,=CL8'WRITEERR' SET WRITEERR FUNCTION                       
 0000035C 4120 D058               00000058    341          LA    R2,_STKFUNC             GET ADD                                     
 00000360 5020 D074               00000074    342          ST    R2,_STKPARM+0           SET AS PARM1                                
 00000364 4120 D060               00000060    343          LA    R2,_STKDAT              GET DATA ADDRESS                            
 00000368 5020 D078               00000078    344          ST    R2,_STKPARM+4           SET AS PARM2                                
 0000036C 4120 D064               00000064    345          LA    R2,_STKLEN              GET DATA LENGTH                             
 00000370 5020 D07C               0000007C    346          ST    R2,_STKPARM+8           SET AS PARM3                                
 00000374 4120 D06C               0000006C    347          LA    R2,_STKENV              GET ENVBLCOK ADD                            
 00000378 5020 D080               00000080    348          ST    R2,_STKPARM+12          SET AS PARM4                                
 0000037C 4120 D070               00000070    349          LA    R2,_STKRCE              GET RCE ADDRESS                             
 00000380 5620 C594               00000594    350          O     R2,=X'80000000'         SET AS LAST PARM                            
 00000384 5020 D084               00000084    351          ST    R2,_STKPARM+16          SET AS PARM5                                
                                              352 * WRITE ERROR MSG                                                                  
 00000388 1831                                353          LR    R3,R1                   LOAD PARM ADD                               
                                              354 *        SR    R2,R2                   CLEAR R2                                    
                                              355 *EXLINE  ICM   R2,B'0011',0(R3)        GET LINE LENGTH                             
 0000038A E320 3000 0095          00000000    356 NEXLINE  LLH   R2,0(,R3)                                                           
 00000390 1222                                357          LTR   R2,R2                   IS ZERO ?                                   
 00000392 4780 C3B2               000003B2    358          BZ    RWRITEER                YES, -> END                                 
 00000396 4130 3002               00000002    359          LA    R3,2(,R3)               GET DATA ADDRESS                            
 0000039A 5030 D060               00000060    360          ST    R3,_STKDAT              SET DATA TO SAY                             
 0000039E 5020 D064               00000064    361          ST    R2,_STKLEN              SET LENGTH TO SAY                           
 000003A2 180B                                362          LR    R0,R11                  GET ENVBLOCK                                
 000003A4 18F7                                363          LR    R15,R7                  GET IRXSAY ENTRY POINT                      
 000003A6 4110 D074               00000074    364          LA    R1,_STKPARM             LOAD PARM ADD                               
 000003AA 05EF                                365          BALR  R14,R15                 CALL IRXSAY                                 
 000003AC 1A32                                366          AR    R3,R2                   ADD LINE LENGTH                             
 000003AE 47F0 C38A               0000038A    367          B     NEXLINE                 GO FOR NEXT LINE                            
 000003B2 58E0 D050               00000050    368 RWRITEER L     R14,SWRITEER            GET RETURN ADD                              
 000003B6 07FE                                369          BR    R14                     RETURN TO CALLER                            
                                              370 * DATA AREA                                                                        
 000003B8 001AE4A28187857A                    371 ERR01    DC    AL2(26),C'Usage: QUERYSMS(type,name)'                               
 000003D4 000D40E688859985                    372          DC    AL2(13),C' Where type ='                                            
 000003E3 00494040E2C7E540                    373          DC    AL2(73),C'  SGV - return a list of volumes associated wiX           
 000003EB 60409985A3A49995                                       th the storage group ''name'''                                      
 0000042E 00424040E5E2C740                    374          DC    AL2(66),C'  VSG - return the storage group associated wiX           
 00000436 60409985A3A49995                                       th the volume ''name'''                                             
 00000472 00274040E5D6D340                    375          DC    AL2(39),C'  VOL - return ''name'' volume definition'                
 0000049B 00264040C1E5D340                    376          DC    AL2(38),C'  AVL - return the list of all volumes'                   
 000004C3 00294040E2C7D340                    377          DC    AL2(41),C'  SGL - return the list of storage groups'                
 000004EE 0000                                378          DC    AL2(0)                                                              
 000004F0 0027E2A482A2A8A2                    379 ABE01    DC    AL2(39),C'Subsystem Interface Error, RC = '                         
 00000512 40202020212040                      380 ABE01M   DC    X'40202020212040'                                                   
 00000519 00214040D596A385                    381          DC    AL2(33),C'  Note: See SYS1.MACLIB(IEFSSOBH)'                        
 0000053C 0000                                382          DC    AL2(00)                                                             
 0000053E 0018E2D4E240C599                    383 ABE02    DC    AL2(24),C'SMS Error, RSN = '                                        
 00000551 40202020212040                      384 ABE02M   DC    X'40202020212040'                                                   
 00000558 00204040D596A385                    385          DC    AL2(32),C'  Note: See SYS1.MODGEN(IEFSSSA)'                         
 0000057A 0000                                386          DC    AL2(00)                                                             
 00000580                                     387          LTORG                                                                     
 00000580 D8E4C5E4C5404040                    388                =CL8'QUEUE'                                                         
1QUERYSMS REXX FUNCTION - QUERY SMS                                                                             Page   10            
   Active Usings: ARGTABLE_ENTRY,R8  EVALBLOCK,R9  EFPL,R10  ENVBLOCK,R11  QUERYSMS,R12  DATA,R13                                    
0  Loc    Object Code      Addr1    Addr2    Stmt  Source Statement                          HLASM R6.0  2012/02/10 10.07            
000000588 E6D9C9E3C5C5D9D9                    389                =CL8'WRITEERR'                                                      
 00000590 E2E2D6C2                            390                =C'SSOB'                                                            
 00000594 80000000                            391                =X'80000000'                                                        
 00000598 E2E2E2C1                            392                =C'SSSA'                                                            
 0000059C 00000001                            393                =F'1'                                                               
 000005A0 0043DF18                            394                =AL4(WKTBL)                                                         
 000005A4 4040404040404040                    395                =CL30' '                                                            
 000005C2 001C                                396                =AL2(SSOBHSIZ)                                                      
 000005C4 0037                                397                =AL2(SSOBSSMS)                                                      
 000005C6 0001                                398                =AL2(SSOBSSVR)                                                      
 000005C8 0001                                399                =AL2(SSSAACTV)                                                      
 000005CA 0006                                400                =AL2(6)                                                             
 000005CC E5D6D3                              401                =C'VOL'                                                             
 000005CF C1E5D3                              402                =C'AVL'                                                             
 000005D2 E2C7E5                              403                =C'SGV'                                                             
 000005D5 E5E2C7                              404                =C'VSG'                                                             
 000005D8 E2C7D3                              405                =C'SGL'                                                             
 00000000                00000000 0000015C    406 DATA     DSECT ,                       SAVE/WORK AREA                              
 00000000                                     407 SAVEAREA DS    18F                     SAVE AREA                                   
 00000048                                     408 SSAVEDAT DS    F                       ROUTINE RETURN                              
 0000004C                                     409 SCALLSMS DS    F                       ROUTINE RETURN                              
 00000050                                     410 SWRITEER DS    F                       ROUTINE RETURN                              
 00000058                                     411          DS    0D                       ALIGN.                                     
 00000058                                     412 _STKFUNC DS    CL8                     STKFUNC                                     
 00000060                                     413 _STKDAT  DS    F                       STKDAT                                      
 00000064                                     414 _STKLEN  DS    F                       STKLEN                                      
 00000068                                     415 _STKRC   DS    F                       STKRC                                       
 0000006C                                     416 _STKENV  DS    F                       STKENV                                      
 00000070                                     417 _STKRCE  DS    F                       STKRCE                                      
 00000074                                     418 _STKPARM DS    6F                      PARM ADDRESS                                
 00000090                                     419 WORKD    DS    D                       WORKING DECIMAL                             
 00000098                                     420 PARM1    DS    CL3                     PARM 1                                      
 0000009B                                     421 PARM2    DS    CL30                     PARM 2                                     
 000000BA                                     422 PARM2L   DS    H                       PARM 2 LENGTH                               
 000000BC                                     423 TYPE     DS    X                       TYPE OF RETURN                              
 000000C0                                     424 PTRSSOB  DS    F                       -> TO SSOB                                  
 000000C8                                     425          DS    0D                       ALIGN.                                     
 000000C8                                     426 WORKSSOB DS    XL(SSOBHSIZ)            WORKING SSOB                                
 000000E8                                     427          DS    0D                       ALIGN.                                     
 000000E8                                     428 WORKSSSA DS    XL(SSSALN+SSSA1LN+32)   WORKING SSSA                                
                         000008B0             429 VLDLEN   EQU   VLDEND-VLDEF+VLDEND2-VLDSYSDT TOTAL VLD LENGTH                      
                                              430 WKTBL    EQU   VLDEF-VLD+(VLDLEN*&MAXVOLS)                                         
                         0043DF18                +WKTBL    EQU   VLDEF-VLD+(VLDLEN*2000)                                             
 00000158                                     431 WORKVLD  DS    F                                                                   
                         0000015C             432 LDATA    EQU   *-DATA                                                              
                                              433 * USED MAPS                                                                        
 00000000                00000000 00000000    434 DUMMY    DSECT                                                                     
                                              435          IRXENVB                       REXX ENV. BLOCK                             
                                              436+**/                                                                                
                                              437+* %ENVBPRO :  ;                                                                    
                                              438+*/* Start of Specifications *******************************************            
                                              439+* *01* PROPRIETARY STATEMENT=                                         *            
                                              440+*                                                                     *            
                                              441+*01* Descriptive Name: REXX Environment Block                         *            
                                              442+*02*  Acronym: ENVBLOCK                                               *            
1QUERYSMS REXX FUNCTION - QUERY SMS                                                                             Page   11            
   Active Usings: ARGTABLE_ENTRY,R8  EVALBLOCK,R9  EFPL,R10  ENVBLOCK,R11  QUERYSMS,R12  DATA,R13                                    
0D-Loc    Object Code      Addr1    Addr2    Stmt  Source Statement                          HLASM R6.0  2012/02/10 10.07            
0                                             443+*                                                                     *            
                                              444+*01* PROPRIETARY STATEMENT=                                           *            
                                              445+*****PROPRIETARY_STATEMENT****************************************@P1C*            
                                              446+*                                                                     *            
                                              447+*   LICENSED MATERIALS - PROPERTY OF IBM                              *            
                                              448+*   THIS MACRO IS "RESTRICTED MATERIALS OF IBM"                       *            
                                              449+*   5694-A01 (C) COPYRIGHT IBM CORP. 1988, 2006                       *            
                                              450+*                                                                     *            
                                              451+*   STATUS= HTE7730                                                   *            
                                              452+*                                                                     *            
                                              453+*****END_OF_PROPRIETARY_STATEMENT*********************************@P1C*            
                                              454+*                                                                     *            
                                              455+*01* Macro Name: IRXENVB                                              *            
                                              456+*                                                                     *            
                                              457+*01* DSECT Name: ENVBLOCK                                             *            
                                              458+*                                                                     *            
                                              459+*01* Component:  TSO/E REXX (28508)                                   *            
                                              460+*                                                                     *            
                                              461+*01* Eye-Catcher: ENVBLOCK                                            *            
                                              462+*02*  Offset: 0                                                       *            
                                              463+*02*  Length: 8                                                       *            
                                              464+*                                                                     *            
                                              465+*01* Storage Attributes:                                              *            
                                              466+*02*  Subpool: 78                                                     *            
                                              467+*02*  Key: 8                                                          *            
                                              468+*02*  Residency: above 16M                                            *            
                                              469+*02*  Main Storage:                                                   *            
                                              470+*02*  Auxiliary Storage:                                              *            
                                              471+*02*  Virtual Storage:                                                *            
                                              472+*                                                                     *            
                                              473+*01* Size: 320 bytes                                                  *            
                                              474+*                                                                     *            
                                              475+*01* Created by: IRXITPA                                              *            
                                              476+*                                                                     *            
                                              477+*01* Pointed to by: Register 0, or by the ENVBLOCK parameter during   *            
                                              478+*                   calls to various REXX programming service routines*            
                                              479+*                   and REXX replaceable routines.                    *            
                                              480+*                                                                     *            
                                              481+*01* Serialization: none                                              *            
                                              482+*                                                                     *            
                                              483+*01* Function:                                                        *            
                                              484+*02* The REXX Environment block (ENVBLOCK) contains information       *            
                                              485+*    describing a REXX environment, and REXX execs in that            *            
                                              486+*    environment.  Included in the ENVBLOCK are pointers to the       *            
                                              487+*    PARMBLOCK, WORKBLOK_EXT and IRXEXTE, as well as error            *            
                                              488+*    information.                                                     *            
                                              489+*                                                                     *            
                                              490+*01* Method of Access:                                                *            
                                              491+*02*  ASM: USING on ENVBLOCK DSECT                                    *            
                                              492+*                                                                     *            
                                              493+*02*  PL/AS: %ENVBBASE='... base ...'                                 *            
                                              494+*            %INCLUDE SYSLIB(IRXENVB)                                 *            
                                              495+*                                                                     *            
                                              496+*01* External Classification:                                         *            
                                              497+*02* GUPI: BASE                                                       *            
1QUERYSMS REXX FUNCTION - QUERY SMS                                                                             Page   12            
   Active Usings: ARGTABLE_ENTRY,R8  EVALBLOCK,R9  EFPL,R10  ENVBLOCK,R11  QUERYSMS,R12  DATA,R13                                    
0D-Loc    Object Code      Addr1    Addr2    Stmt  Source Statement                          HLASM R6.0  2012/02/10 10.07            
0                                             498+*02* DMTI: FIELDS                                                     *            
                                              499+*          ENVBLOCK_ERROR                                             *            
                                              500+*02* PSPI: FIELDS                                                     *            
                                              501+*          ENVBLOCK_COMPGMTB                                          *            
                                              502+*01* End of External Classification:                                  *            
                                              503+*                                                                     *            
                                              504+*01* Change Activity:                                                 *            
                                              505+*                                                                     *            
                                              506+*    Created for TSO/E Version 2.1.0                         @E21D2C2 *            
                                              507+*                                                                     *            
                                              508+*    Added ENVBLOCK_VERSION and ENVBLOCK_LENGTH fields.      @DEI0040 *            
                                              509+*                                                                     *            
                                              510+*    @OY30448 - Add ENVBLOCK_ATTNROUT_PARMPTR, in the external        *            
                                              511+*               portion of the ENVBLOCK. This field is used to        *            
                                              512+*               pass the address of an attention exit parameter       *            
                                              513+*               to an ATTENTION_ROUTINE.                     @YA30448 *            
                                              514+*                                                                     *            
                                              515+*    Added the ENVBLOCK_COMPGMTB field                       @E23X2BJ *            
                                              516+*                                                                     *            
                                              517+*    @OY43618 - Add ENVBLOCK_ECTPTR in the external portion of        *            
                                              518+*               the ENVBLOCK. This field is used to indicate the      *            
                                              519+*               ECT under which an environment that is integrated     *            
                                              520+*               with TSO/E is anchored.                      @YA43618 *            
                                              521+*                                                                     *            
                                              522+*    PMH0160  - Updated prolog for SHOWHDR                   @PMH0160 *            
                                              523+*                                                                     *            
                                              524+*    PMH0173  - Changed PL/AS label from PROLOG to ENVBPRO   @PMH0173 *            
                                              525+*               to prevent name clashes.                     @PMH0173 *            
                                              526+*                                                                     *            
                                              527+*    @OY57272 - Add ENVBLOCK_TERMA_CLEANUP flag to indicate  @YA57272 *            
                                              528+*               when this ENVBLOCK is undergoing abnormal    @YA57272 *            
                                              529+*               termination.                                 @YA57272 *            
                                              530+*                                                                     *            
                                              531+* FLAG REASON   RELEASE DATE     ORIGIN                           @P1A*            
                                              532+* ---- ------   ------- -------- ------                           @P1A*            
                                              533+* $P1  MG06358  HTE7730 051003   WSY1:  Added word for use by     @P1A*            
                                              534+*               USS REXX.                                         @P1A*            
                                              535+*                                                                     *            
                                              536+*** End of Specifications ********************************************/            
                                              537+*   %GOTO PLAS_IRXENVB; /*                                                         
1QUERYSMS REXX FUNCTION - QUERY SMS                                                                             Page   13            
   Active Usings: ARGTABLE_ENTRY,R8  EVALBLOCK,R9  EFPL,R10  ENVBLOCK,R11  QUERYSMS,R12  DATA,R13                                    
0D-Loc    Object Code      Addr1    Addr2    Stmt  Source Statement                          HLASM R6.0  2012/02/10 10.07            
0                                             539+***********************************************************************            
                                              540+***                                                                  **            
                                              541+***  ENVBLOCK - REXX Environment Block                               **            
                                              542+***                                                                  **            
                                              543+***********************************************************************            
000000000                00000000 00000140    545+ENVBLOCK DSECT                         REXX Environment Block           01-IRXENVB 
 00000000                                     546+         DS  0D                        Align on doubleword boundary     01-IRXENVB 
 00000000                                     547+ENVBLOCK_ID           DS  CL8          ENVBLOCK identifier 'ENVBLOCK'   01-IRXENVB 
 00000008                                     548+ENVBLOCK_VERSION      DS  CL4          Version number        @DEI0040   01-IRXENVB 
 0000000C                                     549+ENVBLOCK_LENGTH       DS  F            Length of ENVBLOCK    @DEI0040   01-IRXENVB 
 00000010                                     550+ENVBLOCK_PARMBLOCK    DS  A            Address of the PARMBLOCK         01-IRXENVB 
 00000014                                     551+ENVBLOCK_USERFIELD    DS  A            Address of the user field        01-IRXENVB 
 00000018                                     552+ENVBLOCK_WORKBLOK_EXT DS  A            Address of the current           01-IRXENVB 
                                              553+*                                      WORKBLOK_EXT                                
 0000001C                                     554+ENVBLOCK_IRXEXTE      DS  A            Address of IRXEXTE               01-IRXENVB 
 00000020                                     555+ENVBLOCK_ERROR        DS  0CL256       Error information                01-IRXENVB 
 00000020                                     556+ERROR_CALL@           DS  A            Address of the routine in error  01-IRXENVB 
 00000024                                     557+                      DS  F            Reserved                         01-IRXENVB 
 00000028                                     558+ERROR_MSGID           DS  CL8          Message identifier of first call 01-IRXENVB 
 00000030                                     559+PRIMARY_ERROR_MESSAGE DS  CL80         Error message                    01-IRXENVB 
 00000080                                     560+ALTERNATE_ERROR_MSG   DS  CL160        Extended error message           01-IRXENVB 
 00000120                                     561+ENVBLOCK_COMPGMTB     DS  A            Address of the Compiler          01-IRXENVB 
                                              562+*                                      Programming Table     @E23X2BJ              
 00000124                                     563+ENVBLOCK_ATTNROUT_PARMPTR DS A         Address of a parameter           01-IRXENVB 
                                              564+*                                      passed to the user's ATTNROUT               
                                              565+*                                      routine from the REXX attention             
                                              566+*                                      routine. Used for communication             
                                              567+*                                      between the user's ATTNROUT                 
                                              568+*                                      routine and the REXX attention              
                                              569+*                                      routine.              @YA30448              
 00000128                                     570+ENVBLOCK_ECTPTR       DS  A            Address of the ECT under which   01-IRXENVB 
                                              571+*                                      an environment that is                      
                                              572+*                                      integrated with TSO/E is                    
                                              573+*                                      anchored.             @YA43618              
 0000012C                                     574+ENVBLOCK_INFO_FLAGS   DS  0BL4         Information flags       @YA57272 01-IRXENVB 
 0000012C                                     575+ENVBLOCK_INFO_FLAG1   DS  BL1          Information byte 1      @YA57272 01-IRXENVB 
                         00000080             576+ENVBLOCK_TERMA_CLEANUP EQU X'80'       Flag to indicate that            01-IRXENVB 
                                              577+*                                      IRXTERMA is in control to                   
                                              578+*                                      FREE active execs and possibly              
                                              579+*                                      to cleanup the ENVBLOCK                     
                                              580+*                                      itself                  @YA57272            
 0000012D                                     581+                      DS  BL3          Reserved                @YA57272 01-IRXENVB 
 00000130                                     582+ENVBLOCK_USS_REXX     DS  F            Word reserved for USS REXX  @P1C 01-IRXENVB 
 00000134                                     583+                      DS  3F           Reserved                    @P1C 01-IRXENVB 
 00000140                                     584+         DS  0D                        Align on doubleword boundary     01-IRXENVB 
                                              585          IRXEFPL                       REXX EFPL                                   
                                              586+*/********************************************************************/            
                                              587+*/*                                                                  */            
                                              588+*/* MACRO-NAME: IRXEFPL                                              */            
                                              589+*/*                                                                  */            
                                              590+*/* DESCRIPTIVE-NAME: External Functions parameter list              */            
                                              591+*/*                                                                  */            
                                              592+*/*01* PROPRIETARY STATEMENT=                                        */            
                                              593+*/***PROPRIETARY_STATEMENT********************************************/            
1QUERYSMS REXX FUNCTION - QUERY SMS                                                                             Page   14            
   Active Usings: ARGTABLE_ENTRY,R8  EVALBLOCK,R9  EFPL,R10  ENVBLOCK,R11  QUERYSMS,R12  DATA,R13                                    
0D-Loc    Object Code      Addr1    Addr2    Stmt  Source Statement                          HLASM R6.0  2012/02/10 10.07            
0                                             594+*/*                                                                  */            
                                              595+*/*                                                                  */            
                                              596+*/* LICENSED MATERIALS - PROPERTY OF IBM                             */            
                                              597+*/* THIS MACRO IS "RESTRICTED MATERIALS OF IBM"                      */            
                                              598+*/* 5685-025 (C) COPYRIGHT IBM CORP. 1988, 1991                      */            
                                              599+*/* SEE COPYRIGHT INSTRUCTIONS                                       */            
                                              600+*/*                                                                  */            
                                              601+*/* STATUS= JTE23X2                                                  */            
                                              602+*/*                                                                  */            
                                              603+*/***END_OF_PROPRIETARY_STATEMENT*************************************/            
                                              604+*/*                                                                  */            
                                              605+*/* FUNCTION:                                                        */            
                                              606+*/*                                                                  */            
                                              607+*/*   IRXEFPL defines the REXX External Functions parameter list     */            
                                              608+*/*                                                                  */            
                                              609+*/* RESIDENCE:                                                       */            
                                              610+*/*                                                                  */            
                                              611+*/* MACRO-TYPE: Mapping Macro                                        */            
                                              612+*/*                                                                  */            
                                              613+*/* PROCESSOR: PL/AS or Assembler                                    */            
                                              614+*/*                                                                  */            
                                              615+*/* MACRO-SIZE: See PL/AS or Assembler Listing                       */            
                                              616+*/*                                                                  */            
                                              617+*/* INVOCATION:                                                      */            
                                              618+*/*                                                                  */            
                                              619+*/*   PL/AS - %INCLUDE SYSLIB(IRXEFPL)                               */            
                                              620+*/*                                                                  */            
                                              621+*/*           %EFPLSTOR = 'BASED(EFPLPTR)' To base the EFPL on       */            
                                              622+*/*                                        EFPLPTR.                  */            
                                              623+*/*   Note: If %EFPLSTOR is not specified the default is 'BASED'.    */            
                                              624+*/*                                                                  */            
                                              625+*/*   Assembler - IRXEFPL  DSECT=YES/NO  (Default YES)               */            
                                              626+*/*                                                                  */            
                                              627+*/* CHANGE-ACTIVITY:                                                 */            
                                              628+*/*                                                                  */            
                                              629+*/* A00000000-99999999 TSO/E Version 2.1.0                   @E21D2D4*/            
                                              630+*/*                                                                  */            
                                              631+*/********************************************************************/            
                                              632+*/*************** - Start of Assembler DSECT Mapping - ***************             
 00000000                00000000 00000018    633+EFPL     DSECT                                                          01-IRXEFPL 
 00000000                                     634+EFPLCOM  DS A             * RESERVED                                    01-IRXEFPL 
 00000004                                     635+EFPLBARG DS A             * RESERVED                                    01-IRXEFPL 
 00000008                                     636+EFPLEARG DS A             * RESERVED                                    01-IRXEFPL 
 0000000C                                     637+EFPLFB   DS A             * RESERVED                                    01-IRXEFPL 
 00000010                                     638+EFPLARG  DS A             * POINTER TO ARGUMENTS TABLE                  01-IRXEFPL 
 00000014                                     639+EFPLEVAL DS A             * POINTER TO ADDRESS OF EVALBLOCK             01-IRXEFPL 
 00000018                                     640+         DS 0D                                                          01-IRXEFPL 
                                              641          IRXARGTB                      REXX ARG. TABLE                             
                                              642+*/***START OF SPECIFICATIONS******************************************/            
                                              643+*/*                                                                  */            
                                              644+*/*  MACRO-NAME = IRXARGTB                                           */            
                                              645+*/*                                                                  */            
                                              646+*/*  DESCRIPTIVE-NAME = REXX Argument Table (ARGTABLE) control block */            
                                              647+*/*                     mapping.                                     */            
                                              648+*/*                                                                  */            
1QUERYSMS REXX FUNCTION - QUERY SMS                                                                             Page   15            
   Active Usings: ARGTABLE_ENTRY,R8  EVALBLOCK,R9  EFPL,R10  ENVBLOCK,R11  QUERYSMS,R12  DATA,R13                                    
0D-Loc    Object Code      Addr1    Addr2    Stmt  Source Statement                          HLASM R6.0  2012/02/10 10.07            
0                                             649+*/*01* PROPRIETARY STATEMENT=                                        */            
                                              650+*/***PROPRIETARY_STATEMENT********************************************/            
                                              651+*/*                                                                  */            
                                              652+*/*                                                                  */            
                                              653+*/* LICENSED MATERIALS - PROPERTY OF IBM                             */            
                                              654+*/* THIS MACRO IS "RESTRICTED MATERIALS OF IBM"                      */            
                                              655+*/* 5685-025 (C) COPYRIGHT IBM CORP. 1988, 1991                      */            
                                              656+*/* SEE COPYRIGHT INSTRUCTIONS                                       */            
                                              657+*/*                                                                  */            
                                              658+*/* STATUS= JTE23X2                                                  */            
                                              659+*/*                                                                  */            
                                              660+*/***END_OF_PROPRIETARY_STATEMENT*************************************/            
                                              661+*/*                                                                  */            
                                              662+*/*  FUNCTION = The REXX Argument Table (ARGTABLE) contains          */            
                                              663+*/*             information about arguments.  It consists of         */            
                                              664+*/*             ARGTABLE entries and an ARGTABLE end marker.  For    */            
                                              665+*/*             each argument string, there is an ARGTABLE entry     */            
                                              666+*/*             containing the address and length of the argument    */            
                                              667+*/*             string.  The last ARGTABLE entry is followed by the  */            
                                              668+*/*             ARGTABLE end marker.                                 */            
                                              669+*/*                                                                  */            
                                              670+*/*  MACRO-TYPE = Mapping macro                                      */            
                                              671+*/*                                                                  */            
                                              672+*/*  NOTES = None                                                    */            
                                              673+*/*                                                                  */            
                                              674+*/*  PROCESSOR = BAL                                                 */            
                                              675+*/*                                                                  */            
                                              676+*/*  MACRO-SIZE = See listing                                        */            
                                              677+*/*                                                                  */            
                                              678+*/*  INVOCATION = IRXARGTB  DECLARE=<NO|YES> (Default NO)    @E23X2BJ*/            
                                              679+*/*                                                                  */            
                                              680+*/*               Addressability to an ARGTABLE entry can be         */            
                                              681+*/*               obtained via a USING on ARGTABLE_ENTRY.            */            
                                              682+*/*                                                                  */            
                                              683+*/*               Addressability to an ARGSTRING can be obtained via */            
                                              684+*/*               a USING on ARGSTRING.                              */            
                                              685+*/*                                                          @E23X2BJ*/            
                                              686+*/*               The use of the keyword DECLARE will        @E23X2BJ*/            
                                              687+*/*               control the position of the assembler      @E23X2BJ*/            
                                              688+*/*               constants provided in the macro.  To have  @E23X2BJ*/            
                                              689+*/*               the assembler constants appear in the      @E23X2BJ*/            
                                              690+*/*               programs storage, two things are required: @E23X2BJ*/            
                                              691+*/*                  1) The CSECT statement must be active   @E23X2BJ*/            
                                              692+*/*               prior to the invocation of the macro.      @E23X2BJ*/            
                                              693+*/*                  2) DECLARE=YES needs to be specified on @E23X2BJ*/            
                                              694+*/*               the macro invocation.                      @E23X2BJ*/            
                                              695+*/*                                                                  */            
                                              696+*/*                                                                  */            
                                              697+*/*  CHANGE-ACTIVITY =                                               */            
                                              698+*/*                                                                  */            
                                              699+*/*  Created for TSO/E Version 2.1.0                         @E21D2C2*/            
                                              700+*/*                                                                  */            
                                              701+*/*  Updated to allow for assembler constants in TSO/E 2.3.1 @E23X2BJ*/            
                                              702+*/*                                                                  */            
                                              703+*/***END OF SPECIFICATIONS********************************************/            
1QUERYSMS REXX FUNCTION - QUERY SMS                                                                             Page   16            
   Active Usings: ARGTABLE_ENTRY,R8  EVALBLOCK,R9  EFPL,R10  ENVBLOCK,R11  QUERYSMS,R12  DATA,R13                                    
0D-Loc    Object Code      Addr1    Addr2    Stmt  Source Statement                          HLASM R6.0  2012/02/10 10.07            
0                                             705+*/********************************************************************/            
                                              706+*/*                                                                  */            
                                              707+*/*  ARGTABLE_ENTRY - REXX Argument Table Entry                      */            
                                              708+*/*                                                                  */            
                                              709+*/********************************************************************/            
000000000                00000000 00000008    711+ARGTABLE_ENTRY DSECT                   REXX Argument Table Entry        01-IRXARGTB
 00000000                                     712+         DS  0D                        Align on doubleword boundary     01-IRXARGTB
 00000000                                     713+ARGTABLE_ARGSTRING_PTR    DS  A        Address of the argument string   01-IRXARGTB
 00000004                                     714+ARGTABLE_ARGSTRING_LENGTH DS  F        Length of the argument string    01-IRXARGTB
 00000008                                     715+ARGTABLE_NEXT             DS  0D       Next ARGTABLE entry              01-IRXARGTB
 00000008                                     716+         DS  0D                        Align on doubleword boundary     01-IRXARGTB
                                              717+*/********************************************************************/            
                                              718+*/*                                                                  */            
                                              719+*/*  ARGSTRING - REXX Argument String                                */            
                                              720+*/*                                                                  */            
                                              721+*/********************************************************************/            
000000000                00000000 00000008    723+ARGSTRING DSECT                        REXX Argument String             01-IRXARGTB
0                                             725+*/********************************************************************/            
                                              726+*/*                                                                  */            
                                              727+*/*  ARGTABLE_END - REXX Argument Table End                          */            
                                              728+*/*                                                                  */            
                                              729+*/********************************************************************/            
000000000 FFFFFFFFFFFFFFFF                    731+ARGTABLE_END DC  XL8'FFFFFFFFFFFFFFFF' End of ARGTABLE marker           01-IRXARGTB
                                              732          IRXEVALB                      REXX EVAL BLOCK                             
                                              733+*/***START OF SPECIFICATIONS******************************************/            
                                              734+*/*                                                                  */            
                                              735+*/*  MACRO-NAME = IRXEVALB                                           */            
                                              736+*/*                                                                  */            
                                              737+*/*  DESCRIPTIVE-NAME = REXX Evaluation Block (EVALBLOCK) control    */            
                                              738+*/*                     block mapping.                               */            
                                              739+*/*                                                                  */            
                                              740+*/*01* PROPRIETARY STATEMENT=                                        */            
                                              741+*/***PROPRIETARY_STATEMENT********************************************/            
                                              742+*/*                                                                  */            
                                              743+*/*                                                                  */            
                                              744+*/* LICENSED MATERIALS - PROPERTY OF IBM                             */            
                                              745+*/* THIS MACRO IS "RESTRICTED MATERIALS OF IBM"                      */            
                                              746+*/* 5685-025 (C) COPYRIGHT IBM CORP. 1988, 1991                      */            
                                              747+*/* SEE COPYRIGHT INSTRUCTIONS                                       */            
                                              748+*/*                                                                  */            
                                              749+*/* STATUS= JTE23X2                                                  */            
                                              750+*/*                                                                  */            
                                              751+*/***END_OF_PROPRIETARY_STATEMENT*************************************/            
                                              752+*/*                                                                  */            
                                              753+*/*  FUNCTION = The REXX Evaluation Block (EVALBLOCK) contains       */            
                                              754+*/*             information concerning the result of a REXX          */            
                                              755+*/*             function.  Information such as the length of the     */            
                                              756+*/*             result and the result itself are included in the     */            
                                              757+*/*             EVALBLOCK.                                           */            
                                              758+*/*                                                                  */            
                                              759+*/*  MACRO-TYPE = Mapping macro                                      */            
1QUERYSMS REXX FUNCTION - QUERY SMS                                                                             Page   17            
   Active Usings: ARGTABLE_ENTRY,R8  EVALBLOCK,R9  EFPL,R10  ENVBLOCK,R11  QUERYSMS,R12  DATA,R13                                    
0D-Loc    Object Code      Addr1    Addr2    Stmt  Source Statement                          HLASM R6.0  2012/02/10 10.07            
0                                             760+*/*                                                                  */            
                                              761+*/*  NOTES = None                                                    */            
                                              762+*/*                                                                  */            
                                              763+*/*  PROCESSOR = BAL                                                 */            
                                              764+*/*                                                                  */            
                                              765+*/*  MACRO-SIZE = See listing                                        */            
                                              766+*/*                                                                  */            
                                              767+*/*  INVOCATION = IRXEVALB  DECLARE=<YES|NO> (Default NO)   @E23XD2BJ*/            
                                              768+*/*                                                                  */            
                                              769+*/*               Addressability to the EVALBLOCK can be obtained    */            
                                              770+*/*               via a USING on EVALBLOCK.                          */            
                                              771+*/*                                                          @E23X2BJ*/            
                                              772+*/*               The use of the keyword DECLARE will        @E23X2BJ*/            
                                              773+*/*               control the position of the assembler      @E23X2BJ*/            
                                              774+*/*               statements provided in the macro.  To have @E23X2BJ*/            
                                              775+*/*               the statements appear in the program's     @E23X2BJ*/            
                                              776+*/*               storage, two things are required:          @E23X2BJ*/            
                                              777+*/*                  1) The CSECT statement must be active   @E23X2BJ*/            
                                              778+*/*               prior to the invocation of the macro.      @E23X2BJ*/            
                                              779+*/*                  2) DECLARE=YES needs to be specified on @E23X2BJ*/            
                                              780+*/*               the macro invocation.                      @E23X2BJ*/            
                                              781+*/*                                                                  */            
                                              782+*/*                                                                  */            
                                              783+*/*  CHANGE-ACTIVITY =                                               */            
                                              784+*/*                                                                  */            
                                              785+*/*  Created for TSO/E Version 2.1.0                         @E21D2C2*/            
                                              786+*/*                                                                  */            
                                              787+*/*  Updated for TSO/E Version 2.3.1                         @E23X2BJ*/            
                                              788+*/*                                                          @E23X2BJ*/            
                                              789+*/***END OF SPECIFICATIONS********************************************/            
1QUERYSMS REXX FUNCTION - QUERY SMS                                                                             Page   18            
   Active Usings: ARGTABLE_ENTRY,R8  EVALBLOCK,R9  EFPL,R10  ENVBLOCK,R11  QUERYSMS,R12  DATA,R13                                    
0D-Loc    Object Code      Addr1    Addr2    Stmt  Source Statement                          HLASM R6.0  2012/02/10 10.07            
0                                             791+*/********************************************************************/            
                                              792+*/*                                                                  */            
                                              793+*/*  EVALBLOCK - REXX Evaluation Block                               */            
                                              794+*/*                                                                  */            
                                              795+*/********************************************************************/            
000000000                00000000 00000011    797+EVALBLOCK DSECT                        REXX Evaluation Block            01-IRXEVALB
 00000000                                     798+EVALBLOCK_EVPAD1 DS  F                 Reserved - set to binary zero    01-IRXEVALB
 00000004                                     799+EVALBLOCK_EVSIZE DS  F                 Size of EVALBLOCK in double      01-IRXEVALB
                                              800+*                                      words                                       
 00000008                                     801+EVALBLOCK_EVLEN  DS  F                 Length of data                   01-IRXEVALB
 0000000C                                     802+EVALBLOCK_EVPAD2 DS  F                 Reserved - set to binary zero    01-IRXEVALB
 00000010                                     803+EVALBLOCK_EVDATA DS  C                 Result                           01-IRXEVALB
                                              804          IRXEXTE                       REXX ROUTINES                               
                                              805+*/***START OF SPECIFICATIONS******************************************/            
                                              806+*/*                                                                  */            
                                              807+*/*  MACRO-NAME = IRXEXTE                                            */            
                                              808+*/*                                                                  */            
                                              809+*/*  DESCRIPTIVE-NAME = REXX Vector of External Entry Points         */            
                                              810+*/*                     (IRXEXTE) control block mapping.             */            
                                              811+*/*                                                                  */            
                                              812+*/*01* PROPRIETARY STATEMENT=                                        */            
                                              813+*/***PROPRIETARY_STATEMENT********************************************/            
                                              814+*/*                                                                  */            
                                              815+*/*                                                                  */            
                                              816+*/* LICENSED MATERIALS - PROPERTY OF IBM                             */            
                                              817+*/* THIS MACRO IS "RESTRICTED MATERIALS OF IBM"                      */            
                                              818+*/* 5685-025 (C) COPYRIGHT IBM CORP. 1988, 1991                      */            
                                              819+*/* SEE COPYRIGHT INSTRUCTIONS                                       */            
                                              820+*/*                                                                  */            
                                              821+*/* STATUS= JTE23X2                                                  */            
                                              822+*/*                                                                  */            
                                              823+*/***END_OF_PROPRIETARY_STATEMENT*************************************/            
                                              824+*/*                                                                  */            
                                              825+*/*  FUNCTION = The REXX Vector of External Entry Points (IRXEXTE)   */            
                                              826+*/*             contains addresses of external REXX routines and     */            
                                              827+*/*             replaceable REXX routines.  The first element in     */            
                                              828+*/*             the REXX Vector of External Entry Points (IRXEXTE)   */            
                                              829+*/*             contains the number of entry points in the REXX      */            
                                              830+*/*             Vector of External Entry Points (IRXEXTE).  The REXX */            
                                              831+*/*             Vector of External Entry Points (IRXEXTE) is pointed */            
                                              832+*/*             to by the ENVBLOCK_IRXEXTE field in the ENVBLOCK.    */            
                                              833+*/*                                                                  */            
                                              834+*/*             Each REXX replaceable routine is represented by two  */            
                                              835+*/*             entry points.  The first entry point contains the    */            
                                              836+*/*             address of the replaceable routine or the default    */            
                                              837+*/*             TSO/E routine if a replaceable routine has not been  */            
                                              838+*/*             provided.  The second entry point contains the       */            
                                              839+*/*             address of the default TSO/E routine, regardless of  */            
                                              840+*/*             whether or not a replaceable routine has been        */            
                                              841+*/*             provided.                                            */            
                                              842+*/*                                                                  */            
                                              843+*/*  MACRO-TYPE = Mapping macro                                      */            
                                              844+*/*                                                                  */            
                                              845+*/*  NOTES = None                                                    */            
1QUERYSMS REXX FUNCTION - QUERY SMS                                                                             Page   19            
   Active Usings: ARGTABLE_ENTRY,R8  EVALBLOCK,R9  EFPL,R10  ENVBLOCK,R11  QUERYSMS,R12  DATA,R13                                    
0D-Loc    Object Code      Addr1    Addr2    Stmt  Source Statement                          HLASM R6.0  2012/02/10 10.07            
0                                             846+*/*                                                                  */            
                                              847+*/*  PROCESSOR = BAL                                                 */            
                                              848+*/*                                                                  */            
                                              849+*/*  MACRO-SIZE = See listing                                        */            
                                              850+*/*                                                                  */            
                                              851+*/*  INVOCATION = IRXEXTE                                            */            
                                              852+*/*                                                                  */            
                                              853+*/*               Addressability to the REXX Vector of External      */            
                                              854+*/*               Entry Points (IRXEXTE) can be obtained via a USING */            
                                              855+*/*               on IRXEXTE.                                        */            
                                              856+*/*                                                                  */            
                                              857+*/*  CHANGE-ACTIVITY =                                               */            
                                              858+*/*                                                                  */            
                                              859+*/*  Created for TSO/E 2.1.0                                 @E21D2C2*/            
                                              860+*/*                                                                  */            
                                              861+*/*  Modified for TSO/E 2.3.1                                @E23X2BJ*/            
                                              862+*/*                                                                  */            
                                              863+*/***END OF SPECIFICATIONS********************************************/            
1QUERYSMS REXX FUNCTION - QUERY SMS                                                                             Page   20            
   Active Usings: ARGTABLE_ENTRY,R8  EVALBLOCK,R9  EFPL,R10  ENVBLOCK,R11  QUERYSMS,R12  DATA,R13                                    
0D-Loc    Object Code      Addr1    Addr2    Stmt  Source Statement                          HLASM R6.0  2012/02/10 10.07            
0                                             865+*/********************************************************************/            
                                              866+*/*                                                                  */            
                                              867+*/*  IRXEXTE - REXX Vector of External Entry Points                  */            
                                              868+*/*                                                                  */            
                                              869+*/********************************************************************/            
000000000                00000000 0000006C    871+IRXEXTE  DSECT                         REXX Vector of External          01-IRXEXTE 
                                              872+*                                      Entry Points                                
 00000000                                     873+         DS    0D                      Align on doubleword boundary     01-IRXEXTE 
 00000000                                     874+IRXEXTE_ENTRY_COUNT DS F               Number of entry points in the    01-IRXEXTE 
                                              875+*                                      REXX Vector of External Entry               
                                              876+*                                      Points                                      
 00000004                                     877+IRXINIT        DS A                    IRXINIT - REXX Initialization    01-IRXEXTE 
                                              878+*                                      Routine                                     
 00000008                                     879+LOAD_ROUTINE   DS A                    LOAD_ROUTINE - REXX Load Exec    01-IRXEXTE 
                                              880+*                                      Routine                                     
 0000000C                                     881+IRXLOAD        DS A                    IRXLOAD - Default REXX Load Exec 01-IRXEXTE 
                                              882+*                                      Routine                                     
 00000010                                     883+IRXEXCOM       DS A                    IRXEXCOM - REXX Variable Access  01-IRXEXTE 
                                              884+*                                      Routine                                     
 00000014                                     885+IRXEXEC        DS A                    IRXEXEC - REXX Run Exec Routine  01-IRXEXTE 
 00000018                                     886+IO_ROUTINE     DS A                    IO_ROUTINE - REXX Input/Output   01-IRXEXTE 
                                              887+*                                      Routine                                     
 0000001C                                     888+IRXINOUT       DS A                    IRXINOUT - Default REXX          01-IRXEXTE 
                                              889+*                                      Input/Output Routine                        
 00000020                                     890+IRXJCL         DS A                    IRXJCL - REXX JCL Routine        01-IRXEXTE 
 00000024                                     891+IRXRLT         DS A                    IRXRLT - REXX Get Result Routine 01-IRXEXTE 
 00000028                                     892+STACK_ROUTINE  DS A                    STACK_ROUTINE - REXX Data Stack  01-IRXEXTE 
                                              893+*                                      Handling Routine                            
 0000002C                                     894+IRXSTK         DS A                    IRXSTK - Default REXX Data Stack 01-IRXEXTE 
                                              895+*                                      Handling Routine                            
 00000030                                     896+IRXSUBCM       DS A                    IRXSUBCM - REXX Subcommand       01-IRXEXTE 
                                              897+*                                      Service Routine                             
 00000034                                     898+IRXTERM        DS A                    IRXTERM - REXX Termination       01-IRXEXTE 
                                              899+*                                      Routine                                     
 00000038                                     900+IRXIC          DS A                    IRXIC - REXX Immediate Commands  01-IRXEXTE 
                                              901+*                                      Routine                                     
 0000003C                                     902+MSGID_ROUTINE  DS A                    MSGID_ROUTINE - REXX Message ID  01-IRXEXTE 
                                              903+*                                      Routine                                     
 00000040                                     904+IRXMSGID       DS A                    IRXMSGID - Default REXX Message  01-IRXEXTE 
                                              905+*                                      ID Routine                                  
 00000044                                     906+USERID_ROUTINE DS A                    USERID_ROUTINE - REXX User ID    01-IRXEXTE 
                                              907+*                                      Routine                                     
 00000048                                     908+IRXUID         DS A                    IRXUID - Default REXX User ID    01-IRXEXTE 
                                              909+*                                      Routine                                     
 0000004C                                     910+IRXTERMA       DS A                    IRXTERMA - REXX Abnormal         01-IRXEXTE 
                                              911+*                                      Termination Routine                         
 00000050                                     912+IRXSAY         DS A                    IRXSAY - REXX SAY      @E23X2BJ  01-IRXEXTE 
                                              913+*                                      Instruction Routine    @E23X2BJ             
 00000054                                     914+IRXERS         DS A                    IRXERS - REXX External @E23X2BJ  01-IRXEXTE 
                                              915+*                                      Routine Search Routine @E23X2BJ             
 00000058                                     916+IRXHST         DS A                    IRXHST - REXX Host     @E23X2BJ  01-IRXEXTE 
                                              917+*                                      Command Search Routine @E23X2BJ             
 0000005C                                     918+IRXHLT         DS A                    IRXHLT - REXX Halt     @E23X2BJ  01-IRXEXTE 
                                              919+*                                      Condition Routine      @E23X2BJ             
1QUERYSMS REXX FUNCTION - QUERY SMS                                                                             Page   21            
   Active Usings: ARGTABLE_ENTRY,R8  EVALBLOCK,R9  EFPL,R10  ENVBLOCK,R11  QUERYSMS,R12  DATA,R13                                    
0D-Loc    Object Code      Addr1    Addr2    Stmt  Source Statement                          HLASM R6.0  2012/02/10 10.07            
000000060                                     920+IRXTXT         DS A                    IRXTXT - REXX Text     @E23X2BJ  01-IRXEXTE 
                                              921+*                                      Retrieval Routine      @E23X2BJ             
 00000064                                     922+IRXLIN         DS A                    IRXLIN - REXX LINESIZE @E23X2BJ  01-IRXEXTE 
                                              923+*                                      Routine                @E23X2BJ             
 00000068                                     924+IRXRTE         DS A                    IRXRTE - REXX Exit     @E23X2BJ  01-IRXEXTE 
                                              925+*                                      Routing Routine        @E23X2BJ             
                                              926          IEFUCBOB DEVCLAS=DA,PREFIX=YES  UCB MAPPING                               
                                              927+*%UCBL1 : ;                                                                        
                                              928+*/*****START OF SPECIFICATIONS****************************************/            
                                              929+*/********************************************************************/            
                                              930+*/*                                                                  */            
                                              931+*/*            U N I T   C O N T R O L   B L O C K                   */            
                                              932+*/*                                                                  */            
                                              933+*/********************************************************************/            
                                              934+*/*                                                                  */            
                                              935+*/*                                                                  */            
                                              936+*/*01* MACRO-NAME:  IEFUCBOB                                     @LFC*/            
                                              937+*/*                                                                  */            
                                              938+*/*01*  DESCRIPTIVE NAME:  UCB Mapping Macro                     @LFC*/            
                                              939+*/*                                                                  */            
                                              940+*/*02*   ACRONYM:  UCB                                           @LFA*/            
                                              941+*/*                                                                  */            
                                              942+*/*01* DSECT-NAME:   UCB                                         @LFA*/            
                                              943+*/*                                                                  */            
                                              944+*/*01* PROPRIETARY STATEMENT=                                    @PDC*/            
                                              945+*/***PROPRIETARY_STATEMENT********************************************/            
                                              946+*/*                                                                  */            
                                              947+*/*                                                                  */            
                                              948+*/* LICENSED MATERIALS - PROPERTY OF IBM                             */            
                                              949+*/* 5694-A01 COPYRIGHT IBM CORP. 1977, 2008                          */            
                                              950+*/*                                                                  */            
                                              951+*/* STATUS= HBB7750                                                  */            
                                              952+*/*                                                                  */            
                                              953+*/***END_OF_PROPRIETARY_STATEMENT*************************************/            
                                              954+*/*                                                                  */            
                                              955+*/*01* COMPONENT:  IOS (SC1C3)                                   @LFA*/            
                                              956+*/*                                                                  */            
                                              957+*/*01* EYE CATCHER:  'FF'X                                       @LFA*/            
                                              958+*/*                                                                  */            
                                              959+*/*02*    OFFSET:  3 BYTES FROM THE BEGINNING OF THE UCB COMMON  @LFA*/            
                                              960+*/*                SEGMENT                                       @LFA*/            
                                              961+*/*                                                                  */            
                                              962+*/*02*    LENGTH:  1 BYTE                                        @LFA*/            
                                              963+*/*                                                                  */            
                                              964+*/*01* STORAGE ATTRIBUTES:                                       @LFA*/            
                                              965+*/*                                                                  */            
                                              966+*/*02*     SUBPOOL:     245 (SQA/ESQA).                          @M6C*/            
                                              967+*/*                     255 (LSQA) for UCBs captured in private. @M6C*/            
                                              968+*/*02*     KEY:         0                                        @LFA*/            
                                              969+*/*02*     RESIDENCY:   ABOVE or BELOW depending on the device   @M6C*/            
                                              970+*/*                     definition. A particular UCB resides     @M6C*/            
                                              971+*/*                     above 16Mb if the device type supports   @M6C*/            
                                              972+*/*                     UCBs above 16Mb and the installation     @M6C*/            
                                              973+*/*                     defines the UCB to reside above 16Mb.    @M6C*/            
                                              974+*/*                     (Captured UCBs reside below 16Mb.)       @M6C*/            
1QUERYSMS REXX FUNCTION - QUERY SMS                                                                             Page   22            
   Active Usings: ARGTABLE_ENTRY,R8  EVALBLOCK,R9  EFPL,R10  ENVBLOCK,R11  QUERYSMS,R12  DATA,R13                                    
0D-Loc    Object Code      Addr1    Addr2    Stmt  Source Statement                          HLASM R6.0  2012/02/10 10.07            
0                                             975+*/*                                                                  */            
                                              976+*/*03* If a UCB resides above 16Mb, the following shows              */            
                                              977+*/*    the parts of the UCB and indicates if they are                */            
                                              978+*/*    captured or not when the UCB is captured.                 @P8A*/            
                                              979+*/*                                                                  */            
                                              980+*/*03* UCB Common Extension         - Captured               -   @P8A*/            
                                              981+*/*03* UCB Prefix Stub              - Captured               -   @P8A*/            
                                              982+*/*03* UCB Common Segment           - Captured               -   @P8A*/            
                                              983+*/*03* UCB Device Dependent Segment - Captured               -   @P8A*/            
                                              984+*/*03* Device Dependent Extension   - Not Captured           -   @P8A*/            
                                              985+*/*03* Device Class Extension       - Captured unless UIM        @P8A*/            
                                              986+*/*                                   specified DCE as shared    @P8A*/            
                                              987+*/*                                   or DCE can reside          @P8A*/            
                                              988+*/*                                   in 31 bit storage          @P8A*/            
                                              989+*/*                                   independent of LOCANY      @P8A*/            
                                              990+*/*                                                                  */            
                                              991+*/*01* FUNCTION:                                                 @LFA*/            
                                              992+*/*                                                                  */            
                                              993+*/*02*  This mapping describes the control block required to define  */            
                                              994+*/*     an I/O device to the system.                                 */            
                                              995+*/*                                                                  */            
                                              996+*/*02*  The UCB contains all the information necessary for the       */            
                                              997+*/*     device to be used for performing I/O requests and records    */            
                                              998+*/*     the status of a physical I/O device represented by a         */            
                                              999+*/*     subchannel.                                                  */            
                                             1000+*/*                                                                  */            
                                             1001+*/*02*  The UCB describes the characteristics of a device to the     */            
                                             1002+*/*     operating system. The UCB is used by the I/O supervisor      */            
                                             1003+*/*     in performing I/O requests, and the job scheduler during     */            
                                             1004+*/*     allocation of the device.  There is a UCB for each device    */            
                                             1005+*/*     defined in the I/O configuration. The hardware           @M6C*/            
                                             1006+*/*     configuration definition (HCD) stores the device         @M6C*/            
                                             1007+*/*     definition data in an I/O definition file (IODF).        @M6C*/            
                                             1008+*/*                                                                  */            
                                             1009+*/*01* NOTE: For device code definitions, see the UCBTYP data area   */            
                                             1010+*/*          description.                                        @LFA*/            
                                             1011+*/*                                                                  */            
                                             1012+*/*01* NOTE: UCB Class DASD extension information may be found under */            
                                             1013+*/*          the acronym DCE.                                    @LFA*/            
                                             1014+*/*                                                                  */            
                                             1015+*/*01* Created by: IEAIPL03 IOSVCMUB                             @M2C*/            
                                             1016+*/*                                                                  */            
                                             1017+*/*01* Deleted by: IOSVCMUD IOSVCMES                             @M2A*/            
                                             1018+*/*                                                                  */            
                                             1019+*/*01* POINTED TO BY:                                            @LFA*/            
                                             1020+*/*                                                                  */            
                                             1021+*/*02* -The UCB common segment address can be obtained by        @P8A*/            
                                             1022+*/*     invoking UCBLOOK or UCBSCAN.                             @P8A*/            
                                             1023+*/*                                                                  */            
                                             1024+*/*02* -The UCB common extension address can be obtained by      @P8A*/            
                                             1025+*/*     invoking IOSCMXR, IOSCMXA, UCBLOOK UCBCXPTR or           @P9C*/            
                                             1026+*/*     UCBSCAN UCBCXPTR.                                        @P8A*/            
                                             1027+*/*                                                                  */            
                                             1028+*/*02* -The UCB address located from the UCB chain field points  @LFC*/            
                                             1029+*/*     to the UCB common segment.                               @P8C*/            
1QUERYSMS REXX FUNCTION - QUERY SMS                                                                             Page   23            
   Active Usings: ARGTABLE_ENTRY,R8  EVALBLOCK,R9  EFPL,R10  ENVBLOCK,R11  QUERYSMS,R12  DATA,R13                                    
0D-Loc    Object Code      Addr1    Addr2    Stmt  Source Statement                          HLASM R6.0  2012/02/10 10.07            
0                                            1030+*/*                                                                  */            
                                             1031+*/*02* -The common segment of the first STATIC/INSTALLATION STATIC,  */            
                                             1032+*/*     3-digit, below 16Mb UCB is pointed to by the CVTUCBA     @M6C*/            
                                             1033+*/*     field of the CVT. The UCBNXUCB field of the UCB common   @M6C*/            
                                             1034+*/*     segment points to the next STATIC/INSTALLATION STATIC,   @M6C*/            
                                             1035+*/*     3-digit, below 16Mb UCB on the chain.                    @M6C*/            
                                             1036+*/*                                                                  */            
                                             1037+*/*02* -The Device Class Queue (DCQ) is pointed to by the        @LFC*/            
                                             1038+*/*     CVTDCQA field in the CVT. The first STATIC/INSTALLATION      */            
                                             1039+*/*     STATIC, 3-digit, below 16Mb UCB within the device class  @M6C*/            
                                             1040+*/*     is pointed to by the DCQUCBAD field.                     @M6C*/            
                                             1041+*/*                                                                  */            
                                             1042+*/*02* -DEBUCBAD field of the DEB                                @LFA*/            
                                             1043+*/*02* -DDRFMUCB field of the DDRCOM data area                   @LFA*/            
                                             1044+*/*02* -DDRTOUCB field of the DDRCOM data area                   @LFA*/            
                                             1045+*/*02* -IOSUCB   field of the IOSB data area                     @LFA*/            
                                             1046+*/*02* -IOQUCB   field of the IOQ data area                      @LFA*/            
                                             1047+*/*02* -JESUNITS field of the JESCT data area                    @LFA*/            
                                             1048+*/*02* -PCCACHUB field of the PCCA data area                     @LFA*/            
                                             1049+*/*      (channel-detected error UCB)                            @LFA*/            
                                             1050+*/*02* -RQEUCB   field of the RQE data area                      @LFA*/            
                                             1051+*/*02* -SSDRSFRU field of the SSDR data area                     @LFA*/            
                                             1052+*/*02* -SSDRSTOU field of the SSDR data area                     @LFA*/            
                                             1053+*/*02* -TCCWUCB  field of the TCCW data area                     @LFA*/            
                                             1054+*/*02* -TCTUCBP  field of the TCT data area                      @LFA*/            
                                             1055+*/*02* -TIOEFSRT field of the TIOT data area                     @LFA*/            
                                             1056+*/*                                                                  */            
                                             1057+*/*01* SIZE:                                                     @LFA*/            
                                             1058+*/*                                                                  */            
                                             1059+*/*02* Device Class Extension      : 0 to 256 bytes              @P8C*/            
                                             1060+*/*02* UCB Common Extension        : 32 bytes for all devices    @P8C*/            
                                             1061+*/*02* UCB Prefix Stub             : 8 bytes for all devices     @P8C*/            
                                             1062+*/*02* UCB Common Segment          : 24 bytes for all devices    @P8C*/            
                                             1063+*/*02* UCB Device Dependent Segment: 0 to 24 bytes for below     @P8C*/            
                                             1064+*/*    16Mb devices. No limit on the size for above 16Mb devices @P8C*/            
                                             1065+*/*02* Device Dependent Extension  : 0 to 40 bytes               @P8C*/            
                                             1066+*/*                                                                  */            
                                             1067+*/*01* SERIALIZATION: UCB lock, compare and swap logic, ENQ on   @LFA*/            
                                             1068+*/*                   major SYSIEFSD minor Q4.                   @LFA*/            
                                             1069+*/*                   The method used is field dependant.        @P8A*/            
                                             1070+*/*                                                                  */            
                                             1071+*/*01* EXTERNAL CLASSIFICATION:                                  @LFA*/            
                                             1072+*/*                                                                  */            
                                             1073+*/*02* DMTI: BASE                                                @LFA*/            
                                             1074+*/*                                                                  */            
                                             1075+*/*02* GUPI: FIELDS UCBALOC UCBCHAN UCBCHGS UCBDADI UCBDVCLS     @LFA*/            
                                             1076+*/*                 UCBPRES UCBPUB UCBRESV UCBSYSR UCBTBYT1      @LFA*/            
                                             1077+*/*                 UCBTBYT2 UCBTBYT3 UCBTBYT4 UCBTYP UCBUNTYP   @LFA*/            
                                             1078+*/*                 UCBONLI UCBUNLD UCBASID UCBAUTOS             @PAC*/            
                                             1079+*/*                                                                  */            
                                             1080+*/*02* PSPI: FIELDS UCBID UCBMTPXP UCBNOCON UCBNRY               @LFA*/            
                                             1081+*/*                 UCBVRDEV UCBSTND UCBCLEXT UCBREW             @LFA*/            
                                             1082+*/*                                                                  */            
                                             1083+*/*02* NOT RECOMMENDED: FIELDS UCBEXTP                           @P6A*/            
                                             1084+*/*                                                                  */            
1QUERYSMS REXX FUNCTION - QUERY SMS                                                                             Page   24            
   Active Usings: ARGTABLE_ENTRY,R8  EVALBLOCK,R9  EFPL,R10  ENVBLOCK,R11  QUERYSMS,R12  DATA,R13                                    
0D-Loc    Object Code      Addr1    Addr2    Stmt  Source Statement                          HLASM R6.0  2012/02/10 10.07            
0                                            1085+*/*01* END OF EXTERNAL CLASSIFICATION:                           @LFA*/            
                                             1086+*/*                                                                  */            
                                             1087+*/*01* NOTE: Device dependent segments                           @P8C*/            
                                             1088+*/*                                                                  */            
                                             1089+*/*02*       IECDUCBC - IOS DMTI                                 @P8C*/            
                                             1090+*/*02*       IECDUCBE - IOS DMTI                                 @P8C*/            
                                             1091+*/*02*       IECDUCBG - IOS DMTI                                 @P8C*/            
                                             1092+*/*02*       IECDUCBD - DFP PSPI                                 @P8C*/            
                                             1093+*/*02*       IECDUCBT - DFP PSPI                                 @P8C*/            
                                             1094+*/*02*       IECDUCBU - DFP PSPI except for UCBIOSBA which is    @P8C*/            
                                             1095+*/*                              DMTI                            @P8C*/            
                                             1096+*/*                                                                  */            
                                             1097+*%GOTO UCBL1A;                                                /* @L7A*/            
                                             1098+*/*                                                                  */            
                                             1099+*/*01* METHOD OF ACCESS:                                             */            
                                             1100+*/*                                                                  */            
                                             1101+*/*  KEYWORDS ON ASSEMBLER INVOCATION                                */            
                                             1102+*/*                                                                  */            
                                             1103+*/*    ASM: IEFUCBOB                                                 */            
                                             1104+*/*                                                                  */            
                                             1105+*/*  SSMD is used to control the UCB mapping. The                    */            
                                             1106+*/*  valid operands and their meanings are:                          */            
                                             1107+*/*                                                                  */            
                                             1108+*/*     NO   - Generates the standard UCB mapping. This is the       */            
                                             1109+*/*            default.                                              */            
                                             1110+*/*                                                                  */            
                                             1111+*/*     YES  - Generates the UCB mapping that is used internally     */            
                                             1112+*/*            by IOS. This mapping is for IOS use only.             */            
                                             1113+*/*                                                                  */            
                                             1114+*/*  PREFIX is used to indicate whether to generate the UCB prefix   */            
                                             1115+*/*  area in the UCB mapping. The UCB prefix area is a nominal       */            
                                             1116+*/*  area of 512 bytes preceding the UCB.  The prefix area includes  */            
                                             1117+*/*  the prefix stub, but no longer includes the IOS UCB prefix. The */            
                                             1118+*/*  IOS UCB prefix is no longer contiguous to the UCB common        */            
                                             1119+*/*  segment.  The IOS UCB prefix is not an intended interface       */            
                                             1120+*/*  other than through the usage of UCB services.               @PCC*/            
                                             1121+*/*                                                                  */            
                                             1122+*/*  A copy of the UCB prefix information area including both        */            
                                             1123+*/*  the IOS UCB prefix and the UCB prefix stub may be obtained using*/            
                                             1124+*/*  UCB services (UCBINFO, UCBLOOK, or UCBSCAN) and is mapped by    */            
                                             1125+*/*  the IOSDUPI and IOSDUCBP mapping macros.                    @PCA*/            
                                             1126+*/*                                                                  */            
                                             1127+*/*  The address of the IOS UCB prefix may be obtained using UCB    */             
                                             1128+*/*  services (UCBLOOK and UCBSCAN) and is mapped by the IOSDUPFX    */            
                                             1129+*/*  and IOSDUCBP mapping macros.  This does not include the UCB     */            
                                             1130+*/*  prefix stub.                                                @PCA*/            
                                             1131+*/*                                                                  */            
                                             1132+*/*  This keyword is ignored if SSMD=YES                             */            
                                             1133+*/*  is specified. (The prefix area is always generated when         */            
                                             1134+*/*  SSMD=YES is specified.) The valid operands and their meanings   */            
                                             1135+*/*  are:                                                            */            
                                             1136+*/*                                                                  */            
                                             1137+*/*     NO   - The UCB prefix area is not mapped. This is the        */            
                                             1138+*/*            default. A DSECT statement should precede the macro   */            
                                             1139+*/*            call. Symbols in the common segment and device        */            
1QUERYSMS REXX FUNCTION - QUERY SMS                                                                             Page   25            
   Active Usings: ARGTABLE_ENTRY,R8  EVALBLOCK,R9  EFPL,R10  ENVBLOCK,R11  QUERYSMS,R12  DATA,R13                                    
0D-Loc    Object Code      Addr1    Addr2    Stmt  Source Statement                          HLASM R6.0  2012/02/10 10.07            
0                                            1140+*/*            dependent segments are addressable by a USING on      */            
                                             1141+*/*            UCBOB. Additional USING statements are necessary      */            
                                             1142+*/*            to obtain addressability to the UCB extensions.       */            
                                             1143+*/*                                                                  */            
                                             1144+*/*     YES  - The UCB prefix area is mapped. A DSECT statement      */            
                                             1145+*/*            labeled UCB is generated. A USING statement on the    */            
                                             1146+*/*            symbol UCB will provide addressability to all         */            
                                             1147+*/*            portions of the UCB except the extensions. Additional */            
                                             1148+*/*            USING statements are necessary to obtain address-     */            
                                             1149+*/*            ability to the extensions.                            */            
                                             1150+*/*                                                                  */            
                                             1151+*/*  DEVCLAS is used to specify which device dependent mappings are  */            
                                             1152+*/*  to be generated. The valid operands and their meanings are:     */            
                                             1153+*/*                                                                  */            
                                             1154+*/*     ALL  - Include all device dependent mappings. This is the    */            
                                             1155+*/*            default                                               */            
                                             1156+*/*     NONE - Do not include any device dependent mappings          */            
                                             1157+*/*     CE   - Include the communications equipment device mapping   */            
                                             1158+*/*     CT   - Include the CTC device mapping                        */            
                                             1159+*/*     DA   - Include the DASD device mapping                       */            
                                             1160+*/*     GR   - Include the graphics device mapping                   */            
                                             1161+*/*     MT   - Include the magnetic tape device mapping              */            
                                             1162+*/*     UR   - Include the unit record device mapping                */            
                                             1163+*/*                                                                  */            
                                             1164+*/*     If an unrecognized operand is specified on the DEVCLAS       */            
                                             1165+*/*     keyword, the UCB will expand to include all of the device    */            
                                             1166+*/*     dependent mappings.                                          */            
                                             1167+*/*                                                                  */            
                                             1168+*/*     The CE, CT, DA, GR, MT, and UR operands can be specified     */            
                                             1169+*/*     as sublist entries if more than one category of device       */            
                                             1170+*/*     dependent mapping is required.                               */            
                                             1171+*/*                                                                  */            
                                             1172+*/*  LIST is used to suppress the macro expansion listing.  If       */            
                                             1173+*/*     LIST=NO is specified, the listing is suppressed.  The        */            
                                             1174+*/*     default is LIST=YES.                                     @P5A*/            
                                             1175+*/*                                                                  */            
                                             1176+*%UCBL1B : ;                                                  /* @L7A*/            
                                             1177+*/*                                                                  */            
                                             1178+*/*01* OUTPUT                                                        */            
                                             1179+*/*                                                                  */            
                                             1180+*/*      Prefix stub                                             @P8C*/            
                                             1181+*/*      Common segment                                              */            
                                             1182+*/*      Common extension                generated by inner macro    */            
                                             1183+*/*      Device dependent segment        generated by inner macro    */            
                                             1184+*/*      Device dependent extension      generated by inner macro    */            
                                             1185+*/*                                                                  */            
                                             1186+*/*      The device class extensions are generated by independent    */            
                                             1187+*/*      macros.                                                     */            
                                             1188+*/*                                                                  */            
                                             1189+*/*01* NOTES                                                         */            
                                             1190+*/*                                                                  */            
                                             1191+*/*    - To obtain addressability to the                         @P8M*/            
                                             1192+*/*      UCB prefix area and the UCB prefix stub,                @P8M*/            
                                             1193+*/*      subtract the prefix area length from the                @P8M*/            
                                             1194+*/*      common segment address (i.e., UCBOB-UCBPFXLN).          @P8M*/            
1QUERYSMS REXX FUNCTION - QUERY SMS                                                                             Page   26            
   Active Usings: ARGTABLE_ENTRY,R8  EVALBLOCK,R9  EFPL,R10  ENVBLOCK,R11  QUERYSMS,R12  DATA,R13                                    
0D-Loc    Object Code      Addr1    Addr2    Stmt  Source Statement                          HLASM R6.0  2012/02/10 10.07            
0                                            1195+*/*                                                                  */            
                                             1196+*/*    - Field names beginning with the following character          */            
                                             1197+*/*      strings have been reserved for use by the indicated         */            
                                             1198+*/*      macros.                                                     */            
                                             1199+*/*                                                                  */            
                                             1200+*/*      String    Macro       Description                           */            
                                             1201+*/*      ------    -----       -----------                           */            
                                             1202+*/*                                                                  */            
                                             1203+*/*      UCBCT     IECDUCBC    UCB CTC mapping                       */            
                                             1204+*/*      UCBCX     IECUCBCX    UCB tape class extension mapping      */            
                                             1205+*/*      UCBD      IECDUCBD    UCB DASD mapping                      */            
                                             1206+*/*      UCBE      IECDUCBE    UCB communications mapping            */            
                                             1207+*/*      UCBG      IECDUCBG    UCB graphics mapping                  */            
                                             1208+*/*      UCBSX     IRDUCBSX    UCB ESCON Director mapping        @LFA*/            
                                             1209+*/*      UCBT      IECDUCBT    UCB magnetic tape mapping             */            
                                             1210+*/*      UCBU      IECDUCBU    UCB unit record mapping               */            
                                             1211+*/*                                                                  */            
                                             1212+*/*    - When coding the UCB mapping using the LIKE attribute        */            
                                             1213+*/*      or using any OO methods that make the UCB public, the       */            
                                             1214+*/*      user may code %UCB_CLASS = 'PUBLIC' prior to including      */            
                                             1215+*/*      the UCB mappings.  This will cause the mapping to be        */            
                                             1216+*/*      properly dot qualified so that the compiler can             */            
                                             1217+*/*      resolve the references to the different structures          */            
                                             1218+*/*      using this mapping.  Note that most of the device           */            
                                             1219+*/*      dependent mappings do not support this function.        @0CA*/            
                                             1220+*/*                                                                  */            
                                             1221+*/*01* CHANGE ACTIVITY                                               */            
                                             1222+*/*                                                                  */            
                                             1223+*/*  $MAC(IEFUCBOB),COMP(SC1C3): Unit Control Block                  */            
                                             1224+*/*                                                                  */            
                                             1225+*/*   PN  REASON    RLSE    DATE    ORG       COMMENTS               */            
                                             1226+*/*  @G860PLN                          : IOS rewrite                 */            
                                             1227+*/*  $L2= SECP    JBB1326  800801  PDLT: Seldom ending channel pgm   */            
                                             1228+*/*  $L3= RAS     JBB1326  800801  PDLT: MIH RAS enhancements        */            
                                             1229+*/*  $L4= PTR     JBB1326  810331  PDLN: Printer model               */            
                                             1230+*/*  $L5=CHPRECVY JBB2125  830131  PDLY: CHP recovery enhancements   */            
                                             1231+*/*  $L6=IOGEN    JBB2220  840611  PDLY: IOGEN Restructure           */            
                                             1232+*/*  $L7=XDEVNUM  HBB3310  850925  PDLY: SP3 mapping for IOS use     */            
                                             1233+*/*  $L8=VERS     HBB3310  860416  PDLE: Versioning macro into       */            
                                             1234+*/*                                      product                     */            
                                             1235+*/*  $L9=IOSRAS   HBB3310  861229  PDLE: MIH console support         */            
                                             1236+*/*  $LA=EMVS1    HBB4410  881115  PDLC: Comment changes for the     */            
                                             1237+*/*                                      Enterprise/MVS Release 1    */            
                                             1238+*/*                                      support                     */            
                                             1239+*/*  $LB=USERV    HBB4410  891231  PDLC: Separate prefix mapping     */            
                                             1240+*/*  $LC=DYNAM    HBB4410  891231  PDLG: Dynamic I/O Configuration   */            
                                             1241+*/*  $LD=DYNAM    HBB4420  900122  PDLG: Dynamic I/O Configuration   */            
                                             1242+*/*  $LE=ATLIB    HBB4430  911105  PDMC: Automatic Tape Library- Add */            
                                             1243+*/*                                      VARY command library reason */            
                                             1244+*/*                                      indicator flag.         @LEA*/            
                                             1245+*/*  $LF=4DGIT    HBB5510  930304  PDKB: Four Digit Support. Remove  */            
                                             1246+*/*                                      the UCB prefix.         @LFA*/            
                                             1247+*/*  $LG=UNAVAIL  HBB7750  070530  PDTY: Mark Tape Unavailable   @LGA*/            
                                             1248+*/*  $M1=REWORK   HBB5510  930715  PDLH: Rework ADMF support     @M1A*/            
                                             1249+*/*  $M2=UCBVP    HBB5520  940106  PDLU: UCB VSCR Support.           */            
1QUERYSMS REXX FUNCTION - QUERY SMS                                                                             Page   27            
   Active Usings: ARGTABLE_ENTRY,R8  EVALBLOCK,R9  EFPL,R10  ENVBLOCK,R11  QUERYSMS,R12  DATA,R13                                    
0D-Loc    Object Code      Addr1    Addr2    Stmt  Source Statement                          HLASM R6.0  2012/02/10 10.07            
0                                            1250+*/*                                      Change basing of the UCB    */            
                                             1251+*/*                                      Common Extension.       @M2A*/            
                                             1252+*/*  $M3=PAVS     HBB5520  940210  PDLL: PAV Support.                */            
                                             1253+*/*                                      Add UCBIOSN flag.       @M3A*/            
                                             1254+*/*  $M4=UCBVP    HBB5520  940210  PDLU: Modify UCB basing           */            
                                             1255+*/*                                      expression              @M4A*/            
                                             1256+*/*  $M5=UCBVP    HBB5520  940414  PDLS: Give old UCBNAME field      */            
                                             1257+*/*                                      a new name since it still   */            
                                             1258+*/*                                      has meaning for dummy       */            
                                             1259+*/*                                      UCBs                    @M5A*/            
                                             1260+*/*  $M6=UCBVP    HBB5520  940602  PDLC: Comment updates         @M6A*/            
                                             1261+*/*                                                                  */            
                                             1262+*/*  $H1=DREISAM  JBB2110  820526  PDLN: 3263 device                 */            
                                             1263+*/*  $H2=3480AU   JBB2125  830131  PDLT: Assign/unassign support     */            
                                             1264+*/*  $H3=3430     JBB2125  830131  PDLT: 3430 support                */            
                                             1265+*/*                                                                  */            
                                             1266+*/*  $D1= DCR93   JBB1326  801202  PDLN: Abnormal attribute, UCBSTAT */            
                                             1267+*/*  $D2=DCR89    JBB2125  830930  PDLR: Device support              */            
                                             1268+*/*  $D3=DCR097   HBB5510  930520  PDLU: Change PLAS declare of      */            
                                             1269+*/*                                      UCBWGT to abnormal.     @D3A*/            
                                             1270+*/*  $D4=DCR095   HBB5520  940912  PDLU: Change definition of        */            
                                             1271+*/*                                      UCBALOC for auto-switchable */            
                                             1272+*/*                                      devices.  Externalize       */            
                                             1273+*/*                                      UCBASID.                @D4A*/            
                                             1274+*/*                                                                  */            
                                             1275+*/*  $P1=PC42250  HBB3310  880210  PDLC: Correct potential RFY       */            
                                             1276+*/*                                      problem with the IOS SP3    */            
                                             1277+*/*                                      mapping                     */            
                                             1278+*/*  $P2=PEO4139  HBB4410  900504  PDLK: DEACTIVATE UCBP macro       */            
                                             1279+*/*                                      variable                    */            
                                             1280+*/*  $P3=PH31758  HBB4420  901126  PDLK: Add X'CC' for UCB ID        */            
                                             1281+*/*  $P4=PKB0116  HBB4430  911007  PDMC: Deactivated IHALPUSH,       */            
                                             1282+*/*                                      IHALPOP, and IHALOFF since  */            
                                             1283+*/*                                      it caused macros included   */            
                                             1284+*/*                                      after IEFUCBOB that used    */            
                                             1285+*/*                                      the variables to fail.  @P4A*/            
                                             1286+*/*  $P5=PKB1932  HBB4430  920729  PDMC: 10X Defect Elimination.     */            
                                             1287+*/*                                      Added variable IHALIST (and */            
                                             1288+*/*                                      LIST for assembler) to      */            
                                             1289+*/*                                      enable suppressing of the   */            
                                             1290+*/*                                      UCB expansion.          @P5A*/            
                                             1291+*/*  $P6=PIG2705  HBB5510  930909  PDLL: Update classification of    */            
                                             1292+*/*                                      UCBEXTP from PSPI to        */            
                                             1293+*/*                                      Not Recommended         @P6A*/            
                                             1294+*/*  $P7=PN70155  HBB5520  940210  PDLU: Correct UCB basing          */            
                                             1295+*/*                                      expression.             @P7A*/            
                                             1296+*/*  $P8=PN71276  HBB5520  940912  PDLS: Update prologue to correct  */            
                                             1297+*/*                                      places where prefix stub    */            
                                             1298+*/*                                      is referred to as the       */            
                                             1299+*/*                                      prefix                  @P8A*/            
                                             1300+*/*  $P9=PN71881  HBB5520  941020  PDLS: Change UCBCMXA to IOSCMXA.  */            
                                             1301+*/*                                      Change UCBCMXR to IOSCMXR.  */            
                                             1302+*/*                                                              @P9A*/            
                                             1303+*/*  $PA=PN72079  HBB5520  950104  PDLU: Externalize UCBAUTOS.   @PAA*/            
                                             1304+*/*  $PB=PWA0208  JBB6607  980630  PDNO: Remove obsolete copyright   */            
1QUERYSMS REXX FUNCTION - QUERY SMS                                                                             Page   28            
   Active Usings: ARGTABLE_ENTRY,R8  EVALBLOCK,R9  EFPL,R10  ENVBLOCK,R11  QUERYSMS,R12  DATA,R13                                    
0D-Loc    Object Code      Addr1    Addr2    Stmt  Source Statement                          HLASM R6.0  2012/02/10 10.07            
0                                            1305+*/*                                      statement               @PBA*/            
                                             1306+*/*  $PC=PWA0307  JBB6607  980731  PDLL: Improve comments on the     */            
                                             1307+*/*                                      prefix to aid customers     */            
                                             1308+*/*                                      understand this better. @PCA*/            
                                             1309+*/*                                                                  */            
                                             1310+*/*  $01=OZ79979  JBB2125  841001  PDLE: Provide DPS validation      */            
                                             1311+*/*                                      support and block ID        */            
                                             1312+*/*  $02=OZ81869  JBB2220  850603  PDLJ: Block ID supported on this  */            
                                             1313+*/*                                      device                      */            
                                             1314+*/*  $04=OZ90025  JBB2133  860228  PDLZ: Induced hot I/O recovery    */            
                                             1315+*/*  $05=OZ98009  JBB2125  860801  PDLG: Add Bit for device state    */            
                                             1316+*/*                                      transition flushing         */            
                                             1317+*/*  $06=OY01941  JBB2125  860601  PDLZ: Alternate PGID support      */            
                                             1318+*/*  $07=OY09623  HBB3310  871101  PDLE: Reset Event Notification    */            
                                             1319+*/*  $08=OY21399  JBB2220  880201  PDLG: CUIR Support                */            
                                             1320+*/*  $09=OY28664  HBB3310  900402  PDLH: Overlook support        @09A*/            
                                             1321+*/*  $0A=OY47085  JBB3313  910911  PDMC: Support for OY43794.    @0AA*/            
                                             1322+*/*  $0B=OW03999  HBB5510  940415  PDMC: Add back the deactivate of  */            
                                             1323+*/*                                      variable UCBP that was      */            
                                             1324+*/*                                      erroneously deleted during  */            
                                             1325+*/*                                      integration             @0BA*/            
                                             1326+*/*  $0C=OW37980  HBB6603  990531  PDLZ: Dot qualify the defines to  */            
                                             1327+*/*                                      allow public use of the UCB */            
                                             1328+*/*                                      from the method definitions.*/            
                                             1329+*/*                                      Add the UCBCLASS variable   */            
                                             1330+*/*                                      request dot qualification   */            
                                             1331+*/*                                      and to ensure that modules  */            
                                             1332+*/*                                      using lower level compilers */            
                                             1333+*/*                                      still compile.          @0CA*/            
                                             1334+*/*  $PD=PX00280  HBB7705  000631  PDG5: Clarify definition of       */            
                                             1335+*/*                                      UCBALOC for Autoswitch      */            
                                             1336+*/*                                      Tape (implementation of     */            
                                             1337+*/*                                      SUG APAR OW43522)       @PDA*/            
                                             1338+*/*  $PE=ME11525  HBB7750  080229  PDSC: Update cpyrt                */            
                                             1339+*/*                                                                  */            
                                             1340+*/*****END OF SPECIFICATIONS******************************************/            
                                             1341+*%GOTO UCBL2;   /*                                                                 
                                             1342+         PUSH  PRINT                                               @P5A 01-IEFUCBOB
                                             1343+***********************************************************************            
                                             1344+*                                                                     *            
                                             1345+*        UCB prefix area                                          @P8C*            
                                             1346+*                                                                     *            
                                             1347+***********************************************************************            
 00000000                00000000 00000238   1348+UCB      DSECT ,                   UCBPTR-512 (Where UCBPTR points      01-IEFUCBOB
                                             1349+*                                  to UCBOB)                                       
                         00000000            1350+UCBBGN   EQU   *                                                        01-IEFUCBOB
                                             1351+*                                                                                  
 00000000                                    1352+         DS    126F                Reserved                        @LFC 01-IEFUCBOB
                         000001F8            1353+UCBPXST  EQU   *                   PREFIX stub                     @P8C 01-IEFUCBOB
                                             1354+***********************************************************************            
                                             1355+***                    Prefix Stub                               @P8A**            
                                             1356+***     UCB lock word and pointer to the active IOQ element          **            
                                             1357+***********************************************************************            
 000001F8                                    1358+UCBLOCK  DS    F                   Device lock word                     01-IEFUCBOB
 000001FC                                    1359+UCBIOQ   DS    A                   Address of last queuing element      01-IEFUCBOB
1QUERYSMS REXX FUNCTION - QUERY SMS                                                                             Page   29            
   Active Usings: ARGTABLE_ENTRY,R8  EVALBLOCK,R9  EFPL,R10  ENVBLOCK,R11  QUERYSMS,R12  DATA,R13                                    
0D-Loc    Object Code      Addr1    Addr2    Stmt  Source Statement                          HLASM R6.0  2012/02/10 10.07            
0                                            1360+*                                  started, halted, or cleared                     
                                             1361+*                                  for this device.  This field                    
                                             1362+*                                  contains a valid address only when              
                                             1363+*                                  UCBSTRT, UCBHALT, or UCBCLEAR are               
                                             1364+*                                  set on.                                         
                         00000008            1365+UCBCURPX EQU   *-UCBPXST           Actual prefix stub data length  @P8C 01-IEFUCBOB
                         00000200            1366+UCBPRFX  EQU   *-UCB               Total prefix area length for prefix  01-IEFUCBOB
                                             1367+*                                  addressability                  @P8C            
-                                                                                                                                    
                                             1369+***********************************************************************            
                                             1370+*                                                                                  
                                             1371+*              UCB common segment                                                  
                                             1372+*                                                                                  
 00000200                                    1373+UCBOB    DS    0F                                                       01-IEFUCBOB
                                             1374+*                                                                                  
                                             1375+***********************************************************************            
                                             1376+*                                                                                  
                         00000200            1377+UCBCMSEG EQU   *                   Start of common segment              01-IEFUCBOB
 00000200                                    1378+UCBJBNR  DS    B                   Flag byte                            01-IEFUCBOB
                                             1379+***********************************************************************            
                                             1380+***     Fields and flags used by allocation, access methods, etc.    **            
                                             1381+***********************************************************************            
                         00000080            1382+UCBVRDEV EQU   X'80'               UCB for VIO device                   01-IEFUCBOB
                         00000040            1383+UCBJES3  EQU   X'40'               All volume mounting and device       01-IEFUCBOB
                                             1384+*                                  management for this device is                   
                                             1385+*                                  controlled by JES3                              
                         00000020            1386+UCBDUC   EQU   X'20'               Display device unit check            01-IEFUCBOB
                                             1387+*                                  detected during IPL                             
                         00000010            1388+UCBJ3DV  EQU   X'10'               Device is defined to JES3       @09A 01-IEFUCBOB
                         00000008            1389+UCBOLDSM EQU   X'08'               OLTEP communicating directly with    01-IEFUCBOB
                                             1390+*                                  the Mass Storage Control (MSC),                 
                                             1391+*                                  not through the Mass Storage System             
                                             1392+*                                  Communicator (MSSC)                             
                         00000004            1393+UCBMMSGP EQU   X'04'               Mount message pending.  The device   01-IEFUCBOB
                                             1394+*                                  has been selected by device                     
                                             1395+*                                  allocation, but no mount message has            
                                             1396+*                                  been issued.                                    
                         00000002            1397+UCBDCONS EQU   X'02'               Disabled console support controls    01-IEFUCBOB
                                             1398+*                                  this console.                                   
                         00000001            1399+UCBMONT  EQU   X'01'               Volume to be mounted is to be        01-IEFUCBOB
                                             1400+*                                  retained or contains a passed data              
                                             1401+*                                  set (Set by device allocation or                
                                             1402+*                                  data management)                                
 00000201                                    1403+UCBFL5   DS    B                   Flags                                01-IEFUCBOB
                         00000080            1404+UCBDCC   EQU   X'80'               Disconnect command chain device      01-IEFUCBOB
                         00000040            1405+UCBAF    EQU   X'40'               Attention for this console device    01-IEFUCBOB
                                             1406+*                                  is to be processed by the                       
                                             1407+*                                  communications task                             
                         00000040            1408+UCBAMV   EQU   X'40'               Successful comparison checking of    01-IEFUCBOB
                                             1409+*                                  the access method catalog and the               
                                             1410+*                                  VTOC (VSAM direct access devices                
                                             1411+*                                  only)                                           
                         00000020            1412+UCBSMS   EQU   X'20'               Data management flag            @L6C 01-IEFUCBOB
1QUERYSMS REXX FUNCTION - QUERY SMS                                                                             Page   30            
   Active Usings: ARGTABLE_ENTRY,R8  EVALBLOCK,R9  EFPL,R10  ENVBLOCK,R11  QUERYSMS,R12  DATA,R13                                    
0D-Loc    Object Code      Addr1    Addr2    Stmt  Source Statement                          HLASM R6.0  2012/02/10 10.07            
0                        00000010            1413+UCBVSDR  EQU   X'10'               Device has variable length SDRs      01-IEFUCBOB
                         00000008            1414+UCBENVRD EQU   X'08'               Device returns environmental data    01-IEFUCBOB
                         00000004            1415+UCBNALOC EQU   X'04'               This offline device is being used by 01-IEFUCBOB
                                             1416+*                                  a system component.  The device                 
                                             1417+*                                  status must not change to online nor            
                                             1418+*                                  will it be allocated.  The last                 
                                             1419+*                                  path to the device must not be                  
                                             1420+*                                  VARY'ed offline.  The device is                 
                                             1421+*                                  unavailable for usage by another                
                                             1422+*                                  system component which processes                
                                             1423+*                                  offline devices.                                
                         00000002            1424+UCBALTCU EQU   X'02'               Device has an alternate control unit 01-IEFUCBOB
                                             1425+*                                  address                                         
                         00000001            1426+UCBCUIR  EQU   X'01'               Indicates whether the device is      01-IEFUCBOB
                                             1427+*                                  offline due to CUIR             @08A            
                                             1428+***********************************************************************            
                                             1429+***     UCB identification byte - contains hex FF                    **            
                                             1430+***********************************************************************            
 00000202                                    1431+UCBID    DS    XL1                 UCB identification (FF)              01-IEFUCBOB
                         000000FF            1432+UCBSTND  EQU   X'FF'               UCB identifier                       01-IEFUCBOB
                         000000CC            1433+UCBIDCPY EQU   X'CC'               UCB identifier for a UCB copy   @P3A 01-IEFUCBOB
                         00000011            1434+UCBGUCB  EQU   X'11'               UCB identifier for UCBs that are     01-IEFUCBOB
                                             1435+*                                  on the UCB chain, but have been                 
                                             1436+*                                  changed from static to dynamic.                 
                                             1437+*                                  These UCBs are invalid.         @LCA            
                         00000012            1438+UCBST1   EQU   X'12'               UCB identifier for UCBs that         01-IEFUCBOB
                                             1439+*                                  are used exclusively by IOS     @LDA            
                         000000FD            1440+UCBST3   EQU   X'FD'               UCB identifier for UCBs that         01-IEFUCBOB
                                             1441+*                                  are used exclusively by IOS     @M1A            
                                             1442+***********************************************************************            
                                             1443+*** Device status flags controlled by allocation, access methods, etc**            
                                             1444+*/*                                                                  */            
                                             1445+***********************************************************************            
 00000203                                    1446+UCBSTAT  DS    B                   Device status                        01-IEFUCBOB
                         00000080            1447+UCBONLI  EQU   X'80'               Device is online                     01-IEFUCBOB
                         00000040            1448+UCBCHGS  EQU   X'40'               Device status is to be changed from  01-IEFUCBOB
                                             1449+*                                  online to offline, and either                   
                                             1450+*                                  allocation is enqueued on devices               
                                             1451+*                                  or the device is allocated.  (Bit 0             
                                             1452+*                                  is also on.)                                    
                         00000020            1453+UCBRESV  EQU   X'20'               The mount status of the volume on    01-IEFUCBOB
                                             1454+*                                  this device is reserved                         
                         00000010            1455+UCBUNLD  EQU   X'10'               Unload operator command has been     01-IEFUCBOB
                                             1456+*                                  addressed to this device.  The                  
                                             1457+*                                  device is not yet unloaded.                     
                         00000008            1458+UCBALOC  EQU   X'08'               Device is allocated.                 01-IEFUCBOB
                                             1459+*                                  For auto-switchable devices,                    
                                             1460+*                                  this bit indicates that the                     
                                             1461+*                                  device WAS allocated by                         
                                             1462+*                                  some system in the SYSPLEX at the               
                                             1463+*                                  time that Allocation last obtained              
                                             1464+*                                  the SYSPLEX allocation status. If               
                                             1465+*                                  field UCBASID is zero, the device               
                                             1466+*                                  is either allocated on another                  
                                             1467+*                                  system or not allocated at all. To              
1QUERYSMS REXX FUNCTION - QUERY SMS                                                                             Page   31            
   Active Usings: ARGTABLE_ENTRY,R8  EVALBLOCK,R9  EFPL,R10  ENVBLOCK,R11  QUERYSMS,R12  DATA,R13                                    
0D-Loc    Object Code      Addr1    Addr2    Stmt  Source Statement                          HLASM R6.0  2012/02/10 10.07            
0                                            1468+*                                  determine if the device is                      
                                             1469+*                                  CURRENTLY allocated on the current              
                                             1470+*                                  system, check:                                  
                                             1471+*                                  UCBALOC equal ON AND                            
                                             1472+*                                  UCBASID not equal zero.       @PDC              
                         00000004            1473+UCBPRES  EQU   X'04'               The mount status of the volume on    01-IEFUCBOB
                                             1474+*                                  this device is permanently resident             
                         00000002            1475+UCBSYSR  EQU   X'02'               System residence device or primary   01-IEFUCBOB
                                             1476+*                                  console or active console                       
                         00000001            1477+UCBDADI  EQU   X'01'               Standard tape labels have been       01-IEFUCBOB
                                             1478+*                                  verified for this tape volume                   
                                             1479+*                                  or secondary console or                         
                                             1480+*                                  console status changing                         
                                             1481+***********************************************************************            
                                             1482+***      Binary device number                                        **            
                                             1483+***********************************************************************            
 00000204                                    1484+UCBCHAN  DS    FL2                 Binary device number                 01-IEFUCBOB
                                             1485+***********************************************************************            
                                             1486+***      IOS startability flags                                      **            
                                             1487+***********************************************************************            
 00000206                                    1488+UCBSFLS  DS    0BL2                Device status flags                  01-IEFUCBOB
 00000206                                    1489+UCBFLA   DS    BL1                 I/O supervisor flag byte A           01-IEFUCBOB
                         00000206            1490+UCBFL1   EQU   UCBFLA              Alias                                01-IEFUCBOB
                         00000080            1491+UCBDEFER EQU   X'80'               This device is temporarily unusable. 01-IEFUCBOB
                                             1492+*                                  All I/O requests will be queued                 
                                             1493+*                                  until UCBDEFER is reset.                        
                         00000040            1494+UCBNRY   EQU   X'40'               Device not ready                     01-IEFUCBOB
                         00000040            1495+UCBNOTRD EQU   UCBNRY              Alias                                01-IEFUCBOB
                         00000020            1496+UCBPERM  EQU   X'20'               The subchannel for this device       01-IEFUCBOB
                                             1497+*                                  is unusable.                                    
                         00000010            1498+UCBPSNS  EQU   X'10'               Pending sense operation              01-IEFUCBOB
                         00000008            1499+UCBSTRT  EQU   X'08'               IOS has issued a start subchannel    01-IEFUCBOB
                                             1500+*                                  and received condition code 0.                  
                                             1501+*                                  If UCBHALT and UCBCLEAR are both                
                                             1502+*                                  off, then UCBIOQ contains the                   
                                             1503+*                                  address of the IOQ for this I/O                 
                                             1504+*                                  request. The bit is turned off                  
                                             1505+*                                  when the requestor is to be                     
                                             1506+*                                  notified that the request is                    
                                             1507+*                                  complete.                                       
                         00000004            1508+UCBHALT  EQU   X'04'               IOS has issued a halt subchannel     01-IEFUCBOB
                                             1509+*                                  and received condition code 0.                  
                                             1510+*                                  If UCBCLEAR is off, then UCBIOQ                 
                                             1511+*                                  contains the address of the IOQ                 
                                             1512+*                                  associated with the halt request.               
                                             1513+*                                  The bit is turned off when the                  
                                             1514+*                                  halt interrupt occurs.                          
                         00000002            1515+UCBCLEAR EQU   X'02'               IOS has issued a clear subchannel    01-IEFUCBOB
                                             1516+*                                  and received condition code 0.                  
                                             1517+*                                  UCBIOQ contains the address of the              
                                             1518+*                                  IOQ associated with the clear                   
                                             1519+*                                  request. The bit is turned off when             
                                             1520+*                                  the clear interrupt occurs.                     
                         00000001            1521+UCBBOX   EQU   X'01'               This device has been forced offline  01-IEFUCBOB
                                             1522+*                                  due to an error                                 
1QUERYSMS REXX FUNCTION - QUERY SMS                                                                             Page   32            
   Active Usings: ARGTABLE_ENTRY,R8  EVALBLOCK,R9  EFPL,R10  ENVBLOCK,R11  QUERYSMS,R12  DATA,R13                                    
0D-Loc    Object Code      Addr1    Addr2    Stmt  Source Statement                          HLASM R6.0  2012/02/10 10.07            
000000207                                    1523+UCBFLB   DS    BL1                 I/O supervisor flag byte B           01-IEFUCBOB
                         00000080            1524+UCBINCPT EQU   X'80'               An intercept condition exists        01-IEFUCBOB
                                             1525+*                                  requiring ERP processing and will               
                                             1526+*                                  be given to the next normal I/O                 
                                             1527+*                                  request to the device. Intercept                
                                             1528+*                                  conditions are a result of:                     
                                             1529+*                                    1) A secondary interruption status            
                                             1530+*                                       with unit check and/or unit                
                                             1531+*                                       exception set,                             
                                             1532+*                                    2) an unsolicited interruption                
                                             1533+*                                       status with unit check and                 
                                             1534+*                                       attention or device end set and            
                                             1535+*                                       the attention table entry                  
                                             1536+*                                       indicates intercept, or                    
                                             1537+*                                    3) an unsolicited interruption                
                                             1538+*                                       status with unit check and                 
                                             1539+*                                       the device-dependent EOS exit              
                                             1540+*                                       requests intercept.                        
                         00000040            1541+UCBNOPTH EQU   X'40'               Device has no operational paths.     01-IEFUCBOB
                                             1542+*                                  The bit is turned off when an                   
                                             1543+*                                  unsolicited interrupt occurs or is              
                                             1544+*                                  simulated.                                      
                         00000020            1545+UCBNOCON EQU   X'20'               Device is not connected to a         01-IEFUCBOB
                                             1546+*                                  subchannel                                      
                         00000010            1547+UCBHILVL EQU   X'10'               Non-normal UCBLEVEL value has been   01-IEFUCBOB
                                             1548+*                                  set                                             
                         00000008            1549+UCBHDET  EQU   X'08'               HOT-I/O detected, device boxed       01-IEFUCBOB
                                             1550+*                                  or not recovered yet                            
                         00000004            1551+UCBIOSN  EQU   X'04'               I/O deferred waiting on         @M3A 01-IEFUCBOB
                                             1552+*                                  synchronization I/O to complete @M3A            
                                             1553+*        EQU   X'02'               Reserved - set to zero                          
                                             1554+*        EQU   X'01'               Reserved - set to zero                          
                                             1555+***********************************************************************            
                                             1556+***      Pointer to the next UCB on the UCB chain                    **            
                                             1557+***********************************************************************            
 00000208                                    1558+UCBNXUCB DS    A                   Address of the next UCB on the UCB   01-IEFUCBOB
                                             1559+*                                  chain                                           
 0000020C                                    1560+UCBWGT   DS    B                   Flags                                01-IEFUCBOB
                         00000080            1561+UCBIN    EQU   X'80'               SYSIN                                01-IEFUCBOB
                         00000040            1562+UCBOUT   EQU   X'40'               SYSOUT                               01-IEFUCBOB
                         00000020            1563+UCBPUB   EQU   X'20'               Assumed that this device will be     01-IEFUCBOB
                                             1564+*                                  allocated for a public volume                   
                                             1565+*                                  request                                         
                         00000010            1566+UCBREW   EQU   X'10'               Rewind command has been addressed to 01-IEFUCBOB
                                             1567+*                                  this magnetic device by I/O support             
                         00000008            1568+UCBMTPXP EQU   X'08'               Parallel access volume          @M3C 01-IEFUCBOB
                         00000004            1569+UCBVORSN EQU   X'04'               Vary command operator reason         01-IEFUCBOB
                                             1570+*                                  indicator                                       
                         00000002            1571+UCBVHRSN EQU   X'02'               Vary command hierarchy reason        01-IEFUCBOB
                                             1572+*                                  indicator                                       
                         00000001            1573+UCBVLRSN EQU   X'01'               Vary command library reason          01-IEFUCBOB
                                             1574+*                                  indicator                       @LEA            
 0000020D                                    1575+UCBNAME  DS    CL3                 Device number (EBCDIC)               01-IEFUCBOB
                                             1576+***********************************************************************            
                                             1577+***      UCBTYP field - 4 bytes of device unique data                **            
1QUERYSMS REXX FUNCTION - QUERY SMS                                                                             Page   33            
   Active Usings: ARGTABLE_ENTRY,R8  EVALBLOCK,R9  EFPL,R10  ENVBLOCK,R11  QUERYSMS,R12  DATA,R13                                    
0D-Loc    Object Code      Addr1    Addr2    Stmt  Source Statement                          HLASM R6.0  2012/02/10 10.07            
0                                            1578+***********************************************************************            
 00000210                                    1579+UCBTYP   DS    0BL4                Device type                          01-IEFUCBOB
 00000210                                    1580+UCBTBYT1 DS    B                   Model bits                           01-IEFUCBOB
                         00000080            1581+UCB1FEA0 EQU   X'80'               Bit 0                                01-IEFUCBOB
                         00000040            1582+UCB1FEA1 EQU   X'40'               Bit 1                                01-IEFUCBOB
                         00000020            1583+UCB1FEA2 EQU   X'20'               Bit 2                                01-IEFUCBOB
                         00000010            1584+UCB1FEA3 EQU   X'10'               Bit 3                                01-IEFUCBOB
                         00000008            1585+UCB1FEA4 EQU   X'08'               Bit 4                                01-IEFUCBOB
                         00000004            1586+UCB1FEA5 EQU   X'04'               Bit 5                                01-IEFUCBOB
                         00000002            1587+UCB1FEA6 EQU   X'02'               Bit 6                                01-IEFUCBOB
                         00000001            1588+UCB1FEA7 EQU   X'01'               Bit 7                                01-IEFUCBOB
 00000211                                    1589+UCBTBYT2 DS    B                   Option flags                         01-IEFUCBOB
                         00000080            1590+UCB2OPT0 EQU   X'80'               Flag 0                               01-IEFUCBOB
                         00000040            1591+UCB2OPT1 EQU   X'40'               Flag 1                               01-IEFUCBOB
                         00000020            1592+UCB2OPT2 EQU   X'20'               Flag 2                               01-IEFUCBOB
                         00000010            1593+UCB2OPT3 EQU   X'10'               Flag 3                               01-IEFUCBOB
                         00000008            1594+UCB2OPT4 EQU   X'08'               Flag 4                               01-IEFUCBOB
                         00000004            1595+UCB2OPT5 EQU   X'04'               Flag 5                               01-IEFUCBOB
                         00000002            1596+UCB2OPT6 EQU   X'02'               Flag 6                               01-IEFUCBOB
                         00000002            1597+UCBVLPWR EQU   X'02'               Volume requires alternate power      01-IEFUCBOB
                                             1598+*                                  source device                                   
                         00000001            1599+UCB2OPT7 EQU   X'01'               Flag 7                               01-IEFUCBOB
                         00000001            1600+UCBDVPWR EQU   X'01'               Device has alternate power source    01-IEFUCBOB
 00000212                                    1601+UCBDVCLS DS    0B                  Same as UCBTBYT3                     01-IEFUCBOB
 00000212                                    1602+UCBTBYT3 DS    B                   Class bits                           01-IEFUCBOB
                         00000080            1603+UCB3TAPE EQU   X'80'               Tape                                 01-IEFUCBOB
                         00000040            1604+UCB3COMM EQU   X'40'               Communications                       01-IEFUCBOB
                         00000041            1605+UCB3CTC  EQU   X'41'               Channel-to-channel adapter           01-IEFUCBOB
                         00000020            1606+UCB3DACC EQU   X'20'               Direct access                        01-IEFUCBOB
                         00000010            1607+UCB3DISP EQU   X'10'               Display                              01-IEFUCBOB
                         00000008            1608+UCB3UREC EQU   X'08'               Unit record                          01-IEFUCBOB
                         00000004            1609+UCB3CHAR EQU   X'04'               Character reader                     01-IEFUCBOB
                         00000002            1610+UCBRSV10 EQU   X'02'               Reserved                             01-IEFUCBOB
                         00000001            1611+UCBRSV11 EQU   X'01'               Reserved                             01-IEFUCBOB
 00000213                                    1612+UCBUNTYP DS    0C                  Same as UCBTBYT4                     01-IEFUCBOB
 00000213                                    1613+UCBTBYT4 DS    C                   Device code                          01-IEFUCBOB
 00000214                                    1614+UCBEXTPT DS    0A                  Address of UCB common extension      01-IEFUCBOB
                                             1615+*                                  (Valid only for AMODE 24 modules                
                                             1616+*                                  and for UCBs which are defined                  
                                             1617+*                                  below 16 Mb)                                    
                                             1618+*                                  IBM recommends using UCBLOOK to                 
                                             1619+*                                  obtain the address of the UCB                   
                                             1620+*                                  common extension.               @M6C            
                                             1621+***********************************************************************            
                                             1622+***      I/O Supervisor flag byte                                    **            
                                             1623+***********************************************************************            
 00000214                                    1624+UCBFLC   DS    BL1                 I/O supervisor flag byte C           01-IEFUCBOB
                         00000080            1625+UCBATTP  EQU   X'80'               Attention pending                    01-IEFUCBOB
                         00000040            1626+UCBITFP  EQU   X'40'               Intercept condition pending          01-IEFUCBOB
                         00000020            1627+UCBUDE   EQU   X'20'               Unsolicited device end received      01-IEFUCBOB
                                             1628+*        EQU   X'10'               Reserved - set to zero                          
                         00000008            1629+UCBIVRS  EQU   X'08'               Intervention required message        01-IEFUCBOB
                                             1630+*                                  issued                                          
                         00000004            1631+UCBIVRR  EQU   X'04'               Intervention required message        01-IEFUCBOB
                                             1632+*                                  is needed                                       
1QUERYSMS REXX FUNCTION - QUERY SMS                                                                             Page   34            
   Active Usings: ARGTABLE_ENTRY,R8  EVALBLOCK,R9  EFPL,R10  ENVBLOCK,R11  QUERYSMS,R12  DATA,R13                                    
0D-Loc    Object Code      Addr1    Addr2    Stmt  Source Statement                          HLASM R6.0  2012/02/10 10.07            
0                                            1633+*        EQU   X'02'               Reserved - set to zero                          
                         00000001            1634+UCBDDRSW EQU   X'01'               DDR switch pending on this device    01-IEFUCBOB
 00000215                                    1635+UCBEXTP  DS    AL3                 Address of UCB common extension      01-IEFUCBOB
                                             1636+*                                  (Valid only for UCBs which are                  
                                             1637+*                                  defined below 16Mb)                             
                                             1638+*                                  IBM recommends using UCBLOOK to                 
                                             1639+*                                  obtain the address of the UCB                   
                                             1640+*                                  common extension.               @M6C            
                                             1641+*                                                                                  
                                             1642+*                                                                                  
                         00000200            1643+SRTEJBNR EQU   UCBJBNR             Alias                                01-IEFUCBOB
                         00000001            1644+SRTEMNT  EQU   UCBMONT             Alias                                01-IEFUCBOB
                         00000203            1645+SRTESTAT EQU   UCBSTAT             Alias                                01-IEFUCBOB
                         00000080            1646+SRTEONLI EQU   UCBONLI             Alias                                01-IEFUCBOB
                         00000040            1647+SRTECHGS EQU   UCBCHGS             Alias                                01-IEFUCBOB
                         00000020            1648+SRTERESV EQU   UCBRESV             Alias                                01-IEFUCBOB
                         00000010            1649+SRTEUNLD EQU   UCBUNLD             Alias                                01-IEFUCBOB
                         00000008            1650+SRTEALOC EQU   UCBALOC             Alias                                01-IEFUCBOB
                         00000004            1651+SRTEPRES EQU   UCBPRES             Alias                                01-IEFUCBOB
                         00000002            1652+SRTESYSR EQU   UCBSYSR             Alias                                01-IEFUCBOB
                         00000001            1653+SRTEDADI EQU   UCBDADI             Alias                                01-IEFUCBOB
                         00000206            1654+UCBFL2   EQU   UCBFL1              Alias                                01-IEFUCBOB
                                             1655+*                                                                                  
                                             1656+*                                                                                  
                                             1657+***********************************************************************            
                                             1658+*                                                                                  
                                             1659+*        UCB device-dependent segments start at label UCBDEV                       
                                             1660+*                                                                                  
                         00000218            1661+UCBDEV   EQU   *                                                        01-IEFUCBOB
                                             1662+*                                                                                  
                                             1663+***********************************************************************            
                                             1664+***********************************************************************            
                                             1665+*                                                                                  
                                             1666+*        UCB common extension                                                      
                                             1667+*                                                                                  
                                             1668+*        This extension is pointed to by the UCBEXTP field in the                  
                                             1669+*        common segment of below 16MB Actual UCBs.  However, UCBLOOK               
                                             1670+*        will provide the UCB Common Extension address in this case                
                                             1671+*        as well, and is the recommended method of obtaining the                   
                                             1672+*        address.                                                                  
                                             1673+*                                                                                  
                                             1674+*        The IOSCMXA service (or UCBLOOK equivalent) must be used                  
                                             1675+*        to obtain the UCB Common Extension pointer for all above                  
                                             1676+*        16MB UCBs and for all Captured UCBs.  The IOSCMXA service                 
                                             1677+*        will also find the Common Extension address in below 16MB                 
                                             1678+*        UCBs.                                                                     
                                             1679+*                                                                  @M2C            
 00000000                00000000 00000020   1680+UCBCMEXT DSECT ,                                                        01-IEFUCBOB
                                             1681+*                                                                                  
                                             1682+***********************************************************************            
                                             1683+*                                                                                  
 00000000                                    1685+UCBETI   DS    FL1                 A binary number used by the exit     02-IOSDUCBC
                                             1686+*                                  effector routine to complete the                
                                             1687+*                                  8-byte name of an IBM-supplied                  
                                             1688+*                                  error routine for this device                   
1QUERYSMS REXX FUNCTION - QUERY SMS                                                                             Page   35            
   Active Usings: ARGTABLE_ENTRY,R8  EVALBLOCK,R9  EFPL,R10  ENVBLOCK,R11  QUERYSMS,R12  DATA,R13                                    
0D-Loc    Object Code      Addr1    Addr2    Stmt  Source Statement                          HLASM R6.0  2012/02/10 10.07            
000000001                                    1689+UCBSTI   DS    FL1                 Increment which, when multiplied by  02-IOSDUCBC
                                             1690+*                                  10, becomes an index to the                     
                                             1691+*                                  statistics table (STATAB)                       
 00000002                                    1692+UCBFL6   DS    B                   Device features byte                 02-IOSDUCBC
                         00000080            1693+UCBASUN  EQU   X'80'               Assign/unassign commands             02-IOSDUCBC
                                             1694+*                                  supported                                       
                         00000040            1695+UCBMDISP EQU   X'40'               Device has message display           02-IOSDUCBC
                         00000020            1696+UCBDBUF  EQU   X'20'               Data is buffered prior to            02-IOSDUCBC
                                             1697+*                                  storing on permanent media                      
                         00000010            1698+UCBIDS   EQU   X'10'               Block ID supported on this           02-IOSDUCBC
                                             1699+*                                  device                                          
                         00000008            1700+UCBSELFD EQU   X'08'               Indicates whether the device         02-IOSDUCBC
                                             1701+*                                  supports self description       @01A            
                         00000004            1702+UCBSMSMM EQU   X'04'               Indicates that the device is a       02-IOSDUCBC
                                             1703+*                                  SMS managed mountable device    @L1C            
                         00000002            1704+UCBLERP  EQU   X'02'               Flag indicating that basic and       02-IOSDUCBC
                                             1705+*                                  intermediate ERP are supported for              
                                             1706+*                                  this device.                    @02C            
                         00000001            1707+UCBIOT   EQU   X'01'               Flag indicating that the I/O timing  02-IOSDUCBC
                                             1708+*                                  functions are supported for this                
                                             1709+*                                  device                          @03C            
 00000003                                    1710+UCBATI   DS    FL1                 Index to the attention table (ANTAB) 02-IOSDUCBC
                                             1711+*                                  or optional job entry subsystem                 
                                             1712+*                                  (JES) flag byte                                 
                         00000080            1713+UCBRSV04 EQU   X'80'               Reserved                             02-IOSDUCBC
                         00000040            1714+UCBRSV05 EQU   X'40'               Reserved                             02-IOSDUCBC
                         00000020            1715+UCBRSV06 EQU   X'20'               Reserved                             02-IOSDUCBC
                         00000010            1716+UCBRSV07 EQU   X'10'               Reserved                             02-IOSDUCBC
                         00000008            1717+UCBRSV08 EQU   X'08'               Reserved                             02-IOSDUCBC
                         00000004            1718+UCBRSV09 EQU   X'04'               Reserved                             02-IOSDUCBC
                         00000002            1719+UCBHALI  EQU   X'02'               Optional job entry subsystem (JES)   02-IOSDUCBC
                                             1720+*                                  allocation indicator                            
                         00000001            1721+UCBHPDV  EQU   X'01'               Optional job entry subsystem (JES)   02-IOSDUCBC
                                             1722+*                                  pseudo-device                                   
 00000004                                    1723+UCBSNSCT DS    FL1                 Count of sense bytes presented       02-IOSDUCBC
                                             1724+*                                  by this device                                  
 00000005                                    1725+UCBFLP1  DS    B                   Flag byte                            02-IOSDUCBC
                         00000080            1726+UCBNSRCH EQU   X'80'               The currently allocated volume was   02-IOSDUCBC
                                             1727+*                                  specifically requested by volume                
                                             1728+*                                  serial number.  It is not available             
                                             1729+*                                  for assignment by open/EOV for a                
                                             1730+*                                  non-specific volume request.                    
                         00000040            1731+UCBSHRUP EQU   X'40'               Shareable when in uniprocessor mode  02-IOSDUCBC
                         00000020            1732+UCBRERP  EQU   X'20'               Resident error routine               02-IOSDUCBC
                         00000010            1733+UCBINHIO EQU   X'10'               Inhibit halt subchannel from SVC 33  02-IOSDUCBC
                         00000008            1734+UCBSWAPF EQU   X'08'               With bit set, the device is able to  02-IOSDUCBC
                                             1735+*                                  be swapped                                      
                         00000004            1736+UCBERLOG EQU   X'04'               Indicates presence of an error log   02-IOSDUCBC
                                             1737+*                                  in a device                                     
                         00000002            1738+UCBDYNPH EQU   X'02'               If 1,dynamic pathing availability    02-IOSDUCBC
                                             1739+*                                  is an optional feature for this                 
                                             1740+*                                  device                                          
                         00000001            1741+UCBRALOC EQU   X'01'               Allocations to this device are       02-IOSDUCBC
                                             1742+*                                  restricted                                      
 00000006                                    1743+UCBSTLI  DS    CL1                 Statistics table lookup index        02-IOSDUCBC
1QUERYSMS REXX FUNCTION - QUERY SMS                                                                             Page   36            
   Active Usings: ARGTABLE_ENTRY,R8  EVALBLOCK,R9  EFPL,R10  ENVBLOCK,R11  QUERYSMS,R12  DATA,R13                                    
0D-Loc    Object Code      Addr1    Addr2    Stmt  Source Statement                          HLASM R6.0  2012/02/10 10.07            
0                                            1744+*                                                                                  
 00000007                                    1745+UCBFL7   DS    B                   Miscellaneous usage flags            02-IOSDUCBC
                         00000080            1746+UCBMASGN EQU   X'80'               Multi-system assign done             02-IOSDUCBC
                         00000040            1747+UCBSSPND EQU   X'40'               Suspended channel program            02-IOSDUCBC
                         00000020            1748+UCBAUTOS EQU   X'20'               Device is auto-switchable       @P3C 02-IOSDUCBC
                         00000010            1749+UCBNOSEL EQU   X'10'               Allocation should attempt to select  02-IOSDUCBC
                                             1750+*                                  a different device              @L3A            
                         00000008            1751+UCBEIDAW EQU   X'08'               4K 8Byte IDAWs supported        @L4C 02-IOSDUCBC
                                             1752+*                                  by device support code          @L4C            
                         00000004            1753+UCBASAFH EQU   X'04'               This device is assigned to a         02-IOSDUCBC
                                             1754+*                                  foreign host                    @L5C            
                         00000002            1755+UCBPRUN  EQU   X'02'               This tape device is in unallocation  02-IOSDUCBC
                                             1756+*                                  processing - vary offline should                
                                             1757+*                                  not take it offline at this time.               
                                             1758+*                                  Unallocation recovery also uses                 
                                             1759+*                                  this flag to know when UCB cleanup              
                                             1760+*                                  might still need to be done.                    
                                             1761+*                                                                  @P4C            
                         00000001            1762+UCBPONLI EQU   X'01'               For use by Allocation only      @P5C 02-IOSDUCBC
 00000008                                    1763+UCBIEXT  DS    A                   Pointer to IOS UCB extension    @01C 02-IOSDUCBC
 0000000C                                    1764+UCBCHPRM DS    BL1                 Channel path recovery mask           02-IOSDUCBC
 0000000D                                    1765+UCBSATI  DS    FL1                 Attention table index                02-IOSDUCBC
                                             1766+*                                  saved by the scheduler                          
 0000000E                                    1767+UCBASID  DS    H                   ASID of the memory to which this     02-IOSDUCBC
                                             1768+*                                  device is allocated with the                    
                                             1769+*                                  following exceptions:                           
                                             1770+*                                  o For unallocated tape, the                     
                                             1771+*                                    ASID of the last memory to                    
                                             1772+*                                    which this device was                         
                                             1773+*                                    allocated.                                    
                                             1774+*                                  o For auto-switchable devices,                  
                                             1775+*                                    UCBASID will be zero when                     
                                             1776+*                                    the device is not                             
                                             1777+*                                    allocated to the current                      
                                             1778+*                                    system.                    @D1C               
 00000010                                    1779+UCBWTOWD DS    0F                  WTO word                             02-IOSDUCBC
 00000010                                    1780+         DS    B                   Reserved                             02-IOSDUCBC
 00000011                                    1781+UCBWTOID DS    CL3                 WTO message identifier               02-IOSDUCBC
                                             1782+*                                                                                  
 00000014                                    1783+UCBDDT   DS    0A                  Address of device descriptor table   02-IOSDUCBC
                                             1784+*                                  (DDT) associated with UCB                       
 00000014                                    1785+UCBDDTI  DS    H                   Contains DDT name list index during  02-IOSDUCBC
                                             1786+*                                  IPL processing             @P1C                 
 00000016                                    1787+         DS    H                   Remainder of DDT address             02-IOSDUCBC
 00000018                                    1788+UCBCLEXT DS    A                   Pointer to device class              02-IOSDUCBC
                                             1789+*                                  extension.                                      
                                             1790+*                                  IBM recommends using IOSDCXR to                 
                                             1791+*                                  obtain the address of the device                
                                             1792+*                                  class extension.                @P1C            
 0000001C                                    1793+UCBDCTOF DS    H                   Device connect time                  02-IOSDUCBC
                                             1794+*                                  Overflow counter                                
 0000001E                                    1795+UCBCSFLG DS    B                   Miscellaneous flags which should     02-IOSDUCBC
                                             1796+*                                  be serialized by compare                        
                                             1797+*                                  and swap.                       @04A            
                         00000080            1798+UCBNCC3  EQU   X'80'               Indicates that IOS marked the        02-IOSDUCBC
1QUERYSMS REXX FUNCTION - QUERY SMS                                                                             Page   37            
   Active Usings: ARGTABLE_ENTRY,R8  EVALBLOCK,R9  EFPL,R10  ENVBLOCK,R11  QUERYSMS,R12  DATA,R13                                    
0D-Loc    Object Code      Addr1    Addr2    Stmt  Source Statement                          HLASM R6.0  2012/02/10 10.07            
0                                            1799+*                                  device offline during NIP because               
                                             1800+*                                  at least one path was found                     
                                             1801+*                                  not operational.  Used to                       
                                             1802+*                                  determine if an XCF CTC should                  
                                             1803+*                                  be marked online by IECVIOPM    @04A            
                         00000040            1804+UCBHSWAP EQU   X'40'               The device is enabled for            02-IOSDUCBC
                                             1805+*                                  Hyperswaps                      @07A            
                         00000020            1806+UCBDRSN  EQU   X'20'               Indicates that the device is         02-IOSDUCBC
                                             1807+*                                  offline by request of the device                
                                             1808+*                                  service exit (function call 1). @06A            
                         00000010            1809+UCBALLFC EQU   X'10'               Indicates if all channels to the     02-IOSDUCBC
                                             1810+*                                  device are Ficon channels.  (i.e.               
                                             1811+*                                  Channel type is FICON POINT TO POINT            
                                             1812+*                                  , FICON SWITCHED, or FICON                      
                                             1813+*                                  INCOMPLETE.)                    @09A            
                         00000008            1814+UCBONEFC EQU   X'08'               Indicates if at least one of the     02-IOSDUCBC
                                             1815+*                                  device's channels is Ficon.     @09A            
                         00000004            1816+UCBCNPTH EQU   X'04'               Indicates that a no operational      02-IOSDUCBC
                                             1817+*                                  paths condition exists. This bit                
                                             1818+*                                  will be set by IOSVIRBU when an                 
                                             1819+*                                  unsolicited interrupt is received               
                                             1820+*                                  and UCBNOPTH is on. It will be                  
                                             1821+*                                  reset when unsolicited interrupt                
                                             1822+*                                  processing is complete.         @0AA            
                         00000002            1823+UCBMIDAW EQU   X'02'               Indicates that MIDAWs are supported  02-IOSDUCBC
                                             1824+*                                  for this device.  Programs should               
                                             1825+*                                  check this bit each time they build             
                                             1826+*                                  a channel program because it may                
                                             1827+*                                  change between I/O requests.    @0CC            
                         00000001            1828+UCBFCX   EQU   X'01'               Indicates that FICON Channel         02-IOSDUCBC
                                             1829+*                                  Extensions (FCX) (i.e., High                    
                                             1830+*                                  Performance FICON) is supported                 
                                             1831+*                                  for this device                 @A4A            
 0000001F                                    1832+UCBFL8   DS    B                   Miscellaneous usage flags       @A6C 02-IOSDUCBC
                         00000080            1833+UCBSPECL EQU   X'80'               Indicates that a device is marked    02-IOSDUCBC
                                             1834+*                                  as special. This will be used to                
                                             1835+*                                  define non-PAV aliases in the                   
                                             1836+*                                  alternate Subchannel Set.       @A6A            
                         00000040            1837+UCBSCDRY EQU   X'40'               Indicates that a device is a         02-IOSDUCBC
                                             1838+*                                  secondary device in the                         
                                             1839+*                                  alternate Subchannel Set.                       
                                             1840+*                                  Note: UCBSPECL must be on if this               
                                             1841+*                                  indicator is on                 @A6A            
                         00000020            1842+UCBPRRSN EQU   X'20'               Indicates that the device is         02-IOSDUCBC
                                             1843+*                                  boxed because it is a primary                   
                                             1844+*                                  in the wrong subchannel set as of               
                                             1845+*                                  the last DSE1                   @A6A            
                         00000010            1846+UCBSMRSN EQU   X'10'               Indicates that the device is         02-IOSDUCBC
                                             1847+*                                  offline because it is a simplex                 
                                             1848+*                                  in the wrong subchannel set as of               
                                             1849+*                                  the last DSE1                   @A6A            
                                             1850+*        EQU   X'0F'               Available                       @A6A            
                                             1851+*                                                                                  
                                             1853+*%UCBDA1 : ;                                                                       
                                             1854+*/********************************************************************/            
1QUERYSMS REXX FUNCTION - QUERY SMS                                                                             Page   38            
   Active Usings: ARGTABLE_ENTRY,R8  EVALBLOCK,R9  EFPL,R10  ENVBLOCK,R11  QUERYSMS,R12  DATA,R13                                    
0D-Loc    Object Code      Addr1    Addr2    Stmt  Source Statement                          HLASM R6.0  2012/02/10 10.07            
0                                            1855+*/*                                                                  */            
                                             1856+*/*         Direct access device dependent segment (IECDUCBD)        */            
                                             1857+*/*                                                                  */            
                                             1858+*/*       UCBVOLI, UCBSTAB and UCBDMCT are the same in the tape      */            
                                             1859+*/*       segment as in the direct access segment.                   */            
                                             1860+*/********************************************************************/            
                                             1861+*%GOTO UCBDA2;                     /*                                              
 00000218                00000000 00000238   1862+UCB      DSECT                                                          02-IECDUCBD
 00000218                00000218 00000218   1863+         ORG   UCBDEV              Device dependent segment             02-IECDUCBD
 00000218                                    1864+UCBVTOC  DS    CL4                 Relative address of VTOC for this    02-IECDUCBD
                                             1865+*                                  volume, in form TTR0                            
 0000021C                                    1866+UCBVOLI  DS    CL6                 Volume serial number                 02-IECDUCBD
 00000222                                    1867+UCBSTAB  DS    BL1                 Volume status                        02-IECDUCBD
                         00000080            1868+UCBBSVL  EQU   X'80'               Volume demountable by data           02-IECDUCBD
                                             1869+*                                  management (direct access)                      
                         00000080            1870+UCBDVSHR EQU   X'80'               Device not shareable among several   02-IECDUCBD
                                             1871+*                                  CPUs  (3420 magnetic tape devices               
                                             1872+*                                  only)                                           
                         00000040            1873+UCBPGFL  EQU   X'40'               UCB is open and is being used as a   02-IECDUCBD
                                             1874+*                                  page file                                       
                         00000020            1875+UCBPRSRS EQU   X'20'               During volume attribute processing   02-IECDUCBD
                                             1876+*                                  this bit is used both to denote                 
                                             1877+*                                  UCBs that were marked permanently               
                                             1878+*                                  resident prior to getting control               
                                             1879+*                                  and to identify devices that were               
                                             1880+*                                  selected by the operator for                    
                                             1881+*                                  mounting volumes  (direct access)               
                         00000020            1882+UCBBALB  EQU   X'20'               Additional volume label processing   02-IECDUCBD
                                             1883+*                                  (tape)                                          
                         00000010            1884+UCBBPRV  EQU   X'10'               Private - volume use status          02-IECDUCBD
                         00000008            1885+UCBBPUB  EQU   X'08'               Public - volume use status           02-IECDUCBD
                         00000004            1886+UCBBSTR  EQU   X'04'               Storage - volume use status          02-IECDUCBD
                                             1887+*                                  (direct access)                                 
                                             1888+*                                  The volume mounted has an American              
                                             1889+*                                  National Standard Label  (tape)                 
                         00000002            1890+UCBSHAR  EQU   X'02'               Volume shareable among job steps     02-IECDUCBD
                         00000001            1891+UCBBNUL  EQU   X'01'               Control volume - A catalog data set  02-IECDUCBD
                                             1892+*                                  is on this volume  (direct access).             
                                             1893+*                                  If the multiple console support                 
                                             1894+*                                  option is in the system, demount or             
                                             1895+*                                  mount messages have been issued and             
                                             1896+*                                  the message ID's are at offsets 40              
                                             1897+*                                  through 45.  Open will delete the               
                                             1898+*                                  messages and turn this bit off.                 
                                             1899+*                                  (tape)                                          
 00000223                                    1900+UCBDMCT  DS    XL1                 Volume use byte                      02-IECDUCBD
                         00000080            1901+UCBMOUNT EQU   X'80'               If 0, a mount verification has been  02-IECDUCBD
                                             1902+*                                  performed.  If 1, a mount request               
                                             1903+*                                  has been issued.  (direct access)               
                                             1904+*                                  For tape, the following meanings                
                                             1905+*                                  apply.                                          
                                             1906+*                                  Normal scheduler processing - If 0,             
                                             1907+*                                  no volume has been mounted.  If 1,              
                                             1908+*                                  a volume has been mounted but no                
                                             1909+*                                  volume label processing has been                
1QUERYSMS REXX FUNCTION - QUERY SMS                                                                             Page   39            
   Active Usings: ARGTABLE_ENTRY,R8  EVALBLOCK,R9  EFPL,R10  ENVBLOCK,R11  QUERYSMS,R12  DATA,R13                                    
0D-Loc    Object Code      Addr1    Addr2    Stmt  Source Statement                          HLASM R6.0  2012/02/10 10.07            
0                                            1910+*                                  performed.                                      
                                             1911+*                                  SL open routine - If 0, standard                
                                             1912+*                                  volume label and correct serial                 
                                             1913+*                                  number have been verified.  If 1,               
                                             1914+*                                  volume label is not standard format             
                                             1915+*                                  or serial number is not correct.                
                                             1916+*                                  (A mount message has been issued.)              
                                             1917+*                                  NSL open routine - If 0,                        
                                             1918+*                                  non-standard volume label has been              
                                             1919+*                                  verified.  If 1, volume label is not            
                                             1920+*                                  standard format.  (Control passes to            
                                             1921+*                                  the processing program's                        
                                             1922+*                                  non-standard label processing                   
                                             1923+*                                  routine.)  Volume label is standard             
                                             1924+*                                  format.  (Control remains with the              
                                             1925+*                                  open routine.  A mount message has              
                                             1926+*                                  been issued.)                                   
                                             1927+*                                  BLP open routine - If 0, volume                 
                                             1928+*                                  label has not been processed.                   
                         0000007F            1929+UCBDMC   EQU   X'7F'               Number of DCB's open for this volume 02-IECDUCBD
                         00000224            1930+UCBDATP  EQU   *                   End of common direct access/tape     02-IECDUCBD
                                             1931+*                                  area                                            
 00000224                                    1932+UCBSQC   DS    FL1                 Number of reserve macro instructions 02-IECDUCBD
                                             1933+*                                  issued                                          
 00000225                                    1934+UCBFL4   DS    BL1                 Direct access flag byte              02-IECDUCBD
                         00000080            1935+UCBMDSE1 EQU   X'80'               DSE1 is required during MSI    @01C  02-IECDUCBD
                         00000040            1936+UCBWDAV  EQU   X'40'               DAVV waiting for mount               02-IECDUCBD
                         00000020            1937+UCBDPAVB EQU   X'20'               PAV-base capabable device      @01C  02-IECDUCBD
                         00000010            1938+UCBDPAVA EQU   X'10'               PAV-alis device                @01C  02-IECDUCBD
                         00000008            1939+UCBSDSE1 EQU   X'08'               DSE1 is required during SIO    @01C  02-IECDUCBD
                         00000004            1940+UCBDCMBU EQU   X'04'               CMB update required            @02A  02-IECDUCBD
                         00000002            1941+UCBDPAVH EQU   X'02'               HiperPAV base or alias device  @9zA  02-IECDUCBD
 00000226                                    1942+UCBUSER  DS    FL2                 Number of current users              02-IECDUCBD
                         00000226            1943+SRTEUSER EQU   UCBUSER             Alias                                02-IECDUCBD
                                             1944+*                                                                                  
 00000228                                    1945+UCBOBS1X DS    0X                  Device dependent seg extension @01A  02-IECDUCBD
                                             1946+*                                                                                  
                                             1947+*     The data area for the following fields exist for PAV-capable                 
                                             1948+*     base devices (UCBDPAVB = '1'B) and for PAV alias devices                     
                                             1949+*     (UCBDPAVA = '1'B).                                                           
                                             1950+*                                                                                  
                                             1951+*     The use of these fields are restricted and are not intended to               
                                             1952+*     be programming interfaces as the values can dynamically change.              
                                             1953+*                                                                                  
                                             1954+*     To obtain PAV information use UCBINFO PAVINFO.                               
                                             1955+*     The PAVINFO returned data is mapped by IOSDPAVA.            @01A             
                                             1956+*                                                                                  
 00000228                                    1957+UCBBASE  DS    A                   Address of base exposure UCB         02-IECDUCBD
 0000022C                                    1958+UCBNEXP  DS    A                   Base - address of first exposure     02-IECDUCBD
 00000230                                    1959+UCBPAVBI DS    XL8                 Reserved for IOS use           @01A  02-IECDUCBD
                                             1960+*                                                                                  
                         0000021C            1961+SRTEVOLI EQU   UCBVOLI             Alias                                02-IECDUCBD
                         00000222            1962+SRTESTAB EQU   UCBSTAB             Alias                                02-IECDUCBD
                         00000080            1963+SRTEBSVL EQU   UCBBSVL             Alias                                02-IECDUCBD
                         00000020            1964+SRTEBALB EQU   UCBBALB             Alias                                02-IECDUCBD
1QUERYSMS REXX FUNCTION - QUERY SMS                                                                             Page   40            
   Active Usings: ARGTABLE_ENTRY,R8  EVALBLOCK,R9  EFPL,R10  ENVBLOCK,R11  QUERYSMS,R12  DATA,R13                                    
0D-Loc    Object Code      Addr1    Addr2    Stmt  Source Statement                          HLASM R6.0  2012/02/10 10.07            
0                        00000010            1965+SRTEBPRV EQU   UCBBPRV             Alias                                02-IECDUCBD
                         00000008            1966+SRTEBPUB EQU   UCBBPUB             Alias                                02-IECDUCBD
                         00000004            1967+SRTEBSTR EQU   UCBBSTR             Alias                                02-IECDUCBD
                         00000004            1968+SRTEASCI EQU   UCBBSTR             Alias                                02-IECDUCBD
                         00000004            1969+UCBASCI  EQU   SRTEASCI            Alias                                02-IECDUCBD
                         00000004            1970+SRTEBVQS EQU   SRTEBSTR            Alias                                02-IECDUCBD
                         00000001            1971+SRTEBNUL EQU   UCBBNUL             Alias                                02-IECDUCBD
                         00000223            1972+SRTEDMCT EQU   UCBDMCT             Alias                                02-IECDUCBD
                                             1973+**/                                                                                
                                             1974+*%UCBDA3:;                                                                         
                                             1975+*/********************************************************************/            
                                             1976+*/*                                                                  */            
                                             1977+*/*       DASD UCBTYP flags and values (IECDUCBD)                    */            
                                             1978+*/*                                                                  */            
                                             1979+*/*      These flags and values are valid only when UCBDVCLS         */            
                                             1980+*/*      (UCBTBYT3) is set to UCB3DACC.                              */            
                                             1981+*/*                                                                  */            
                                             1982+*/********************************************************************/            
                                             1983+*%GOTO UCBDA4;                                                                     
                                             1984+*/*                                                                                
                                             1985+*               UCBTBYT2 flags                                                     
                                             1986+*                                                                                  
                         00000020            1987+UCBRR    EQU   X'20'                  This device is shareable between  02-IECDUCBD
                                             1988+*                                     two CPUs                                     
                         00000010            1989+UCBRPS   EQU   X'10'                  Rotational Position Sensing (RPS) 02-IECDUCBD
                                             1990+*                                     device                                       
                         00000008            1991+UCBRVDEV EQU   X'08'                  If 0, real device. If 1, virtual  02-IECDUCBD
                                             1992+*                                     device                                       
                                             1993+         POP   PRINT                                               @P5A 01-IEFUCBOB
                                             1994          IEFJSSOB                                                                  
                                             1995+***********************************************************************            
                                             1996+*                                                                     *            
                                             1997+*               SUBSYSTEM OPTIONS BLOCK (SSOB)                        *            
                                             1998+*                                                                     *            
                                             1999+***********************************************************************            
                                             2000+*                                                                                  
                                             2001+*  STATUS - FUNCTIONAL EXTENSIONS SPLIT OFF INTO SEPERATE      @ZA34144            
                                             2002+*             MACROS                                           @ZA34144            
                                             2003+*                                                                                  
                                             2004+*  THE SUBSYSTEM OPTIONS BLOCK (SSOB) IS USED TO REQUEST A                         
                                             2005+*  PARTICULAR FUNCTION FROM A VS/2 SUBSYSTEM.  THE FORMAT IS                       
                                             2006+*  A FIXED LENGTH HEADER SECTION FOLLOWED BY A FUNCTION-DEPENDENT                  
                                             2007+*  EXTENSION.                                                                      
                                             2008+*                                                                                  
                                             2009+*  THE MACRO CALL IS OF THE FOLLOWING FORM -                                       
                                             2010+*                                                                                  
                                             2011+*        IEFJSSOB (EXTID1,EXTID2,...),CONTIG=YES/NO                                
                                             2012+*                                                                                  
                                             2013+*        EXTID1,...                                                                
                                             2014+*        THE EXTENSION IDS SPECIFY WHICH FUNCTION-DEPENDENT                        
                                             2015+*        EXTENSIONS ARE TO BE GENERATED.                                           
                                             2016+*        IF NO EXTENSION IDS ARE SPECIFIED, ONLY THE SSOB FIXED                    
                                             2017+*        HEADER IS GENERATED.                                                      
                                             2018+*                                                                                  
                                             2019+*        CONTIG=NO - RESULTS IN A DSECT CARD BEING GENERATED                       
1QUERYSMS REXX FUNCTION - QUERY SMS                                                                             Page   41            
   Active Usings: ARGTABLE_ENTRY,R8  EVALBLOCK,R9  EFPL,R10  ENVBLOCK,R11  QUERYSMS,R12  DATA,R13                                    
0D-Loc    Object Code      Addr1    Addr2    Stmt  Source Statement                          HLASM R6.0  2012/02/10 10.07            
0                                            2020+*        BETWEEN THE FIXED HEADER AND THE EXTENSION.                               
                                             2021+*                                                                                  
                                             2022+*        CONTIG=YES - RESULTS IN THE EXTENSION BEING CONTIGUOUS                    
                                             2023+*        WITH THE FIXED HEADER. (ALSO THE DEFAULT)                                 
                                             2024+*                                                                                  
                                             2025+*  THE FOLLOWING EXTENSION IDS GENERATE THE INDICATED FUNCTION-                    
                                             2026+*  DEPENDENT EXTENSIONS -                                                          
                                             2027+*                                                                                  
                                             2028+*        SO - ACCESS SYSOUT DATA SETS                                              
                                             2029+*        CS - FIND THE STATUS OF A JOB, CANCEL A JOB                               
                                             2030+*        JS - SUBSYSTEM JOB SELECTION                                              
                                             2031+*        AL - ALLOCATION/UNALLOCATION OF SYSOUT DATA SETS                          
                                             2032+*        EN - NOTIFY SUBSYSTEM OF END OF MEMORY                                    
                                             2033+*        ET - NOTIFY SUBSYSTEM OF END OF TASK                                      
                                             2034+*        WT - NOTIFY SUBSYSTEM OF A WRITE TO OPERATOR                              
                                             2035+*        CM - NOTIFY SUBSYSTEM OF AN OPERATOR COMMAND                              
                                             2036+*        US - REQUEST SUBSYSTEM TO VERIFY A REMOTE DESTINATION                     
                                             2037+*        JT - NOTIFY SUBSYSTEM OF JOB TERMINATION                                  
                                             2038+*        RQ - REQUEST SUBSYSTEM TO RE-ENQUEUE A JOB                                
                                             2039+*        DM - REQUEST SUBSYSTEM TO DELETE OPERATOR MESSAGE                         
                                             2040+*        VS - REQUEST SUBSYSTEM (MASTER) TO VERIFY SUBSYSTEM NAME                  
                                             2041+*        DA - OPEN/CLOSE/CHECKPOINT RESTART                                        
                                             2042+*        RR - REQUEST/RETURN JOBID                                                 
                                             2043+*        CF - FAILING SVC34 COMMAND                            @Z30BPSV            
                                             2044+*        SI - NOTIFY SUBSYSTEM OF STEP INITIATION              @Y02BPSD            
                                             2045+*        DY - DYNAMIC ALLOCATION/JES3 EXIT                     @Y02BPSD            
                                             2046+*        CA - COMMON ALLOCATION/JES3 EXIT                      @Y02BPSD            
                                             2047+*        CU - COMMON UNALLOCATION/JES3 EXIT                    @Y02BPSD            
                                             2048+*        DD - CHANGE DDNAME/JES3 EXIT                          @Y02BPSD            
                                             2049+*        NQ - CHANGE ENQ USE ATTRIBUTE/JES3 EXIT               @Y02BPSD            
                                             2050+*        DR - DYNAMIC DEVICE RECONFIGURATION/JES3 EXIT         @Y02BPSD            
                                             2051+*        MO - MASS STORAGE VOLUME CONTROL JES3 EXIT            @G18MP21            
                                             2052+*        MS - MSSC MESSAGE TASK JES3 EXIT                      @G18MP21            
                                             2053+*        CI - CONVERTER SUBSYS KEYWORD EXIT                    @G29AN2F            
                                             2054+*        AG - ALLOCATION GROUP SUBSYSTEM REQUESTS              @G29AN2F            
                                             2055+*                                                                                  
                                             2056+***********************************************************************            
1QUERYSMS REXX FUNCTION - QUERY SMS                                                                             Page   42            
   Active Usings: ARGTABLE_ENTRY,R8  EVALBLOCK,R9  EFPL,R10  ENVBLOCK,R11  QUERYSMS,R12  DATA,R13                                    
0D-Loc    Object Code      Addr1    Addr2    Stmt  Source Statement                          HLASM R6.0  2012/02/10 10.07            
0                                            2059+*/* START OF SPECIFICATIONS ******************************************/            
                                             2060+*/*                                                                  */            
                                             2061+*/*01* MACRO NAME: IEFSSOBH                                          */            
                                             2062+*/*                                                                  */            
                                             2063+*/*01* DESCRIPTIVE NAME: Subsystem Options Block Header              */            
                                             2064+*/*                                                                  */            
                                             2065+*/*02*  ACRONYM: SSOB                                                */            
                                             2066+*/*                                                                  */            
                                             2067+*/*01* PROPRIETARY STATEMENT=                                        */            
                                             2068+*/***PROPRIETARY_STATEMENT********************************************/            
                                             2069+*/*                                                                  */            
                                             2070+*/*                                                                  */            
                                             2071+*/* LICENSED MATERIALS - PROPERTY OF IBM                             */            
                                             2072+*/* THIS MACRO IS "RESTRICTED MATERIALS OF IBM"                      */            
                                             2073+*/* 5655-068 (C) COPYRIGHT IBM CORP. 1981, 1994                      */            
                                             2074+*/* SEE COPYRIGHT INSTRUCTIONS                                       */            
                                             2075+*/*                                                                  */            
                                             2076+*/* STATUS= HBB5520                                                  */            
                                             2077+*/*                                                                  */            
                                             2078+*/***END_OF_PROPRIETARY_STATEMENT*************************************/            
                                             2079+*/*                                                                  */            
                                             2080+*/*01* FUNCTION:  Provides the input for a subsystem function    @L1A*/            
                                             2081+*/*               request.  The combination of the SSOB, SSIB,   @L1A*/            
                                             2082+*/*               and (optionally) an SSOB functional extension  @L1A*/            
                                             2083+*/*               represents a subsystem function request to be  @L1A*/            
                                             2084+*/*               directed to one or all subsystems by the       @L1A*/            
                                             2085+*/*               Subsystem Interface.                           @L1A*/            
                                             2086+*/*                                                                  */            
                                             2087+*/*01* EXTERNAL CLASSIFICATION:                                      */            
                                             2088+*/*02* GUPI: BASE                                                    */            
                                             2089+*/*02* DMTI: FIELDS                                                  */            
                                             2090+*/*          SSOBRETA  SSOBRSV1                                      */            
                                             2091+*/*01* END OF EXTERNAL CLASSIFICATION:                               */            
                                             2092+*/*                                                                  */            
                                             2093+*/*01* DSECT NAME: SSOB                                              */            
                                             2094+*/*                                                                  */            
                                             2095+*/*01* COMPONENT:  Subsystem Interface (SC1B6)                       */            
                                             2096+*/*                                                                  */            
                                             2097+*/*01* EYE-CATCHER:  SSOB                                            */            
                                             2098+*/*02*  OFFSET:  0                                                   */            
                                             2099+*/*02*  LENGTH:  4 bytes                                             */            
                                             2100+*/*                                                                  */            
                                             2101+*/*01* STORAGE ATTRIBUTES:                                           */            
                                             2102+*/*02*  SUBPOOL:  Determined by caller of IEFSSREQ                   */            
                                             2103+*/*02*  KEY:  Determined by caller of IEFSSREQ                       */            
                                             2104+*/*02*  RESIDENCY:  Any                                              */            
                                             2105+*/*02*  MAIN STORAGE:  No                                            */            
                                             2106+*/*02*  AUXILIARY STORAGE:  Yes                                      */            
                                             2107+*/*02*  VIRTUAL STORAGE:  Yes                                        */            
                                             2108+*/*02*  DATA SPACE:  No                                              */            
                                             2109+*/*                                                                  */            
                                             2110+*/*01* SIZE:  28 bytes (decimal)                                     */            
                                             2111+*/*                                                                  */            
                                             2112+*/*01* CREATED BY: Caller of IEFSSREQ                                */            
                                             2113+*/*                                                                  */            
1QUERYSMS REXX FUNCTION - QUERY SMS                                                                             Page   43            
   Active Usings: ARGTABLE_ENTRY,R8  EVALBLOCK,R9  EFPL,R10  ENVBLOCK,R11  QUERYSMS,R12  DATA,R13                                    
0D-Loc    Object Code      Addr1    Addr2    Stmt  Source Statement                          HLASM R6.0  2012/02/10 10.07            
0                                            2114+*/*01* POINTED TO BY:                                                */            
                                             2115+*/*    - Word pointed to by register 1 following invocation of       */            
                                             2116+*/*      IEFSSREQ                                                    */            
                                             2117+*/*    - Register 1 on entry to a subsystem function routine         */            
                                             2118+*/*                                                                  */            
                                             2119+*/*01* SERIALIZATION:  None                                          */            
                                             2120+*/*                                                                  */            
                                             2121+*/**INVOCATION********************************************************/            
                                             2122+*/*                                                                  */            
                                             2123+*/*01* METHOD OF ACCESS:                                             */            
                                             2124+*/*                                                                  */            
                                             2125+*/*   BAL: 1) IEFJSSOB (OPTIONS),CONTIG=YES/NO               @G860P2N*/            
                                             2126+*/*            OPTIONS = ONE OR MORE 2 CHARACTER FUNCTION    @G860P2N*/            
                                             2127+*/*            IDS, SEPARATED BY COMMAS, INDICATING THE      @G860P2N*/            
                                             2128+*/*            SSOB FUNCTIONAL EXTENSIONS TO BE EXPANDED.    @G860P2N*/            
                                             2129+*/*            (NOTE: NOT ALL SSOB FUNCTIONAL EXTENSIONS     @G860P2N*/            
                                             2130+*/*            ARE SUPPORTED ON THE IEFJSSOB MACRO)          @G860P2N*/            
                                             2131+*/*            IF NO OPTIONS ARE SPECIFIED ONLY THE SSOB     @G860P2N*/            
                                             2132+*/*            HEADER IS EXPANDED.                           @G860P2N*/            
                                             2133+*/*                                                                  */            
                                             2134+*/*            CONTIG=YES, RESULTS IN THE FUNCTIONAL         @G860P2N*/            
                                             2135+*/*            EXTENSION BEING CONTIGUOUS WITH THE SSOB      @G860P2N*/            
                                             2136+*/*            HEADER.                                       @G860P2N*/            
                                             2137+*/*                                                                  */            
                                             2138+*/*            CONTIG=NO, RESULTS IN A DSECT BEING GENERATED @G860P2N*/            
                                             2139+*/*            PRIOR TO EACH FUNCTIONAL EXTENSION.           @G860P2N*/            
                                             2140+*/*                                                                  */            
                                             2141+*/*        2) IEFSSOBH                                       @G860P2N*/            
                                             2142+*/*                                                          @G860P2N*/            
                                             2143+*/*   PL/S: %DCL SSOBSSOB CHAR                               @G860P2N*/            
                                             2144+*/*         %SSOBSSOB='VALUE'                                @G860P2N*/            
                                             2145+*/*           WHERE VALUE IS ANY NON-NULL/BLANK CHARACTER    @G860P2N*/            
                                             2146+*/*                                                                  */            
                                             2147+*/*         THEN CODE EITHER OF THE FOLLOWING                @G860P2N*/            
                                             2148+*/*                                                                  */            
                                             2149+*/*         %INCLUDE SYSLIB(IEFJSSOB)                        @G860P2N*/            
                                             2150+*/*                  OR                                      @G860P2N*/            
                                             2151+*/*         %INCLUDE SYSLIB(IEFSSOBH)                        @G860P2N*/            
                                             2152+*/*                                                                  */            
                                             2153+*/********************************************************************/            
                                             2154+*/*                                                                  */            
                                             2155+*/*01* DELETED BY:  Caller of IEFSSREQ                               */            
                                             2156+*/*                                                                  */            
                                             2157+*/*01* DISTRIBUTION LIBRARY:  AMACLIB                                */            
                                             2158+*/*                                                                  */            
                                             2159+*/*01* NOTES:                                                        */            
                                             2160+*/*                                                                  */            
                                             2161+*/*    - Field SSOBINDV of the SSOB header should always be  @G860P2N*/            
                                             2162+*/*      used to get addressability to the SSOB functional   @G860P2N*/            
                                             2163+*/*      extension                                           @G860P2N*/            
                                             2164+*/*                                                                  */            
                                             2165+*/*    - Whenever possible (especially in the case of moving @G860P2N*/            
                                             2166+*/*      or freeing the SSOB header), the value stored in    @G860P2N*/            
                                             2167+*/*      field SSOBLEN should be used to determine the       @G860P2N*/            
                                             2168+*/*      length of the SSOB.                                 @G860P2N*/            
1QUERYSMS REXX FUNCTION - QUERY SMS                                                                             Page   44            
   Active Usings: ARGTABLE_ENTRY,R8  EVALBLOCK,R9  EFPL,R10  ENVBLOCK,R11  QUERYSMS,R12  DATA,R13                                    
0D-Loc    Object Code      Addr1    Addr2    Stmt  Source Statement                          HLASM R6.0  2012/02/10 10.07            
0                                            2169+*/*                                                                  */            
                                             2170+*/*    - The invoker of IEFSSREQ is responsible for ensuring     @L1A*/            
                                             2171+*/*      that the SSOB storage is in a key that can be           @L1A*/            
                                             2172+*/*      referenced by the function routine(s) of any            @L1A*/            
                                             2173+*/*      subsystem(s) to which the request represented by the    @L1A*/            
                                             2174+*/*      SSOB can be directed.                                   @L1A*/            
                                             2175+*/*                                                                  */            
                                             2176+*/*02*   DEPENDENCIES:  None                                         */            
                                             2177+*/*                                                                  */            
                                             2178+*/*01* CHANGE ACTIVITY: OZ34144, G860P2N                             */            
                                             2179+*/*                                                                  */            
                                             2180+*/*  $L1=SSIDP    HBB5520 940414 PDBN:  Dynamic SSI              @L1A*/            
                                             2181+*/*  $01=OW16271  HBB5520 960131 PDLS:  Dynamic SSI              @01A*/            
                                             2182+*/*                                                                  */            
                                             2183+*/* END OF SPECIFICATIONS ********************************************/            
                                             2184+*/*                                                                  */            
                                             2185+*/* C - SPLITOUT FROM THE IEFJSSOB MACRO                     @OZ34144*/            
                                             2186+*/* A - LENGTHENED THE SSOB HEADER TO ADD FIELDS SSOBRETA    @G860P2N*/            
                                             2187+*/*     AND SSOBRSV1                                         @G860P2N*/            
                                             2188+*/* C - SHOWHDR format complete                                  @L1A*/            
                                             2189+*/* A - Defined mnemonic for return code 24 (SSI not                 */            
                                             2190+*/*     initialized)                                             @L1A*/            
                                             2191+*/* A - Defined Retry request flag                               @01A*/            
                                             2192+*/********************************************************************/            
                                             2193+*   %GOTO SSHDPLS;        /*                                   @OZ34144            
                                             2194+*                                                                                  
 00000000                00000000 0000001C   2195+SSOB     DSECT                                                          02-IEFSSOBH
                         00000000            2196+SSOBEGIN EQU   *                                                        02-IEFSSOBH
 00000000 E2E2D6C2                           2197+SSOBID   DC    CL4'SSOB'          CONTROL BLOCK IDENTIFIER              02-IEFSSOBH
 00000004 001C                               2198+SSOBLEN  DC    AL2(SSOBHSIZ)      LENGTH OF SSOB HEADER                 02-IEFSSOBH
 00000006                                    2199+SSOBFUNC DS    H                  FUNCTION ID                           02-IEFSSOBH
 00000008                                    2200+SSOBSSIB DS    A                  ADDRESS OF SSIB OR ZERO               02-IEFSSOBH
 0000000C                                    2201+SSOBRETN DS    F                  RETURN CODE FROM SUBSYSTEM            02-IEFSSOBH
                                             2202+*                                                                                  
                                             2203+*  THE FOLLOWING RETURN CODES WILL BE RETURNED IN REGISTER 15                      
                                             2204+*  TO THE ISSUER OF THE IEFSSREQ MACRO -                                           
                                             2205+*                                                                                  
                                             2206+*  SSOBRETN CONTAINS FUNCTION-RELATED RETURN CODES                                 
                                             2207+*    (DEFINED IN EACH FUNCTION EXTENSION)                                          
                                             2208+*                                                                                  
                         00000000            2209+SSRTOK   EQU   0                  SUCCESSFUL COMPLETION - REQUEST WENT  02-IEFSSOBH
                                             2210+*                                 TO A SUBSYSTEM.                                  
                         00000004            2211+SSRTNSUP EQU   4                  SUBSYSTEM DOES NOT SUPPORT THIS       02-IEFSSOBH
                                             2212+*                                 FUNCTION                                         
                         00000008            2213+SSRTNTUP EQU   8                  SUBSYSTEM EXISTS, BUT IS NOT UP       02-IEFSSOBH
                         0000000C            2214+SSRTNOSS EQU   12                 SUBSYSTEM DOES NOT EXIST              02-IEFSSOBH
                         00000010            2215+SSRTDIST EQU   16                 FUNCTION NOT COMPLETED-DISASTROUS     02-IEFSSOBH
                                             2216+*                                 ERROR                                            
                         00000014            2217+SSRTLERR EQU   20                 LOGICAL ERROR (BAD SSOB FORMAT,       02-IEFSSOBH
                                             2218+*                                 INCORRECT LENGTH,...)                            
                         00000018            2219+SSRTNSSI EQU   24                 SSI not initialized              @L1A 02-IEFSSOBH
                                             2220+*                                                                                  
 00000010                                    2221+SSOBINDV DS    F                  FUNCTION DEPENDENT AREA POINTER       02-IEFSSOBH
                         00000014            2222+SSOBADDL EQU   *                  START OF LENGTHENED SSOB     @G860P2N 02-IEFSSOBH
 00000014                                    2223+SSOBRETA DS    A                  USED BY SSI TO SAVE RETURN ADDRESS    02-IEFSSOBH
1QUERYSMS REXX FUNCTION - QUERY SMS                                                                             Page   45            
   Active Usings: ARGTABLE_ENTRY,R8  EVALBLOCK,R9  EFPL,R10  ENVBLOCK,R11  QUERYSMS,R12  DATA,R13                                    
0D-Loc    Object Code      Addr1    Addr2    Stmt  Source Statement                          HLASM R6.0  2012/02/10 10.07            
0                                            2224+*                                 OF 31 BIT MODE CALLERS       @G860P2N            
 00000018                                    2225+SSOBFLG1 DS    B                  Flag Byte                        @01A 02-IEFSSOBH
                         00000080            2226+SSOBRTRY EQU   X'80'              Retry Requested                  @01A 02-IEFSSOBH
 00000019                                    2227+SSOBRSV1 DS    CL3                RESERVED                         @01C 02-IEFSSOBH
                         0000001C            2228+SSOBHSIZ EQU   *-SSOBEGIN         SSOB HEADER LENGTH                    02-IEFSSOBH
                                             2229          IEFSSSA                       SMS - SSI                                   
 00000000                00000000 00000C30   2230+IEFSSSA  DSECT                                                          01-IEFSSSA 
                                             2231+***********************************************************************            
                                             2232+* ASSEMBLER output generated by PLASMAP to Assembler Conversion       *            
                                             2233+*  3 Aug 1989 17:24:26                                                *            
                                             2234+*  6/12/89 - SSSADYNA ADDED                                       @04A*            
                                             2235+***********************************************************************            
 00000000                                    2236+SSSA     DS    0CL48                    SSOBSA IS THE BASING EXPR?      01-IEFSSSA 
 00000000                                    2237+SSSALEN  DS    H                        SSSA EXTENSION LENGTH           01-IEFSSSA 
 00000002                                    2238+SSSAID   DS    CL4                      CONTROL BLOCK ID ='SSSA'        01-IEFSSSA 
 00000006                                    2239+SSSAVER  DS    H                        CONTROL BLOCK VERSION           01-IEFSSSA 
 00000008                                    2240+SSSASFN  DS    H                        SUBFUNCTION CODE                01-IEFSSSA 
 0000000A                                    2241+SSSADAID DS    AL1                      SUBPOOL TO RETURN DATA IN       01-IEFSSSA 
 0000000B                                    2242+SSSAWAID DS    AL1                      SUBPOOL FOR LOCAL WORK AREAS    01-IEFSSSA 
 0000000C                                    2243+SSSAIFLG DS    CL1                      INPUT FLAG INFORMATION          01-IEFSSSA 
                         00000080            2244+SSSANAUT EQU   B'10000000'              CALLER IS NOT RUNNING          X01-IEFSSSA 
                                                 +                                        AUTHORIZED                                 
                         00000040            2245+SSSAWAIT EQU   B'01000000'              IF '1'B THEN DO NOT PLACE THE  X01-IEFSSSA 
                                                 +                                        CALLER IN A WAIT                           
                         00000020            2246+SSSADYNA EQU   B'00100000'              IF '1'B,DYNAMIC ALLOC CALL @04A 01-IEFSSSA 
                         00000010            2247+SSSADLOG EQU   B'00010000'              RESERVED FOR DYNAMIC ALLOC-@0LAX01-IEFSSSA 
                                                 +                                        ATION LOG DATA             @0LA            
                         00000008            2248+SSSALGID EQU   B'00001000'              REQUEST TO RETURN THE LOGID@0L2X01-IEFSSSA 
                                                 +                                        TO FIELD SSSAJPID          @0L2            
 0000000D                                    2249+         DS    CL3                      RESERVED                        01-IEFSSSA 
 00000010                                    2250+         DS    CL4                      RESERVED               @WFC@EVC 01-IEFSSSA 
 00000014                                    2251+SSSAMSGD DS    CL20                     INFORMATION FOR MSG SERVICES    01-IEFSSSA 
 00000028                00000028 00000014   2252+         ORG   SSSA+20                                                  01-IEFSSSA 
 00000014                                    2253+SSSAMINP DS    CL8                      MSG INPUT INFORMATION           01-IEFSSSA 
 0000001C                0000001C 00000014   2254+         ORG   SSSA+20                                                  01-IEFSSSA 
 00000014                                    2255+SSSASPID DS    F                        SUBPOOL TO RETURN MSGS IN       01-IEFSSSA 
 00000018                                    2256+SSSAMINF DS    XL1                      MESSAGE INPUT FLAGS             01-IEFSSSA 
                         00000080            2257+SSSARMSG EQU   B'10000000'              IF '1'B THEN RETURN MESSAGES    01-IEFSSSA 
                         00000040            2258+SSSANCHN EQU   B'01000000'              SET => NEW MESSAGE CHN START    01-IEFSSSA 
                         00000020            2259+SSSABLOW EQU   B'00100000'              SET => RETURN MSGS BELOW 16MB   01-IEFSSSA 
 00000019                                    2260+         DS    CL3                      RESERVED                        01-IEFSSSA 
 0000001C                                    2261+SSSAMOUT DS    CL4                      MSG OUTPUT INFORMATION          01-IEFSSSA 
 00000020                00000020 0000001C   2262+         ORG   SSSA+28                                                  01-IEFSSSA 
 0000001C                                    2263+SSSAOFLG DS    XL1                      OUTPUT FLAG INFORMATION         01-IEFSSSA 
                         00000080            2264+SSSAMSGR EQU   B'10000000'              IF '1'B THEN MESSAGES WERE     X01-IEFSSSA 
                                                 +                                        GENERATED                                  
                         00000040            2265+SSSAEXRL EQU   B'01000000'              IF '1'B THEN CHECK NEXT BIT    X01-IEFSSSA 
                                                 +                                                                  @LBA             
                         00000020            2266+SSSAEXRS EQU   B'00100000'              IF '1'B THEN REASON CODE CAN   X01-IEFSSSA 
                                                 +                                        BE EXTERNALIZED           @LBA             
 0000001D                                    2267+         DS    CL3                      RESERVED                        01-IEFSSSA 
 00000020                                    2268+SSSAMINO DS    CL8                      INPUT/OUTPUT INFORMATION        01-IEFSSSA 
 00000028                00000028 00000020   2269+         ORG   SSSA+32                                                  01-IEFSSSA 
 00000020                                    2270+SSSACPID DS    A                        CELL POOL ID OF RETURNED MSGS   01-IEFSSSA 
1QUERYSMS REXX FUNCTION - QUERY SMS                                                                             Page   46            
   Active Usings: ARGTABLE_ENTRY,R8  EVALBLOCK,R9  EFPL,R10  ENVBLOCK,R11  QUERYSMS,R12  DATA,R13                                    
0D-Loc    Object Code      Addr1    Addr2    Stmt  Source Statement                          HLASM R6.0  2012/02/10 10.07            
000000024                                    2271+SSSAMSGP DS    A                        POINTER TO RETURNED MESSAGES   X01-IEFSSSA 
                                                 +                                        OR ZERO                                    
 00000028                                    2272+SSSARSN  DS    F                        REASON CODE FROM SUBFUNCTION    01-IEFSSSA 
 0000002C                                    2273+         DS    CL4                      RESERVED                        01-IEFSSSA 
 00000030                                    2274+SSSASFNA DS    0C                       SUBFUNCTION AREA                01-IEFSSSA 
 00000030                00000030 00000030   2275+         ORG   SSSA+48                                                  01-IEFSSSA 
 00000030                                    2276+SSSA1    DS    0C                       CONFIGURATION SERVICES RETURN  X01-IEFSSSA 
                                                 +                                        DATA FROM ACTIVE CONFIGURATION             
 00000030                                    2277+SSSA1FXD DS    CL32                     FIXED LENGTH PORTION OF SSSA1   01-IEFSSSA 
 00000050                00000050 00000030   2278+         ORG   SSSA1+0                                                  01-IEFSSSA 
 00000030                                    2279+SSSA1FLG DS    XL1                      REQUEST FLAGS UNUSED            01-IEFSSSA 
                         00000040            2280+SSSA1ORG EQU   B'01000000'              Ret unchanged MC/DC DEFs  @L03A 01-IEFSSSA 
                         00000020            2281+SSSA1DMP EQU   B'00100000'              CNSAQ TAKe a DUMP          @21A 01-IEFSSSA 
 00000031                                    2282+         DS    AL1                      RESERVED MUST BE ZERO           01-IEFSSSA 
 00000032                                    2283+SSSA1SYI DS    H                        INDEX TO CURRENT SYSTEM TO BE  X01-IEFSSSA 
                                                 +                                        USED WITH BASE, STORAGE GROUP  X           
                                                 +                                        AND VOLUME INFORMATION REQS                
 00000034                                    2284+SSSA1TYP DS    AL1                      IDENTIFIES DATA REQUESTED       01-IEFSSSA 
 00000035                                    2285+SSSA1RLV DS    AL1                      RELEASE LEVEL OR ZERO      @PDA 01-IEFSSSA 
 00000036                                    2286+         DS    CL2                      RESERVED                   @PDC 01-IEFSSSA 
 00000038                                    2287+SSSA1ALK DS    A                        ADDRESS OF LOCK TOKEN, 0 USE   X01-IEFSSSA 
                                                 +                                        ACTIVE CONFIGURATION                       
 0000003C                                    2288+SSSA1PTR DS    A                        ADDRESS OF RETURNED DATA        01-IEFSSSA 
 00000040                                    2289+SSSA1LEN DS    F                        LENGTH OF USER SUPPLIED DATA,  X01-IEFSSSA 
                                                 +                                        0 ACQUIRE SPACE FOR USER                   
 00000044                                    2290+SSSA1ALN DS    F                        LENGTH OF DATA RETURNED         01-IEFSSSA 
 00000048                                    2291+SSSA1NFI DS    F                        INDEX TO FIRST CONSTRUCT NOT   X01-IEFSSSA 
                                                 +                                        FOUND?                                     
 0000004C                                    2292+SSSA1CNT DS    F                        NUMBER OF CONSTRUCTS PASSED     01-IEFSSSA 
 00000050                                    2293+SSSA1END DS    0C                       END OF FIXED PORTION            01-IEFSSSA 
 00000050                                    2294+SSSA1VAR DS    0C                       VARIABLE LENGTH PORTION         01-IEFSSSA 
 00000050                                    2295+SSSA1NMS DS    CL32      DIMENSION=(*)  IDENTIFICATION OF CONSTRUCTS    01-IEFSSSA 
 00000070                00000070 00000050   2296+         ORG   SSSA1+32                                                 01-IEFSSSA 
 00000050                                    2297+SSSA1NML DS    H                        LENGTH OF NAME                  01-IEFSSSA 
 00000052                                    2298+SSSA1NAM DS    CL30                     NAME OF CONSTRUCT FOR          X01-IEFSSSA 
                                                 +                                        DC,MC,SC, SG OR VOLUME         X           
                                                 +                                        RETRIEVAL                                  
 00000070                00000070 00000030   2299+         ORG   SSSA+48                                                  01-IEFSSSA 
 00000030                                    2300+SSSA2    DS    0CL48                    OPERATIONAL SERVICES PROCESS    01-IEFSSSA 
 00000030                                    2301+SSSA2REQ DS    AL1                      TYPE OF REQUEST                 01-IEFSSSA 
 00000031                                    2302+         DS    AL3                      RESERVED MUST BE ZERO           01-IEFSSSA 
 00000034                                    2303+SSSA2SCD DS    CL44                     SCDS NAME                       01-IEFSSSA 
 00000060                00000060 00000034   2304+         ORG   SSSA2+4                                                  01-IEFSSSA 
 00000034                                    2305+         DS    CL16                     UPDATE VOLUME STATISTICS        01-IEFSSSA 
 00000044                00000044 00000034   2306+         ORG   SSSA2+4                                                  01-IEFSSSA 
 00000034                                    2307+SSSA2UCB DS    A                        ADDRESS OF UCB                  01-IEFSSSA 
 00000038                                    2308+SSSA2NTR DS    F                        NUMBER OF TRACKS          @L14CX01-IEFSSSA 
                                                 +                                          (FULL VOLUME EAV/NON-EAV)@SLA            
 0000003C                                    2309+SSSA2FRE DS    F                        NUMBER OF AVAILABLE TRACKS@L14CX01-IEFSSSA 
                                                 +                                          (FULL VOLUME EAV/NON-EAV)@SLA            
 00000040                                    2310+SSSA2LFE DS    F                        LARGEST FREE EXTENT TRACKS@L14CX01-IEFSSSA 
                                                 +                                          (FULL VOLUME EAV/NON-EAV)@SLA            
 00000044                                    2311+SSSA2VLL DS    F                        UPDATE LEVEL OF VOLUME          01-IEFSSSA 
 00000048                                    2312+SSSA2NTB DS    F                        NUM OF TRKS IN TRACK-MANAGE@SLAX01-IEFSSSA 
                                                 +                                         SPACE (EAV ONLY)          @SLA            
1QUERYSMS REXX FUNCTION - QUERY SMS                                                                             Page   47            
   Active Usings: ARGTABLE_ENTRY,R8  EVALBLOCK,R9  EFPL,R10  ENVBLOCK,R11  QUERYSMS,R12  DATA,R13                                    
0D-Loc    Object Code      Addr1    Addr2    Stmt  Source Statement                          HLASM R6.0  2012/02/10 10.07            
00000004C                                    2313+SSSA2FRB DS    F                        NUM FREE TRKS IN TRACK-    @SLAX01-IEFSSSA 
                                                 +                                         MANAGE SPACE (EAV ONLY)   @SLA            
 00000050                                    2314+SSSA2LFB DS    F                        LRG FREE EXTENT TRKS IN    @SLAX01-IEFSSSA 
                                                 +                                         TRACK-MANAGE SPACE        @SLAX           
                                                 +                                         (EAV ONLY)                @SLA            
 00000054                                    2315+         DS    CL12                                                @SLC 01-IEFSSSA 
 00000060                                    2316+SSSA2END DS    0C                                                       01-IEFSSSA 
 00000060                00000060 00000034   2317+         ORG   SSSA2SCD+0               REMOVE UCB PTR SECTION     @0CA 01-IEFSSSA 
 00000034                                    2318+SSSA2REM DS    0CL36                                               @0CA 01-IEFSSSA 
 00000034                                    2319+SSSA2VN  DS    CL32                     VOLUME NAME                @0CA 01-IEFSSSA 
 00000054                00000054 00000034   2320+         ORG   SSSA2REM+0                                          @0CA 01-IEFSSSA 
 00000034                                    2321+SSSA2VNL DS    H                        LENGTH OF NAME FIELD       @0CA 01-IEFSSSA 
 00000036                                    2322+SSSA2VNM DS    CL30                     NAME                       @0CA 01-IEFSSSA 
 00000054                                    2323+SSSA2VUC DS    A                        UCB POINTER OF VOLUME      @0CA 01-IEFSSSA 
 00000058                00000058 00000034   2324+         ORG   SSSA2SCD+0                                               01-IEFSSSA 
 00000034                                    2325+SSSA2OAM DS    0CL33                    OAM UPDATE SECTION              01-IEFSSSA 
 00000034                                    2326+SSSA2N   DS    CL32                     LIBRARY / DRIVE NAME            01-IEFSSSA 
 00000054                00000054 00000034   2327+         ORG   SSSA2OAM+0                                               01-IEFSSSA 
 00000034                                    2328+SSSA2NL  DS    H                        LENGTH OF THE NAME FIELD        01-IEFSSSA 
 00000036                                    2329+SSSA2NM  DS    CL30                     NAME                            01-IEFSSSA 
 00000054                                    2330+SSSA2CS  DS    AL1                      ONLINE/OFFLINE STATUS           01-IEFSSSA 
 00000055                00000055 00000030   2331+         ORG   SSSA+48                                                  01-IEFSSSA 
 00000030                                    2332+SSSA3    DS    0CL40                    END OF JOB                      01-IEFSSSA 
 00000030                                    2333+SSSA3IN  DS    CL12                     INPUT                           01-IEFSSSA 
 0000003C                0000003C 00000030   2334+         ORG   SSSA3+0                                                  01-IEFSSSA 
 00000030                                    2335+SSSA3JNM DS    CL8                      JOB NAME                        01-IEFSSSA 
 00000038                                    2336+SSSA3ASP DS    A                        ASCB POINTER SET BY SSI ROUTER  01-IEFSSSA 
 0000003C                                    2337+         DS    CL28                     RESERVED,UNUSED                 01-IEFSSSA 
 00000058                                    2338+SSSA3END DS    0C                                                       01-IEFSSSA 
 00000058                00000058 00000030   2339+         ORG   SSSA+48                                                  01-IEFSSSA 
 00000030                                    2340+SSSA5    DS    0CL648                   START OF ACS PROCESSING?       X01-IEFSSSA 
                                                 +                                        SECTION SSSASFN = SSSAACS                  
 00000030                                    2341+SSSA5I   DS    CL52                     INPUT                           01-IEFSSSA 
 00000064                00000064 00000030   2342+         ORG   SSSA5+0                                                  01-IEFSSSA 
 00000030                                    2343+SSSA5OPT DS    CL4                      PROCESSING OPTIONS              01-IEFSSSA 
                         00000080            2344+SSSA5AUT EQU   B'10000000'              PERFORM AUTHORIZATION CHECKING X01-IEFSSSA 
                                                 +                                        FOR MANAGEMENT AND STORAGE     X           
                                                 +                                        CLAS                                       
                         00000040            2345+SSSA5RDF EQU   B'01000000'              RETURN DATA CLASS DEFINITION    01-IEFSSSA 
                         00000020            2346+SSSA5RSG EQU   B'00100000'              RETURN STORAGE GROUP(S)         01-IEFSSSA 
                         00000010            2347+SSSA5NSC EQU   B'00010000'              DO NOT PROCESS STORAGE CLASS   X01-IEFSSSA 
                                                 +                                        (FOR USE IN VOL=REF CASES)                 
                         00000008            2348+SSSA5NMC EQU   B'00001000'              DO NOT PROCESS MANAGEMENT CLAS  01-IEFSSSA 
                         00000004            2349+SSSA5NDC EQU   B'00000100'              DO NOT PROCESS DATA CLASS       01-IEFSSSA 
                         00000002            2350+SSSA5CLU EQU   B'00000010'              CLEANUP UPON EXIT               01-IEFSSSA 
                         00000001            2351+SSSA5SEM EQU   B'00000001'              '1'B => SAVE ERROR MESSAGES     01-IEFSSSA 
                         00000080            2352+SSSA5VER EQU   B'10000000'              VERIFY CONSTRUCT BEFORE        X01-IEFSSSA 
                                                 +                                        AUTHORITY CHECKING, VALID ONLY X           
                                                 +                                        IF SSSA5AUT IS ON                          
                         00000040            2353+SSSA5INF EQU   B'01000000'              '1'B => CURRENT JOB AND STEP   X01-IEFSSSA 
                                                 +                                        INFORMATION IS PROVIDED IN THE X           
                                                 +                                        ACERO                                      
                         00000020            2354+SSSA5PCT EQU   B'00100000'              '1'B => PROTECT=YES SPECIFIED  X01-IEFSSSA 
                                                 +                                        IN CURRENT DD STATEMENT                    
1QUERYSMS REXX FUNCTION - QUERY SMS                                                                             Page   48            
   Active Usings: ARGTABLE_ENTRY,R8  EVALBLOCK,R9  EFPL,R10  ENVBLOCK,R11  QUERYSMS,R12  DATA,R13                                    
0D-Loc    Object Code      Addr1    Addr2    Stmt  Source Statement                          HLASM R6.0  2012/02/10 10.07            
0                        00000010            2355+SSSA5NDS EQU   B'00010000'              '1'B => DO NOT CHECK AUTHORITY X01-IEFSSSA 
                                                 +                                        TO CREATE DATA SET? VALID ONLY X           
                                                 +                                        IF SSSA5AUT IS ON                          
                         00000008            2356+SSSA5IDX EQU   B'00001000'              CALL BY C/I THRU IDAX @YA36554  01-IEFSSSA 
                         00000004            2357+SSSA5SPC EQU   B'00000100'              MERGE SPACE FROM DC   @YA55507  01-IEFSSSA 
                         00000002            2358+SSSA5VLC EQU   B'00000010'              IGNORE DC VOLUME COUNT   @0NA   01-IEFSSSA 
                         00000001            2359+SSSA5AFF EQU   B'00000001'              Called by UAFF SSI       @13A   01-IEFSSSA 
 00000034                00000034 00000031   2360+         ORG   SSSA5+1                                                  01-IEFSSSA 
 00000031                                    2361+         DS    XL2                      RESERVED                        01-IEFSSSA 
 00000033                                    2362+         DS    CL1                                                      01-IEFSSSA 
 00000034                                    2363+SSSA5CLN DS    F                        LENGTH OF AREA TO RETURN       X01-IEFSSSA 
                                                 +                                        CONSTRUCT DEFINITION, 0 MEANS  X           
                                                 +                                        AQUIRE SPACE FOR USER?                     
 00000038                                    2364+SSSA5PTR DS    A                        ADDRESS OF RETURN DATA          01-IEFSSSA 
 0000003C                                    2365+SSSA5STN DS    F                        JCL STATEMENT NUMBER FOR USE   X01-IEFSSSA 
                                                 +                                        IN BUILDING MESSAGES                       
 00000040                                    2366+SSSA5AST DS    CL2                      IF FOLLOWING FIELDS ARE  @L16C X01-IEFSSSA 
                                                 +                                        SPECIFIED, THEN ACS SERVICES   X           
                                                 +                                        WILL CONVERT SPACE REQUESTS IN X           
                                                 +                                        TRACKS ETC? TO KB AND FILL IN  X           
                                                 +                                        THE PROPER FIELDS IN IGDACERO?             
                         00000080            2367+SSSA5TRK EQU   B'10000000'              ALLOCATION UNIT IS TRACKS       01-IEFSSSA 
                         00000040            2368+SSSA5CYL EQU   B'01000000'              ALLOCATION UNIT IS CYLINDERS    01-IEFSSSA 
                         00000020            2369+SSSA5BLK EQU   B'00100000'              ALLOCATION UNIT IS AVE BLKS     01-IEFSSSA 
                         00000010            2370+SSSA5MB  EQU   B'00010000'              ALLOCATION UNIT IS MEGABYTES    01-IEFSSSA 
                         00000008            2371+SSSA5KB  EQU   B'00001000'              ALLOCATION UNIT IS KILOBYTES    01-IEFSSSA 
                         00000004            2372+SSSA5UB  EQU   B'00000100'              ALLOCATION UNIT IS BYTES @L01A  01-IEFSSSA 
 00000042                00000042 00000040   2373+         ORG   SSSA5+16                                                 01-IEFSSSA 
 00000040                                    2374+         DS    XL2                      RESERVED                 @L16C  01-IEFSSSA 
 00000042                                    2375+SSSA5ODS DS    CL1                      DATA SET FIELDS TO DET-  @L16A X01-IEFSSSA 
                                                 +                                        ERMINE DATA SET TYPE     @L16A             
                         00000080            2376+SSSA5DCC EQU   B'10000000'              IDRC COMPACTION SPECIFED @L16A X01-IEFSSSA 
                                                 +                                        AT DATACLAS LEVEL        @L16A             
 00000043                                    2377+SSSA5TYP DS    XL1                      SG_TYPE, CONSTANT VALUES @L10C X01-IEFSSSA 
                                                 +                                        DEFINED IN IGDSGD        @L10C             
 00000044                                    2378+SSSA5BKS DS    F                        BLOCK SIZE (IF AVERAGE BLOCK   X01-IEFSSSA 
                                                 +                                        ALLOCATION, ELSE ZERO)                     
 00000048                                    2379+SSSA5PQ  DS    F                        PRIMARY ALLOCATION QUANTITY     01-IEFSSSA 
 0000004C                                    2380+SSSA5SQ  DS    F                        SECONDARY ALLOCATION QUANTITY   01-IEFSSSA 
 00000050                                    2381+SSSA5TOK DS    CL8                      TOKEN FOR USE BY ACS SERVICES   01-IEFSSSA 
 00000058                                    2382+SSSA5LOK DS    A                        ADDRESS OF CONFIGURATION       X01-IEFSSSA 
                                                 +                                        SERVICES LOCK TOKEN OR ZERO    X           
                                                 +                                        (USE OF LOCK TOKEN IS OPT)                 
 0000005C                                    2383+SSSA5ERO DS    A                        ADDRESS OF READ ONLY VARIABLES X01-IEFSSSA 
                                                 +                                        MAPPED BY IGDACERO? NOTE?      X           
                                                 +                                        THESE VARIABLES MAY BE         X           
                                                 +                                        OVERLAID WITH NEW VALUES AS A  X           
                                                 +                                        RESULT OF ACS PROCESSING                   
 00000060                                    2384+SSSA5UTK DS    A                        RACF TOKEN (UTOKEN)   @YA19877  01-IEFSSSA 
 00000064                                    2385+SSSA5O   DS    CL596                    OUTPUT                          01-IEFSSSA 
 000002B8                000002B8 00000064   2386+         ORG   SSSA5+52                                                 01-IEFSSSA 
 00000064                                    2387+SSSA5RAC DS    F                        RETCODE FROM AUTH CHECK         01-IEFSSSA 
 00000068                                    2388+SSSA5RRS DS    F                        REASON CODE FROM AUTH CHECK     01-IEFSSSA 
 0000006C                                    2389+SSSA5ERC DS    F                        RETCODE FROM ACS EXECUTOR       01-IEFSSSA 
 00000070                                    2390+SSSA5ERS DS    F                        REASON CODE FROM ACS EXECUTOR   01-IEFSSSA 
1QUERYSMS REXX FUNCTION - QUERY SMS                                                                             Page   49            
   Active Usings: ARGTABLE_ENTRY,R8  EVALBLOCK,R9  EFPL,R10  ENVBLOCK,R11  QUERYSMS,R12  DATA,R13                                    
0D-Loc    Object Code      Addr1    Addr2    Stmt  Source Statement                          HLASM R6.0  2012/02/10 10.07            
000000074                                    2391+SSSA5DC  DS    CL32                     SELECTED DATA CLASS             01-IEFSSSA 
 00000094                00000094 00000074   2392+         ORG   SSSA5+68                                                 01-IEFSSSA 
 00000074                                    2393+SSSA5DCL DS    H                        LENGTH OF SELECTED DATA CLASS   01-IEFSSSA 
 00000076                                    2394+SSSA5DCV DS    CL30                     VALUE OF SELECTED DATA CLASS    01-IEFSSSA 
 00000094                                    2395+SSSA5SC  DS    CL32                     SELECTED STORAGE CLASS          01-IEFSSSA 
 000000B4                000000B4 00000094   2396+         ORG   SSSA5+100                                                01-IEFSSSA 
 00000094                                    2397+SSSA5SCL DS    H                        LENGTH OF STORAGE CLASS         01-IEFSSSA 
 00000096                                    2398+SSSA5SCV DS    CL30                     VALUE OF STORAGE CLASS          01-IEFSSSA 
 000000B4                                    2399+SSSA5MC  DS    CL32                     SELECTED MANAGEMENT CLASS       01-IEFSSSA 
 000000D4                000000D4 000000B4   2400+         ORG   SSSA5+132                                                01-IEFSSSA 
 000000B4                                    2401+SSSA5MCL DS    H                        LENGTH OF MANAGEMENT CLASS      01-IEFSSSA 
 000000B6                                    2402+SSSA5MCV DS    CL30                     VALUE OF MANAGEMENT CLASS       01-IEFSSSA 
 000000D4                                    2403+SSSA5SGN DS    F                        NUMBER OF SGS IN LIST           01-IEFSSSA 
 000000D8                                    2404+SSSA5SG  DS    15CL32    DIMENSION=(15)  LIST OF STORAGE GROUPS         01-IEFSSSA 
 000002B8                000002B8 000000D8   2405+         ORG   SSSA5+168                                                01-IEFSSSA 
 000000D8                                    2406+SSSA5SGL DS    H                        LENGTH OF STORAGE GROUP         01-IEFSSSA 
 000000DA                                    2407+SSSA5SGV DS    CL30                     VALUE OF STORAGE GROUP          01-IEFSSSA 
 000000F8                                    2408+         DS    CL448                                                    01-IEFSSSA 
 000002B8                                    2409+SSSA5SPA DS    CL17                     DYNAM ALLOC DEFAULT SPACE  @0IA 01-IEFSSSA 
 000002C9                000002C9 000002B8   2410+         ORG   SSSA5+648                                           @0IA 01-IEFSSSA 
 000002B8                                    2411+SSSA5PRM DS    F                        PRIMARY SPACE              @0IA 01-IEFSSSA 
 000002BC                                    2412+SSSA5SEC DS    F                        SECONDARY SPACE            @0IA 01-IEFSSSA 
 000002C0                                    2413+SSSA5AVG DS    F                        AVG BLOCK LENGTH           @0IA 01-IEFSSSA 
 000002C4                                    2414+SSSA5DIR DS    F                        DIRECTORY SPACE            @0IA 01-IEFSSSA 
 000002C8                                    2415+SSSA5FLG DS    CL1                      FLAG BYTE                  @0IA 01-IEFSSSA 
                         00000080            2416+SSSA5DTK EQU   B'10000000'              TRACK ALLOCATION           @0IA 01-IEFSSSA 
                         00000040            2417+SSSA5DCY EQU   B'01000000'              CYLINDER ALLOCATION        @0IA 01-IEFSSSA 
                         00000020            2418+SSSA5DBK EQU   B'00100000'              BLOCK ALLOCATION           @0IA 01-IEFSSSA 
 000002C9                                    2419+SSSA5SML DS    CL44                     SECMODEL PROFILE NAME      @LTA 01-IEFSSSA 
 000002F5                                    2420+         DS    CL39                     RESERVE UNUSED             @LTC 01-IEFSSSA 
 0000031C                                    2421+SSSA5END DS    0C                                                       01-IEFSSSA 
 0000031C                0000031C 00000030   2422+         ORG   SSSA+48                                                  01-IEFSSSA 
 00000030                                    2423+SSSA7    DS    0CL104                   START OF IDAX SECTION VALID IF X01-IEFSSSA 
                                                 +                                        SSSASFN = SSSAIDAX                         
 00000030                                    2424+SSSA7I   DS    CL76                     INPUT                           01-IEFSSSA 
 0000007C                0000007C 00000030   2425+         ORG   SSSA7+0                                                  01-IEFSSSA 
 00000030                                    2426+SSSA7SJF DS    CL24                     SJF TOKENS(REQUIRED)            01-IEFSSSA 
 00000048                00000048 00000030   2427+         ORG   SSSA7+0                                                  01-IEFSSSA 
 00000030                                    2428+SSSA7JT  DS    CL8                      JOB LEVEL SJF TOKEN             01-IEFSSSA 
 00000038                                    2429+SSSA7ST  DS    CL8                      STEP LEVEL SJF TOKEN            01-IEFSSSA 
 00000040                                    2430+SSSA7DT  DS    CL8                      DD LEVEL SJF TOKEN              01-IEFSSSA 
 00000048                                    2431+SSSA7JBI DS    CL20                     JOB INFORMATION                 01-IEFSSSA 
 0000005C                0000005C 00000048   2432+         ORG   SSSA7+24                                                 01-IEFSSSA 
 00000048                                    2433+SSSA7GRP DS    CL8                      RACF GROUP ID FOR THE JOB       01-IEFSSSA 
 00000050                                    2434+SSSA7USR DS    CL8                      RACF USER ID FOR THE JOB        01-IEFSSSA 
 00000058                                    2435+SSSA7XMD DS    CL1                      XMODE FLAGS -         @YA37664 X01-IEFSSSA 
                                                 +               THIS BYTE MAPS DIRECTLY TO BYTE JICAXMOD       @YA37664 X           
                                                 +               (DEFINED IN THE MVS MAPPING MACRO IEFJICA).    @YA37664 X           
                                                 +               ANY UPDATES TO BYTE SSSA7XMD MUST BE           @YA47664 X           
                                                 +               COORDINATED WITH MVS TO ENSURE CORRESPONDING   @YA37664 X           
                                                 +               CHANGES IN BYTE JICAXMOD.                      @YA37664             
                         00000080            2436+SSSA7BAT EQU   B'10000000'              BATCH                           01-IEFSSSA 
                         00000040            2437+SSSA7TSK EQU   B'01000000'              TASK                            01-IEFSSSA 
                         00000020            2438+SSSA7TSO EQU   B'00100000'              TSO                             01-IEFSSSA 
                         00000010            2439+SSSA7DAS EQU   B'00010000'              BYPASS DA SPACE       @YA34260  01-IEFSSSA 
1QUERYSMS REXX FUNCTION - QUERY SMS                                                                             Page   50            
   Active Usings: ARGTABLE_ENTRY,R8  EVALBLOCK,R9  EFPL,R10  ENVBLOCK,R11  QUERYSMS,R12  DATA,R13                                    
0D-Loc    Object Code      Addr1    Addr2    Stmt  Source Statement                          HLASM R6.0  2012/02/10 10.07            
0                        00000008            2440+SSSA7SCN EQU   B'00001000'              TYPRUN=SCAN SPECIFED  @YA37664  01-IEFSSSA 
                         00000004            2441+SSSA7GDS EQU   B'00000100'              NO GDS RECLAIM SPECIFIED   @GSA 01-IEFSSSA 
 00000059                                    2442+         DS    CL3                      RESERVED                        01-IEFSSSA 
 0000005C                                    2443+SSSA7COM DS    CL16                     FIELDS FROM JES3? ONLY         X01-IEFSSSA 
                                                 +                                        REQUIRED IN A JES3             X           
                                                 +                                        ENVIRONMENT?                               
 0000006C                0000006C 0000005C   2444+         ORG   SSSA7+44                                                 01-IEFSSSA 
 0000005C                                    2445+SSSA7TKS DS    CL8                      SPAF TOKENS                     01-IEFSSSA 
 00000064                00000064 0000005C   2446+         ORG   SSSA7+44                                                 01-IEFSSSA 
 0000005C                                    2447+SSSA7STK DS    A                        SCHED REQIREMENTS TOKEN         01-IEFSSSA 
 00000060                                    2448+SSSA7JTK DS    A                        JOB INFORMATION SPAF TOKEN      01-IEFSSSA 
 00000064                                    2449+SSSA7SSN DS    CL4                      SPAF SUB SYSTEM NAME            01-IEFSSSA 
 00000068                                    2450+SSSA7ASM DS    A                        ADDRESS OF ALTERNATE SWA MGR    01-IEFSSSA 
 0000006C                                    2451+SSSA7UTK DS    A                        RACF TOKEN (UTOKEN)        @D4A 01-IEFSSSA 
 00000070                                    2452+         DS    CL12                     RESERVED                   @D4C 01-IEFSSSA 
 0000007C                                    2453+SSSA7O   DS    CL28                     OUTPUT                          01-IEFSSSA 
 00000098                00000098 0000007C   2454+         ORG   SSSA7+76                                                 01-IEFSSSA 
 0000007C                                    2455+SSSA7PLC DS    A                        SMS SCHEDULING SERVICES PLCO   X01-IEFSSSA 
                                                 +                                        OUTPUT SSSA NON ZERO IF PLCO   X           
                                                 +                                        FUNCTION PERFORMED?                        
 00000080                                    2456+SSSA7NSC DS    A                        POINTER TO A LIST OF NON SMS   X01-IEFSSSA 
                                                 +                                        MANAGED CATALOG VOLUMES? ZERO  X           
                                                 +                                        IF NO SPAF TOKEN PASSED IN?    X           
                                                 +                                        LIST IS MAPPED BY IGDIDXCL?                
 00000084                                    2457+SSSA7XRC DS    F                        RETURN CODE FROM PLCO           01-IEFSSSA 
 00000088                                    2458+SSSA7SPA DS    CL13                     DYNAM ALLOC DEFAULT SPACE  @0IA 01-IEFSSSA 
 00000095                00000095 00000088   2459+         ORG   SSSA7+88                                            @0IA 01-IEFSSSA 
 00000088                                    2460+SSSA7PRM DS    CL3                      PRIMARY SPACE              @0IA 01-IEFSSSA 
 0000008B                                    2461+SSSA7SEC DS    CL3                      SECONDARY SPACE            @0IA 01-IEFSSSA 
 0000008E                                    2462+SSSA7AVG DS    CL3                      AVG BLOCK LENGTH           @0IA 01-IEFSSSA 
 00000091                                    2463+SSSA7DIR DS    CL3                      DIRECTORY SPACE            @0IA 01-IEFSSSA 
 00000094                                    2464+SSSA7FLG DS    CL1                      FLAG BYTE                  @0IA 01-IEFSSSA 
                         00000080            2465+SSSA7DTK EQU   B'10000000'              TRACK ALLOCATION           @0IA 01-IEFSSSA 
                         00000040            2466+SSSA7DCY EQU   B'01000000'              CYLINDER ALLOCATION        @0IA 01-IEFSSSA 
                         00000020            2467+SSSA7DBK EQU   B'00100000'              BLOCK ALLOCATION           @0IA 01-IEFSSSA 
 00000095                                    2468+         DS    CL3                      RESERVED,UNUSED            @0IC 01-IEFSSSA 
 00000098                                    2469+SSSA7END DS    0C                                                       01-IEFSSSA 
 00000098                00000098 00000030   2470+         ORG   SSSA+48                                                  01-IEFSSSA 
 00000030                                    2471+SSSA8    DS    0CL432                   START OF DISP EXIT SECTION     X01-IEFSSSA 
                                                 +                                        SSSASFN = SSSADSPX                         
 00000030                                    2472+SSSA8I   DS    CL56                     INPUT FIELDS                    01-IEFSSSA 
 00000068                00000068 00000030   2473+         ORG   SSSA8+0                                                  01-IEFSSSA 
 00000030                                    2474+SSSA8DDN DS    CL8                      DDNAME FOR THE DATA SET         01-IEFSSSA 
 00000038                                    2475+SSSA8DSN DS    CL44                     DATA SET NAME                   01-IEFSSSA 
 00000064                                    2476+SSSA8FLG DS    CL1                      DISPOSITION PROCESSING OPTIONS  01-IEFSSSA 
                         00000080            2477+SSSA8GDG EQU   B'10000000'              DATA SET IS A GDG               01-IEFSSSA 
                         00000040            2478+SSSA8TMP EQU   B'01000000'              DATA SET IS A TEMP DATA SET     01-IEFSSSA 
                         00000020            2479+SSSA8VDS EQU   B'00100000'              VSAM DATA SET                   01-IEFSSSA 
                         00000010            2480+SSSA8NSM EQU   B'00010000'              NON SMS MANAGED DATA SET        01-IEFSSSA 
                         00000008            2481+SSSA8EOJ EQU   B'00001000'              END OF JOB                      01-IEFSSSA 
                         00000004            2482+SSSA8DYD EQU   B'00000100'              DYNAMIC DELLOCATION             01-IEFSSSA 
                         00000002            2483+SSSA8OVP EQU   B'00000010'              OVERIDE PURGE DATE              01-IEFSSSA 
                         00000001            2484+SSSA8TIO EQU   B'00000001'              BYPASS SYSZTIOT ENQ             01-IEFSSSA 
 00000065                                    2485+SSSA8DSP DS    AL1                      TYPE OF DISPOSITION REQUESTED   01-IEFSSSA 
 00000066                                    2486+SSSA8FL2 DS    CL1                      DISPOSITION PROCESSING OPTIONS  01-IEFSSSA 
1QUERYSMS REXX FUNCTION - QUERY SMS                                                                             Page   51            
   Active Usings: ARGTABLE_ENTRY,R8  EVALBLOCK,R9  EFPL,R10  ENVBLOCK,R11  QUERYSMS,R12  DATA,R13                                    
0D-Loc    Object Code      Addr1    Addr2    Stmt  Source Statement                          HLASM R6.0  2012/02/10 10.07            
0                        00000080            2487+SSSA8VIO EQU   B'10000000'              DATASET IS A VIO DATASET,      X01-IEFSSSA 
                                                 +                                        VDSCB ADDRESS PASSED                       
                         00000040            2488+SSSA8MDV EQU   B'01000000'              Data set resides on a          X01-IEFSSSA 
                                                 +                                        mountable device(in an ATL)@L8A            
                         00000020            2489+SSSA8RCT EQU   B'00100000'              Data set should be recataloged X01-IEFSSSA 
                                                 +                                        (ATL only)                 @L8A            
                         00000010            2490+SSSA8EVU EQU   B'00010000'              Enhanced volume list used (ATL X01-IEFSSSA 
                                                 +                                        only)                      @L8A            
                         00000008            2491+SSSA8ODS EQU   B'00001000'              Hierarchical data set      @LAA 01-IEFSSSA 
 00000067                                    2492+SSSA8STA DS    AL1                      Status of data set         @L8A 01-IEFSSSA 
 00000068                                    2493+SSSA8O   DS    CL20                     OUTPUT FIELDS                   01-IEFSSSA 
 0000007C                0000007C 00000068   2494+         ORG   SSSA8+56                                                 01-IEFSSSA 
 00000068                                    2495+SSSA8CRC DS    F                        CATALOG PROCESSING RETURN CODE  01-IEFSSSA 
 0000006C                                    2496+SSSA8CRS DS    F                        CATALOG PROCESSING REASON CODE  01-IEFSSSA 
 00000070                                    2497+SSSA8SRC DS    F                        SCRATCH PROCESSING RETURN CODE  01-IEFSSSA 
 00000074                                    2498+SSSA8TTR DS    CL3                      FROM JFCB REAQUIRED FOR        X01-IEFSSSA 
                                                 +                                        TEMPORARY VSAM DATA SETS                   
 00000077                                    2499+         DS    CL5                      RESERVED                        01-IEFSSSA 
 0000007C                                    2500+SSSA8IV  DS    CL356                    VARIABLE LENGTH INPUT FIELDS    01-IEFSSSA 
 000001E0                000001E0 0000007C   2501+         ORG   SSSA8+76                                                 01-IEFSSSA 
 0000007C                                    2502+SSSA8NV  DS    H                        NUMBER OF VOLUMES IN SSSAVL     01-IEFSSSA 
 0000007E                0000007E 0000007C   2503+         ORG   SSSA8+76                                                 01-IEFSSSA 
 0000007C                                    2504+SSSA8VDA DS    A                        PTR TO VDSCB IF SSSA8VIO =     X01-IEFSSSA 
                                                 +                                        '1'B                                       
 00000080                00000080 0000007E   2505+         ORG   SSSA8+78                                                 01-IEFSSSA 
 0000007E                                    2506+SSSA8EN1 DS    0CL354                   Added for ATL support      @L8A 01-IEFSSSA 
 0000007E                                    2507+SSSA8VL  DS    59CL6     DIMENSION=(59)  List of volumes containing    X01-IEFSSSA 
                                                 +                                        the data set               @L8A            
 000001E0                000001E0 0000007E   2508+         ORG   SSSA8+78                                            @L8A 01-IEFSSSA 
 0000007E                                    2509+SSSA8EN2 DS    0CL354                   Added for ATL enhancements @L8A 01-IEFSSSA 
 0000007E                                    2510+SSSA8EVP DS    AL4                      Pointer to enhanced volume     X01-IEFSSSA 
                                                 +                                        list? If used, SSSA8EVU must   X           
                                                 +                                        be set to '1'B?            @L8A            
 00000082                                    2511+SSSA8EXP DS    AL4                      Pointer to SSSA8EXT - can only X01-IEFSSSA 
                                                 +                                        be used when the enhanced      X           
                                                 +                                        volume list is used        @L8A            
 00000086                                    2512+         DS    CL350                                                    01-IEFSSSA 
 000001E4                                    2513+SSSA8END DS    0C                                                  @L8A 01-IEFSSSA 
 000001E4                000001E4 00000030   2514+         ORG   SSSA+48                                             @L8A 01-IEFSSSA 
 00000030                                    2515+SSSA8EVL DS    255CL12   DIMENSION=(255) Enhanced volume list      @0OC 01-IEFSSSA 
 00000C24                                    2516+SSSA8DVT DS    CL4                      Device type                @L8A 01-IEFSSSA 
 00000C28                                    2517+SSSA8VSR DS    CL6                      Volume serial              @L8A 01-IEFSSSA 
 00000C2E                                    2518+SSSA8DSQ DS    AL2                      Data set sequence number   @L8A 01-IEFSSSA 
 00000C30                                    2519+SSSA8EVE DS    0C                       Enhanced volume list end   @L8A 01-IEFSSSA 
 00000C30                00000C30 00000030   2520+         ORG   SSSA+48                                             @L8A 01-IEFSSSA 
 00000030                                    2521+SSSA8EXT DS    0CL48                    Extension to SSSA8         @L8A 01-IEFSSSA 
 00000030                                    2522+SSSA8XI  DS    CL32                     Input extension            @L8A 01-IEFSSSA 
 00000050                00000050 00000030   2523+         ORG   SSSA8EXT+0                                          @L8A 01-IEFSSSA 
 00000030                                    2524+SSSA8DDT DS    CL8                      DD token for SJF           @L8A 01-IEFSSSA 
 00000038                00000038 00000050   2525+         ORG   SSSA8EXT+32                                         @L8A 01-IEFSSSA 
 00000050                                    2526+SSSA8XO  DS    CL16                     Output extension           @L8A 01-IEFSSSA 
 00000060                00000060 00000030   2527+         ORG   SSSA+48                                                  01-IEFSSSA 
 00000030                                    2528+SSSA9    DS    0CL64                    START OF CATLG SERVICES SECT   X01-IEFSSSA 
                                                 +                                        SSSASFN = SSSACTLG                         
 00000030                                    2529+SSSA9INP DS    CL40                     INPUT TO SMS CATALOG SERVICES   01-IEFSSSA 
1QUERYSMS REXX FUNCTION - QUERY SMS                                                                             Page   52            
   Active Usings: ARGTABLE_ENTRY,R8  EVALBLOCK,R9  EFPL,R10  ENVBLOCK,R11  QUERYSMS,R12  DATA,R13                                    
0D-Loc    Object Code      Addr1    Addr2    Stmt  Source Statement                          HLASM R6.0  2012/02/10 10.07            
000000058                00000058 00000030   2530+         ORG   SSSA9+0                                                  01-IEFSSSA 
 00000030                                    2531+SSSA9CPL DS    A                        PTR TO CATALOG PARAMETER LIST   01-IEFSSSA 
 00000034                                    2532+SSSA9SJF DS    CL8                      SJF TOKEN OR ZERO               01-IEFSSSA 
 0000003C                                    2533+SSSA9SSN DS    CL4                      SPAF SUBSYSTEM NAME (SPAF SSI  X01-IEFSSSA 
                                                 +                                        REQUESTS WILL BE DIRECTED TO   X           
                                                 +                                        THIS SUBSYTEM)?                            
 00000040                                    2534+SSSA9STS DS    A                        JES3 SPOOL ACCESS FACILITY TOK X01-IEFSSSA 
                                                 +                                        FOR SCHEDULING INFORMATION     X           
                                                 +                                        FILE OR ZERO?                              
 00000044                                    2535+SSSA9STI DS    A                        JES3 SPOOL ACCESS FACILITY     X01-IEFSSSA 
                                                 +                                        TOKEN FOR JOB INFORMATION FILE X           
                                                 +                                        OR ZERO?                                   
 00000048                                    2536+SSSA9SRS DS    A                        PTR TO SCHEDULING REQUIREMENTS X01-IEFSSSA 
                                                 +                                        SUMMARY OR ZERO                            
 0000004C                                    2537+SSSA9VOL DS    CL6                      VOLSER FROM JCL DD STATEMENT    01-IEFSSSA 
 00000052                                    2538+SSSA9FLG DS    CL1                      INPUT FLAG INFORMATION          01-IEFSSSA 
                         00000080            2539+SSSA9CLU EQU   B'10000000'              IF '0'B THEN CLEANUP=NO, ELSE  X01-IEFSSSA 
                                                 +                                        CLEANUP=YES AND OUTPUT         X           
                                                 +                                        SCHEDULING REQUIREMENTS                    
                         00000040            2540+SSSA9LOC EQU   B'01000000'              IF '1' THEN BYPASS CHECKING OF X01-IEFSSSA 
                                                 +                                        INPUT VOL SMS STATUS, ELSE     X           
                                                 +                                        PRCOCEED WITH CHECKING?                    
                         00000020            2541+SSSA9LVI EQU   B'00100000'              IF '1' THEN LIBRARY VOLUME     X01-IEFSSSA 
                                                 +                                        INVENTORY SEARCH ONLY      @L8A            
                         00000010            2542+SSSA9ODS EQU   B'00010000'              Hierarchical data set      @LAA 01-IEFSSSA 
                         00000008            2543+SSSA9VRF EQU   B'00001000'              Caller is VOLREF Services  @P5A 01-IEFSSSA 
                         00000004            2544+SSSA9NVS EQU   B'00000100'              No volume search is to be done X01-IEFSSSA 
                                                 +                                        either for input volumes or    X           
                                                 +                                        catalog volumes.           @PFA            
                         00000003            2545+SSSA9RS2 EQU   B'00000011'              RESERVED                   @PFC 01-IEFSSSA 
 00000053                                    2546+SSSA9OFL DS    CL1                      OUTPUT FLAGS                    01-IEFSSSA 
                         00000080            2547+SSSA9VDS EQU   B'10000000'              VSAM DATA SET                   01-IEFSSSA 
                         00000040            2548+SSSA9LCD EQU   B'01000000'              Locate was done            @PAA 01-IEFSSSA 
 00000054                                    2549+SSSA9LSP DS    AL1                      SUBPOOL - DEVICE POOL NAME @L8A 01-IEFSSSA 
 00000055                                    2550+         DS    CL3                      RESERVED                   @L8C 01-IEFSSSA 
 00000058                                    2551+SSSA9OUT DS    CL12                     OUTPUT FROM CATALOG SERVICES    01-IEFSSSA 
 00000064                00000064 00000058   2552+         ORG   SSSA9+40                                                 01-IEFSSSA 
 00000058                                    2553+SSSA9SPR DS    F                        JES3 SPAF RETURN CODE           01-IEFSSSA 
 0000005C                                    2554+SSSA9LRC DS    F                        LOCATE RETURN CODE              01-IEFSSSA 
 00000060                                    2555+SSSA9DPN DS    A                        PTR TO DEVICE POOL NAMES   @L8C 01-IEFSSSA 
 00000064                                    2556+SSSA9MVL DS    A                        PTR TO MULTIPLE VOL LIST   @L8A 01-IEFSSSA 
 00000068                                    2557+SSSA9FL1 DS    CL1                      FLAG BYTE                  @PHA 01-IEFSSSA 
                         00000080            2558+SSSA9MMT EQU   B'10000000'              SMS MANAGED MOUNTABLE      @L8A 01-IEFSSSA 
                         00000040            2559+SSSA9DUP EQU   B'01000000'              DUPT@SMS specified (JES3)  @AAA 01-IEFSSSA 
 00000069                                    2560+         DS    CL3                      RESERVED,UNUSED            @PLC 01-IEFSSSA 
 0000006C                                    2561+SSSA9EXP DS    A                        Pointer to extension       @PLA 01-IEFSSSA 
 00000070                                    2562+SSSA9TSG DS    CL32                     STORAGE GROUP FROM LCS     @L8A 01-IEFSSSA 
 00000090                00000090 00000080   2563+         ORG   SSSA9+80                                            @L8A 01-IEFSSSA 
 00000080                                    2564+SSSA9TSL DS    H                        LENGTH OF NAME             @L8A 01-IEFSSSA 
 00000082                                    2565+SSSA9TSN DS    CL30                     NAME                       @L8A 01-IEFSSSA 
 000000A0                                    2566+SSSA9END DS    0C                                                       01-IEFSSSA 
                                             2567+***********************************************************************            
                                             2568+*        INVOKE SMS VOLREF SERVICES (SSSASFN = SSSAVOLR =RESOLVE      *            
                                             2569+*        VOLREF REFERENCE, SSSASFN = SSSACPSW =COPY SMS SWBS FROM DD1 *            
                                             2570+*        TO DD2 )                                                     *            
1QUERYSMS REXX FUNCTION - QUERY SMS                                                                             Page   53            
   Active Usings: ARGTABLE_ENTRY,R8  EVALBLOCK,R9  EFPL,R10  ENVBLOCK,R11  QUERYSMS,R12  DATA,R13                                    
0D-Loc    Object Code      Addr1    Addr2    Stmt  Source Statement                          HLASM R6.0  2012/02/10 10.07            
0                                            2571+***********************************************************************            
 000000A0                000000A0 00000030   2572+         ORG   SSSA+48                                                  01-IEFSSSA 
 00000030                                    2573+SSSAA    DS    0CL88                    START VOLREF SERVICES SECTION  X01-IEFSSSA 
                                                 +                                        VALID IF SSSASFN = SSSAVOLR OR X           
                                                 +                                        SSSASFN = SSSACPSW                         
                                             2574+***********************************************************************            
                                             2575+*        VOLREF SERVICES INPUT                                        *            
                                             2576+***********************************************************************            
 00000030                                    2577+SSSAAI   DS    CL64                     INPUT                           01-IEFSSSA 
 00000070                00000070 00000030   2578+         ORG   SSSAA+0                                                  01-IEFSSSA 
 00000030                                    2579+SSSAACP1 DS    A                        POINTER TO CATALOG PARAMETER   X01-IEFSSSA 
                                                 +                                        LIST FOR REFERENCING DATA SET              
 00000034                                    2580+SSSAACP2 DS    A                        POINTER TO CATALOG PARAMETER   X01-IEFSSSA 
                                                 +                                        LIST FOR REFERENCED DATA SET               
 00000038                                    2581+SSSAAFL1 DS    XL1                      INPUT FLAG 1                    01-IEFSSSA 
                         000000C0            2582+SSSAADP1 EQU   B'11000000'              REFERENCING DATA SET           X01-IEFSSSA 
                                                 +                                        DISPOSITION INDICATOR          X           
                                                 +                                        (0=NEW,1=MOD,2=OLD)                        
                         00000080            2583+SSSAAOL1 EQU   B'10000000'              REFERENCING DATA SET IS OLD     01-IEFSSSA 
                         00000040            2584+SSSAAMO1 EQU   B'01000000'              REFERENCING DATA SET IS MOD     01-IEFSSSA 
                         00000030            2585+SSSAADP2 EQU   B'00110000'              REFERENCED DATA SET            X01-IEFSSSA 
                                                 +                                        DISPOSITION INDICATOR          X           
                                                 +                                        (0=NEW,1=MOD,2=OLD)                        
                         00000020            2586+SSSAAOL2 EQU   B'00100000'              REFERNECED DATA SET IS OLD      01-IEFSSSA 
                         00000010            2587+SSSAAMO2 EQU   B'00010000'              REFERENCED DATA SET IS MOD      01-IEFSSSA 
                         00000008            2588+SSSAATD1 EQU   B'00001000'              '1' = REFERENCING DATA SET IS  X01-IEFSSSA 
                                                 +                                        TEMPORARY DATA SET                         
                         00000004            2589+SSSAATD2 EQU   B'00000100'              '1' = REFERENCED DATA SET IS   X01-IEFSSSA 
                                                 +                                        TEMPORARY DATA SET                         
                         00000002            2590+SSSAAALO EQU   B'00000010'              '1' = CALLER IS ALLOCATION      01-IEFSSSA 
                         00000001            2591+SSSAADSN EQU   B'00000001'              '1' = THE NAMES (DSN) OF       X01-IEFSSSA 
                                                 +                                        REFERENCED DATA SET AND THE    X           
                                                 +                                        REFERENCING DATA SET ARE SAME              
 00000039                                    2592+SSSAAFL2 DS    XL1                      Flag byte 2               @08C  01-IEFSSSA 
                         00000080            2593+SSSAALD1 EQU   B'10000000'              '1' = Locate referencing data  X01-IEFSSSA 
                                                 +                                        set done by Allocation    @08A             
                         00000040            2594+SSSAALD2 EQU   B'01000000'              '1' = Locate referenced data   X01-IEFSSSA 
                                                 +                                        set done by Allocation    @08A             
                         00000020            2595+SSSAAJ3R EQU   B'00100000'              '1' = Running under JES3  @12A X01-IEFSSSA 
                                                 +                                        set done by Allocation    @12A             
 0000003A                                    2596+SSSAAVOL DS    CL6                      VOLUME SERIAL OF REFERENCED    X01-IEFSSSA 
                                                 +                                        DATA SET, IF AVAILABLE?                    
 00000040                                    2597+SSSAAJI  DS    CL20                     ADDITIONAL INPUT IF CALLED BY  X01-IEFSSSA 
                                                 +                                        JES3                                       
 00000054                00000054 00000040   2598+         ORG   SSSAA+16                                                 01-IEFSSSA 
 00000040                                    2599+SSSAASSN DS    CL4                      SPAF SUBSYSTEM NAME (SPAF SSI  X01-IEFSSSA 
                                                 +                                        REQUESTS WILL BE DIRECTED TO   X           
                                                 +                                        THIS SUBSYSTEM)?                           
 00000044                                    2600+SSSAASTS DS    A                        JES3 SPOOL ACCESS FACILITY     X01-IEFSSSA 
                                                 +                                        TOKEN SCHEDULING INFORMATION   X           
                                                 +                                        FILE                                       
 00000048                                    2601+SSSAASTI DS    A                        JES3 SPOOL ACCESS FACILITY     X01-IEFSSSA 
                                                 +                                        TOKEN FOR JOB INFORMATION      X           
                                                 +                                        FILE?                                      
1QUERYSMS REXX FUNCTION - QUERY SMS                                                                             Page   54            
   Active Usings: ARGTABLE_ENTRY,R8  EVALBLOCK,R9  EFPL,R10  ENVBLOCK,R11  QUERYSMS,R12  DATA,R13                                    
0D-Loc    Object Code      Addr1    Addr2    Stmt  Source Statement                          HLASM R6.0  2012/02/10 10.07            
00000004C                                    2602+SSSAASRA DS    A                        PTR TO SCHEDULING REQUIREMENTS X01-IEFSSSA 
                                                 +                                        AREA OR ZERO                               
 00000050                                    2603+SSSAAFL3 DS    XL1                      FLAG INFORMATION                01-IEFSSSA 
                         00000080            2604+SSSAACLU EQU   B'10000000'              IF '0'B THEN CLEANUP=NO, ELSE  X01-IEFSSSA 
                                                 +                                        CLEANUP=YES AND OUTPUT         X           
                                                 +                                        SCHEDULING REQUIREMENTS                    
                         00000040            2605+SSSAADVP EQU   B'01000000'              '1'B ==> SSSAALSP provided,    X01-IEFSSSA 
                                                 +                                        return device pool names   @P8A            
 00000051                                    2606+         DS    XL3                      RESERVED                        01-IEFSSSA 
 00000054                                    2607+SSSAASI  DS    CL16                     ADDITIONAL INPUT IF CALLED BY  X01-IEFSSSA 
                                                 +                                        S/A                                        
 00000064                00000064 00000054   2608+         ORG   SSSAA+36                                                 01-IEFSSSA 
 00000054                                    2609+SSSAASJ1 DS    CL8                      SJF TOKEN FOR REFERENCING DD   X01-IEFSSSA 
                                                 +                                        WHEN SSSASFN = SSSACPSW, THIS  X           
                                                 +                                        IS THE SOURCE DATA'S SJF TOKEN X           
                                                 +                                        (COPY FROM DATA SET TOKEN)                 
 0000005C                                    2610+SSSAASJ2 DS    CL8                      SJF TOKEN FOR REFERENCED DD    X01-IEFSSSA 
                                                 +                                        WHEN SSSASFN = SSSACPSW, THIS  X           
                                                 +                                        IS THE TARGET DATA'S SJF TOKEN X           
                                                 +                                        (COPY TO DATA SET TOKEN)                   
 00000064                                    2611+SSSAALSP DS    F                        Subpool number for LCS, for    X01-IEFSSSA 
                                                 +                                        library device pool names  @L8A            
 00000068                                    2612+SSSAAMVL DS    A                        Pointer to a list of volumes,  X01-IEFSSSA 
                                                 +                                        mapped by SSSA9VLS? Note? if   X           
                                                 +                                        this field is used, SSSAAVOL   X           
                                                 +                                        must be blank or null?     @L8A            
 0000006C                                    2613+         DS    CL4                      RESERVED,UNUSED            @L8C 01-IEFSSSA 
                                             2614+***********************************************************************            
                                             2615+*        VOLREF SERVICES OUTPUT                                       *            
                                             2616+***********************************************************************            
 00000070                                    2617+SSSAAO   DS    CL24                     OUTPUT                          01-IEFSSSA 
 00000088                00000088 00000070   2618+         ORG   SSSAA+64                                                 01-IEFSSSA 
 00000070                                    2619+SSSAAOFL DS    XL1                      FLAG?                           01-IEFSSSA 
                         00000080            2620+SSSAAIS1 EQU   B'10000000'              IF 1 ==> USE CPL1 FOR          X01-IEFSSSA 
                                                 +                                        ALLOCATION INFORMATION TO      X           
                                                 +                                        ASSOCIATE WITH REFERENCING     X           
                                                 +                                        DATA SET?                                  
                         00000040            2621+SSSAAIS2 EQU   B'01000000'              IF 1 ==> USE CPL2 FOR          X01-IEFSSSA 
                                                 +                                        ALLOCATION INFORMATION TO      X           
                                                 +                                        ASSOCIATE WITH REFERENCING     X           
                                                 +                                        DATA SET? NOTE? SSSAAIS1 AND   X           
                                                 +                                        SSSAAIS2 BOTH 0 ==> NO         X           
                                                 +                                        ALLOCATION INFORMATION FROM    X           
                                                 +                                        EITHER CPL IS FOR REFERENCING  X           
                                                 +                                        DATA SET, BOTH 1 IS AN ERROR?  X           
                                                 +                                        BOTH 0 MEANING VOLSER INFO IS  X           
                                                 +                                        FROM JCL                                   
                         00000020            2622+SSSAAD1N EQU   B'00100000'              '1' = VOLREF DETERMINES DISP   X01-IEFSSSA 
                                                 +                                        OF THE REFERENCING DATA SET IS X           
                                                 +                                        NEW(APPLICABLE ONLY THE DISP   X           
                                                 +                                        IS MOD ON THE JCL)                         
                         00000010            2623+SSSAAD2N EQU   B'00010000'              '1' = VOLREF DETERMINES DISP   X01-IEFSSSA 
                                                 +                                        OF THE REFERENCED DATA SET IS  X           
                                                 +                                        NEW(APPLICABLE ONLY THE DISP   X           
                                                 +                                        IS MOD ON THE JCL)                         
1QUERYSMS REXX FUNCTION - QUERY SMS                                                                             Page   55            
   Active Usings: ARGTABLE_ENTRY,R8  EVALBLOCK,R9  EFPL,R10  ENVBLOCK,R11  QUERYSMS,R12  DATA,R13                                    
0D-Loc    Object Code      Addr1    Addr2    Stmt  Source Statement                          HLASM R6.0  2012/02/10 10.07            
0                        00000008            2624+SSSAAD1S EQU   B'00001000'              '1'= REFERENCING DATA SET IS   X01-IEFSSSA 
                                                 +                                        SMS MANAGED DATA SET                       
 00000071                                    2625+         DS    CL3                      RESERVED                        01-IEFSSSA 
 00000074                                    2626+SSSAASRC DS    F                        FAILING SERVICE RETURN CODE?   X01-IEFSSSA 
                                                 +                                        SET IF SSSARSN = SSSAVRAG? SET X           
                                                 +                                        IF SSSARSN = SSSAVRAK? SET IF  X           
                                                 +                                        SSSARSN = SSSAVRAL? SET IF     X           
                                                 +                                        SSSARSN = SSSAVRAN? SET IF     X           
                                                 +                                        SSSARSN = SSSAVRAS? SET IF     X           
                                                 +                                        SSSARSN = SSSAVRAT?                        
 00000078                                    2627+SSSAASRN DS    F                        FAILING SERVICE REASON CODE?   X01-IEFSSSA 
                                                 +                                        SET IF SSSARSN = SSSAVRAG? SET X           
                                                 +                                        IF SSSARSN = SSSAVRAK? SET IF  X           
                                                 +                                        SSSARSN = SSSAVRAL? SET IF     X           
                                                 +                                        SSSARSN = SSSAVRAN? SET IF     X           
                                                 +                                        SSSARSN = SSSAVRAS? SET IF     X           
                                                 +                                        SSSARSN = SSSAVRAT?                        
 0000007C                                    2628+SSSAALRC DS    F                        LOCATE RETURN CODE? SET IF     X01-IEFSSSA 
                                                 +                                        SSSARSN = SSSAVRAS?                        
 00000080                                    2629+SSSAADPN DS    A                        Address of a list of library   X01-IEFSSSA 
                                                 +                                        device pool names          @L9A            
 00000084                                    2630+         DS    CL4                      RESERVED                   @L9C 01-IEFSSSA 
 00000088                                    2631+SSSAAEND DS    0C                                                       01-IEFSSSA 
 00000088                00000088 00000030   2632+         ORG   SSSA+48                                                  01-IEFSSSA 
 00000030                                    2633+SSSAB    DS    0CL152                   START OF SCHEDULING SERVICES   X01-IEFSSSA 
                                                 +                                        PLCO INTERFACE SECTION SSSASFN X           
                                                 +                                        = SSSAPLCO                                 
 00000030                                    2634+SSSABI   DS    CL24                     INPUT                           01-IEFSSSA 
 00000048                00000048 00000030   2635+         ORG   SSSAB+0                                                  01-IEFSSSA 
 00000030                                    2636+SSSABITK DS    CL8                      SMS RESOURCE STATUS TOKEN (MAY X01-IEFSSSA 
                                                 +                                        BE NULL)                                   
 00000038                                    2637+SSSABSSN DS    CL4                      SPAF SUBSYSTEM NAME (SPAF SSI  X01-IEFSSSA 
                                                 +                                        REQUESTS WILL BE DIRECTED TO   X           
                                                 +                                        THIS SUBSYSTEM)?                           
 0000003C                                    2638+SSSABSPA DS    A                        SPOOL ACCESS FACILITY TOKEN    X01-IEFSSSA 
                                                 +                                        FOR SCHEDULING INFORMATION     X           
                                                 +                                        FILE?                                      
 00000040                                    2639+SSSABSAP DS    A                        PTR TO OPTIONAL IN STORAGE     X01-IEFSSSA 
                                                 +                                        RESOURCE FILE? IF SET,         X           
                                                 +                                        SSSABSPA IS IGNORED?                       
 00000044                                    2640+SSSABLOK DS    A                        CONFIGUARATION LOCK POINTER     01-IEFSSSA 
 00000048                                    2641+SSSABO   DS    CL124                    OUTPUT                          01-IEFSSSA 
 000000C4                000000C4 00000048   2642+         ORG   SSSAB+24                                                 01-IEFSSSA 
 00000048                                    2643+SSSABOTK DS    CL8                      SMS RESOURCE STATUS TOKEN       01-IEFSSSA 
 00000050                                    2644+SSSABPRR DS    A                        POINTER TO REQUIRED RESOURCES   01-IEFSSSA 
 00000054                                    2645+SSSABSAC DS    F                        FAILING SERVICE RETURN CODE?   X01-IEFSSSA 
                                                 +                                        SET IF SSSARSN = SSSASCHS SET  X           
                                                 +                                        IF SSSARSN = SSSASCHM                      
 00000058                                    2646+SSSABSAR DS    F                        FAILING SERVICE REASON CODE?   X01-IEFSSSA 
                                                 +                                        SET IF SSSARSN = SSSASCHS SET  X           
                                                 +                                        IF SSSARSN = SSSASCHM                      
 0000005C                                    2647+SSSABNUM DS    AL1                      Number of systems in SSSABNM   X01-IEFSSSA 
                                                 +                                        or SSSABNM2                @LHC            
 0000005D                                    2648+SSSABNM  DS    8CL8      DIMENSION=(8)  List of systems eligible to    X01-IEFSSSA 
                                                 +                                        access SMS resources?(old) @LHC            
1QUERYSMS REXX FUNCTION - QUERY SMS                                                                             Page   56            
   Active Usings: ARGTABLE_ENTRY,R8  EVALBLOCK,R9  EFPL,R10  ENVBLOCK,R11  QUERYSMS,R12  DATA,R13                                    
0D-Loc    Object Code      Addr1    Addr2    Stmt  Source Statement                          HLASM R6.0  2012/02/10 10.07            
00000009D                                    2649+SSSABPST DS    8CL4      DIMENSION=(8)  System status (old)        @LHC 01-IEFSSSA 
                         00000080            2650+SSSABPAV EQU   B'10000000'              '1'B = SYSTEM AVAILABLE, '0'B  X01-IEFSSSA 
                                                 +                                        = SYSTEM UNAVAILABLE                       
 000000BD                000000BD 0000009D   2651+         ORG   SSSAB+109                                                01-IEFSSSA 
 0000009D                                    2652+         DS    XL3                      RESERVED                        01-IEFSSSA 
 000000A0                                    2653+         DS    CL29                                                     01-IEFSSSA 
 000000BD                                    2654+         DS    CL7                      RESERVED                        01-IEFSSSA 
 000000C4                                    2655+SSSABP   DS    CL4                      PROCESSING OPTIONS SECTION      01-IEFSSSA 
 000000C8                000000C8 000000C4   2656+         ORG   SSSAB+148                                                01-IEFSSSA 
 000000C4                                    2657+SSSABPOP DS    XL1                      PROCESSING OPTIONS FLAG         01-IEFSSSA 
                         00000080            2658+SSSABRRL EQU   B'10000000'              RETURN RESOURCE LIST            01-IEFSSSA 
                         00000040            2659+SSSABEXG EQU   B'01000000'              Extended system list (32)      X01-IEFSSSA 
                                                 +                                        given on input             @LHA            
                         00000020            2660+SSSABEXR EQU   B'00100000'              Extended system list (32)      X01-IEFSSSA 
                                                 +                                        returned                   @LHA            
 000000C5                                    2661+         DS    CL3                      RESERVED                        01-IEFSSSA 
 000000C8                                    2662+SSSABNMX DS    32CL8     DIMENSION=(32) Extended system name list  @LHA 01-IEFSSSA 
 000001C8                                    2663+SSSABPSX DS    32CL4     DIMENSION=(32) Extended system stat list  @LHA 01-IEFSSSA 
 00000248                                    2664+SSSABEND DS    0C                                                       01-IEFSSSA 
 00000248                00000248 00000030   2665+         ORG   SSSA+48                                                  01-IEFSSSA 
 00000030                                    2666+SSSAC    DS    0CL144                   START OF SCHEDULING SERVICES   X01-IEFSSSA 
                                                 +                                        SYSTEM LIST DETERMINATION      X           
                                                 +                                        SECTION SSSASFN = SSSASCHD                 
 00000030                                    2667+SSSACI   DS    CL16                     INPUT                           01-IEFSSSA 
 00000040                00000040 00000030   2668+         ORG   SSSAC+0                                                  01-IEFSSSA 
 00000030                                    2669+SSSACITK DS    CL8                      SMS RESOURCE STATUS TOKEN       01-IEFSSSA 
 00000038                                    2670+SSSACSSN DS    CL4                      SPAF SUBSYSTEM NAME (SPAF SSI  X01-IEFSSSA 
                                                 +                                        REQUESTS WILL BE DIRECTED TO   X           
                                                 +                                        THIS SUBSYSTEM)?                           
 0000003C                                    2671+SSSACSPA DS    A                        SPOOL ACCESS FACILITY TOKEN    X01-IEFSSSA 
                                                 +                                        FOR SCHEDULING INFORMATION     X           
                                                 +                                        FILE?                                      
 00000040                                    2672+SSSACO   DS    CL124                    OUTPUT                          01-IEFSSSA 
 000000BC                000000BC 00000040   2673+         ORG   SSSAC+16                                                 01-IEFSSSA 
 00000040                                    2674+SSSACOTK DS    CL8                      SMS RESOURCE STATUS TOKEN       01-IEFSSSA 
 00000048                                    2675+SSSACPRR DS    A                        POINTER TO REQUIRED RESOURCES   01-IEFSSSA 
 0000004C                                    2676+SSSACSAC DS    F                        FAILING SERVICE RETURN CODE?   X01-IEFSSSA 
                                                 +                                        SET IF SSSARSN = SSSASCHS SET  X           
                                                 +                                        IF SSSARSN = SSSASCHM                      
 00000050                                    2677+SSSACSAR DS    F                        FAILING SERVICE REASON CODE?   X01-IEFSSSA 
                                                 +                                        SET IF SSSARSN = SSSASCHS SET  X           
                                                 +                                        IF SSSARSN = SSSASCHM                      
 00000054                                    2678+SSSACNUM DS    AL1                      Number of systems in SSSACNM   X01-IEFSSSA 
                                                 +                                        or SSSACNM2                @LHC            
 00000055                                    2679+SSSACNM  DS    8CL8      DIMENSION=(8)  List of systems eligible to    X01-IEFSSSA 
                                                 +                                        access SMS resources?(old) @LHC            
 00000095                                    2680+SSSACPST DS    8CL4      DIMENSION=(8)  System status (old)        @LHC 01-IEFSSSA 
                         00000080            2681+SSSACPAV EQU   B'10000000'              '1'B = SYSTEM AVAILABLE, '0'B  X01-IEFSSSA 
                                                 +                                        = SYSTEM UNAVAILABLE                       
 000000B5                000000B5 00000095   2682+         ORG   SSSAC+101                                                01-IEFSSSA 
 00000095                                    2683+         DS    XL3                      RESERVED                        01-IEFSSSA 
 00000098                                    2684+         DS    CL29                                                     01-IEFSSSA 
 000000B5                                    2685+         DS    CL7                      RESERVED                        01-IEFSSSA 
 000000BC                                    2686+SSSACP   DS    CL4                      PROCESSING OPTIONS SECTION      01-IEFSSSA 
 000000C0                000000C0 000000BC   2687+         ORG   SSSAC+140                                                01-IEFSSSA 
1QUERYSMS REXX FUNCTION - QUERY SMS                                                                             Page   57            
   Active Usings: ARGTABLE_ENTRY,R8  EVALBLOCK,R9  EFPL,R10  ENVBLOCK,R11  QUERYSMS,R12  DATA,R13                                    
0D-Loc    Object Code      Addr1    Addr2    Stmt  Source Statement                          HLASM R6.0  2012/02/10 10.07            
0000000BC                                    2688+SSSACPOP DS    XL1                      PROCESSING OPTIONS FLAG         01-IEFSSSA 
                         00000080            2689+SSSACRRL EQU   B'10000000'              RETURN RESOURCE LIST            01-IEFSSSA 
                         00000040            2690+SSSACEXG EQU   B'01000000'              Extended system list (32)      X01-IEFSSSA 
                                                 +                                        given on input             @LHA            
                         00000020            2691+SSSACEXR EQU   B'00100000'              Extended system list (32)      X01-IEFSSSA 
                                                 +                                        returned                   @LHA            
                         00000010            2692+SSSACRTY EQU   B'00010000'              System select retry        @14A 01-IEFSSSA 
 000000BD                                    2693+         DS    CL3                      RESERVED                        01-IEFSSSA 
 000000C0                                    2694+SSSACNMX DS    32CL8     DIMENSION=(32) Extended system name list  @LHA 01-IEFSSSA 
 000001C0                                    2695+SSSACPSX DS    32CL4     DIMENSION=(32) Extended system stat list  @LHA 01-IEFSSSA 
 00000240                                    2696+SSSACJOB DS    CL8       JOB number                                @14A 01-IEFSSSA 
 00000248                                    2697+         DS    CL24      Reserved                                  @14A 01-IEFSSSA 
 00000260                                    2698+SSSACEND DS    0C                                                       01-IEFSSSA 
                         00000230            2699+SSSACLNT EQU   *-SSSAC                  Total length of SSSAC    @14A   01-IEFSSSA 
 00000260                00000260 00000030   2700+         ORG   SSSA+48                                                  01-IEFSSSA 
 00000030                                    2701+SSSAD    DS    0CL288                                            @LMC   01-IEFSSSA 
 00000030                                    2702+SSSADJFC DS    A                        ADDRESS OF JFCB                 01-IEFSSSA 
 00000034                                    2703+SSSADDNM DS    CL8                      DDNAME                          01-IEFSSSA 
 0000003C                                    2704+SSSADFLG DS    CL4                      FLAGS INDICATING TYPE OF DS     01-IEFSSSA 
 00000040                00000040 0000003C   2705+         ORG   SSSAD+12                                                 01-IEFSSSA 
 0000003C                                    2706+SSSADFL1 DS    CL1                                                      01-IEFSSSA 
                         00000080            2707+SSSADVIO EQU   B'10000000'              VIO DATASET                     01-IEFSSSA 
                         00000040            2708+SSSADODS EQU   B'01000000'              Hierarchical data set    @LAA   01-IEFSSSA 
 0000003D                                    2709+         DS    CL3                      RESERVED                        01-IEFSSSA 
 00000040                                    2710+SSSADSWK DS    CL8                      SJF Token                @0RA   01-IEFSSSA 
 00000048                                    2711+         DS    CL12                     RESERVED                 @0RC   01-IEFSSSA 
                                             2712+***********************************************************************            
                                             2713+*   THE FOLLOWING STATUS IS RETURNED                                  *            
                                             2714+***********************************************************************            
 00000054                                    2715+SSSADNOF DS    F                                                        01-IEFSSSA 
 00000058                                    2716+SSSADUCB DS    59A       DIMENSION=(59)  ADDRESS OF UCB'S, ADDRESS     X01-IEFSSSA 
                                                 +                                        WILL BE ZERO IF DEVICE IS NOT  X           
                                                 +                                        CURRENTLY MOUNTED                          
 00000144                                    2717+SSSADSSN DS    CL4                      Subsystem name = 'SMS '  @LMA   01-IEFSSSA 
 00000148                                    2718+SSSADMIS DS    CL8                      Miscellaneous output     @LMA   01-IEFSSSA 
 00000150                00000150 00000148   2719+         ORG   SSSAD+280                                         @LMA   01-IEFSSSA 
 00000148                                    2720+SSSADFL2 DS    CL1                                               @LMA   01-IEFSSSA 
                         00000080            2721+SSSADSSB EQU   B'10000000'              Subsystem bit            @LMA   01-IEFSSSA 
 00000149                                    2722+         DS    CL7                      Reserved                 @LMA   01-IEFSSSA 
 00000150                                    2723+SSSADEND DS    0C                                                       01-IEFSSSA 
 00000150                00000150 00000030   2724+         ORG   SSSA+48                                                  01-IEFSSSA 
 00000030                                    2725+SSSAE    DS    0CL435                   START OF VTOC/DATA SET         X01-IEFSSSA 
                                                 +                                        SERVICES CREATION OF NEW DASD  X           
                                                 +                                        DATA SET SECTION                           
 00000030                                    2726+SSSAEIF1 DS    XL1                      INPUT FLAGS                     01-IEFSSSA 
                         00000080            2727+SSSAECPL EQU   B'10000000'              CPL PASSED                      01-IEFSSSA 
                         00000040            2728+SSSAEMDS EQU   B'01000000'              MODEL DSNAME PASSED FOR        X01-IEFSSSA 
                                                 +                                        DETERMINING FOR DETERMINING    X           
                                                 +                                        DEFAULTS                                   
                         00000020            2729+SSSAESCN EQU   B'00100000'              DC NAME, MC NAME AND SC NAME   X01-IEFSSSA 
                                                 +                                        PASSED                                     
                         00000010            2730+SSSAEXTR EQU   B'00010000'              EXTENT REDUCTION INTERFACE IS  X01-IEFSSSA 
                                                 +                                        TO BE INVOKED?                             
                         00000008            2731+SSSAEIPA EQU   B'00001000'              IGNORE PHYSICAL ALLOC           01-IEFSSSA 
1QUERYSMS REXX FUNCTION - QUERY SMS                                                                             Page   58            
   Active Usings: ARGTABLE_ENTRY,R8  EVALBLOCK,R9  EFPL,R10  ENVBLOCK,R11  QUERYSMS,R12  DATA,R13                                    
0D-Loc    Object Code      Addr1    Addr2    Stmt  Source Statement                          HLASM R6.0  2012/02/10 10.07            
0                        00000004            2732+SSSAENCV EQU   B'00000100'              DON'T CHANGE THE SPACE AMOUNT  X01-IEFSSSA 
                                                 +                                        REQUESTED IF THE SELECTED DEV  X           
                                                 +                                        TYPE DIFFERS FROM THE SELECTED X           
                                                 +                                        DEVICE TYPE?                               
                         00000002            2733+SSSAETAP EQU   B'00000010'              TAPE DATA SET BEING ALLOC       01-IEFSSSA 
                         00000001            2734+SSSAENAS EQU   B'00000001'              Not to alter VSAM space   @0YC X01-IEFSSSA 
                                                 +                                        amount.  For STK snapshot @0YA             
 00000031                                    2735+SSSAEIF2 DS    XL1                      INPUT FLAGS                     01-IEFSSSA 
                         00000080            2736+SSSAEVIO EQU   B'10000000'              DATA SET IS ELIGIBLE FOR VIO    01-IEFSSSA 
                         00000040            2737+SSSAETMP EQU   B'01000000'              DATA SET IS A TEMP DATA SET     01-IEFSSSA 
                         00000020            2738+SSSAEGDG EQU   B'00100000'              DATA SET IS A GDG               01-IEFSSSA 
                         00000010            2739+SSSAEVRF EQU   B'00010000'              VOLREF SPECIFIED                01-IEFSSSA 
                         00000008            2740+SSSAEMVA EQU   B'00001000'              CREATE A BEST FIT DATA SET      01-IEFSSSA 
                         00000004            2741+SSSAEHDV EQU   B'00000100'              1=HONOR DEVICE TYPE             01-IEFSSSA 
                         00000002            2742+SSSAESPL EQU   B'00000010'              1=INDEX AND DATA CAN BE SPLIT  X01-IEFSSSA 
                                                 +                                        ON DIFFERENT VOLUMES                       
 00000032                                    2743+SSSAEIF3 DS    XL1                      INPUT FLAGS                     01-IEFSSSA 
                         00000080            2744+SSSAENCT EQU   B'10000000'              DO NOT CREATE CATALOG ENTRY     01-IEFSSSA 
                         00000040            2745+SSSAENVD EQU   B'01000000'              DO NOT CREATE A VVDS ENTRY      01-IEFSSSA 
                         00000020            2746+SSSAENAU EQU   B'00100000'              NO AUTH CHK DURING ACS          01-IEFSSSA 
                         00000010            2747+SSSAEMDV EQU   B'00010000'              ATL DATASET             @L12A   01-IEFSSSA 
                         00000008            2748+SSSAEOLD EQU   B'00001000'              EXISTING DATASET        @L12A   01-IEFSSSA 
                         00000004            2749+SSSAEODS EQU   B'00000100'              Hierarchical data set    @LAA   01-IEFSSSA 
                         00000002            2750+SSSAEGSP EQU   B'00000010'              RELAX GUARANTEED SPACE    @0GA  01-IEFSSSA 
                         00000001            2751+SSSAEVRU EQU   B'00000001'              VSAM ROUND UP FOR TRACK OR     X01-IEFSSSA 
                                                 +                                        CYLINDER REQUESTS         @0DA             
 00000033                                    2752+SSSAEIF4 DS    XL1                      INPUT FLAGS               @0HC  01-IEFSSSA 
                         00000080            2753+SSSAECVS EQU   B'10000000'              COPY VOLSERS INTO JFCBX   @0HA  01-IEFSSSA 
                         00000040            2754+SSSAEMCM EQU   B'01000000'              Must_compress indicator.       X01-IEFSSSA 
                                                 +                                        Bypass calling CMP for         X           
                                                 +                                        compression eligibility.  @0QA             
                         00000020            2755+SSSAESPR EQU   B'00100000'              Space constraint relief   @X3A  01-IEFSSSA 
                         00000010            2756+SSSAEVAC EQU   B'00010000'              Copy SSSAEVLT into ACERO       X01-IEFSSSA 
                                                 +                                        for ACS calls             @X3A             
                         00000008            2757+SSSAESNA EQU   B'00001000'              Snapshot request          @VLA  01-IEFSSSA 
                         00000004            2758+SSSAEDPS EQU   B'00000100'              Divide VSAM DATA primary  @VSA X01-IEFSSSA 
                                                 +                                        space by stripe count     @VSA X           
                                                 +                                        regardless of GS or not   @VSA             
                         00000002            2759+SSSAE1EF EQU   B'00000010'              1 striped VSAM allocation @VSA  01-IEFSSSA 
                         00000001            2760+SSSAERFR EQU   B'00000001'              Required fast replication @FRA  01-IEFSSSA 
 00000034                                    2761+SSSAEACP DS    A                        ADDRESS OF CATALOG PARAMETER   X01-IEFSSSA 
                                                 +                                        LIST (CPL)                                 
 00000038                00000038 00000034   2762+         ORG   SSSAE+4                                                  01-IEFSSSA 
 00000034                                    2763+SSSAECRE DS    A                        ADDRESS OF DADSM PARAMETER     X01-IEFSSSA 
                                                 +                                        LIST (IGGDACRE)                            
 00000038                                    2764+SSSAEAMD DS    A                        ADDRESS OF 44 CHARACTER MODEL  X01-IEFSSSA 
                                                 +                                        DATA SET NAME                              
 0000003C                                    2765+SSSAEARO DS    A                        ADDRESS OF ACERO FOR PDSCB     X01-IEFSSSA 
                                                 +                                        INTERFACE 0 FOR JFCB AND CPL   X           
                                                 +                                        INTERFACES                                 
 00000040                                    2766+SSSAEMAX DS    AL1                      MAX NUMBER OF VOLUMES FOR THE  X01-IEFSSSA 
                                                 +                                        BEST FIT INTERFACE USED ONLY   X           
                                                 +                                        IF SSSAEMVA IS 'ON'                        
 00000041                                    2767+SSSAEEXF DS    AL1                      EXTENDED FORMAT INDICATOR @LFA X01-IEFSSSA 
1QUERYSMS REXX FUNCTION - QUERY SMS                                                                             Page   59            
   Active Usings: ARGTABLE_ENTRY,R8  EVALBLOCK,R9  EFPL,R10  ENVBLOCK,R11  QUERYSMS,R12  DATA,R13                                    
0D-Loc    Object Code      Addr1    Addr2    Stmt  Source Statement                          HLASM R6.0  2012/02/10 10.07            
0                                                +                                        0 - NOT EXTENDED FORMAT   @LFA X           
                                                 +                                        1 - REQUIRED              @LFA X           
                                                 +                                        2 - CONDITIONAL           @LFA             
 00000042                                    2768+SSSAEPDA DS    AL1                      Percent red. acceptable   @X3A  01-IEFSSSA 
 00000043                                    2769+SSSAEIF5 DS    XL1                      Input flags           @X3C@LUA  01-IEFSSSA 
                         00000080            2770+SSSAEFCP EQU   B'10000000'              FlashCopy to PPRC primary @LUA  01-IEFSSSA 
                         00000040            2771+SSSAE59V EQU   B'01000000'              Pass back upto 59 vols    @PRA  01-IEFSSSA 
                         00000030            2772+SSSAEPMR EQU   B'00110000'              PRESERVE MIRROR Bits 1-2  @PRA  01-IEFSSSA 
                         00000020            2773+SSSAEPM1 EQU   B'00100000'              PRESERVE MIRROR Bit 1     @PRA  01-IEFSSSA 
                         00000010            2774+SSSAEPM2 EQU   B'00010000'              PRESERVE MIRROR Bit 2     @PRA  01-IEFSSSA 
 00000044                                    2775+SSSAEDC  DS    CL32                     DATA CLASS                      01-IEFSSSA 
 00000064                00000064 00000044   2776+         ORG   SSSAE+20                                                 01-IEFSSSA 
 00000044                                    2777+SSSAEDCL DS    H                        LENGTH OF NAME                  01-IEFSSSA 
 00000046                                    2778+SSSAEDCC DS    CL30                     NAME                            01-IEFSSSA 
 00000064                                    2779+SSSAEMC  DS    CL32                     MANAGEMENT CLASS                01-IEFSSSA 
 00000084                00000084 00000064   2780+         ORG   SSSAE+52                                                 01-IEFSSSA 
 00000064                                    2781+SSSAEMCL DS    H                        LENGTH OF NAME                  01-IEFSSSA 
 00000066                                    2782+SSSAEMCC DS    CL30                     NAME                            01-IEFSSSA 
 00000084                                    2783+SSSAESC  DS    CL32                     STORAGE CLASS                   01-IEFSSSA 
 000000A4                000000A4 00000084   2784+         ORG   SSSAE+84                                                 01-IEFSSSA 
 00000084                                    2785+SSSAESCL DS    H                        LENGTH OF NAME                  01-IEFSSSA 
 00000086                                    2786+SSSAESCC DS    CL30                     NAME                            01-IEFSSSA 
 000000A4                                    2787+SSSAEJCT DS    A                        ADDRESS OF JCT (JOB CONTROL    X01-IEFSSSA 
                                                 +                                        TABLE)                                     
 000000A8                                    2788+SSSAEVLT DS    A                        ADDRESS OF THE INCLUSION OR    X01-IEFSSSA 
                                                 +                                        EXCLUSION VOLUME LIST                      
 000000AC                                    2789+SSSAESWK DS    CL8                      SJF DD TOKEN                    01-IEFSSSA 
 000000B4                                    2790+SSSAEVOL DS    CL6                      VSAM EOV REQUESTED VOLSER       01-IEFSSSA 
 000000BA                                    2791+SSSAELBK DS    CL8                      LAST BACKUP DATE                01-IEFSSSA 
 000000C2                                    2792+SSSAEDVT DS    CL4                      UCB DEVICE TYPE USED IN VOLUME X01-IEFSSSA 
                                                 +                                        SELECTION IF SSSAEHDV = '1'                
 000000C6                                    2793+         DS    CL2                      RESERVED                        01-IEFSSSA 
 000000C8                                    2794+SSSAEVFZ DS    A                        POINTER TO IGDVFZ               01-IEFSSSA 
                                             2795+***********************************************************************            
                                             2796+*   THE FOLLOWING STATUS IS RETURNED                                  *            
                                             2797+***********************************************************************            
 000000CC                                    2798+SSSAEOF1 DS    XL1                      OUTPUT FLAGS                    01-IEFSSSA 
                         00000080            2799+SSSAEODE EQU   B'10000000'              RETURNED ERROR MESSAGE NOT     X01-IEFSSSA 
                                                 +                                        GENERATED FOR UNEXPECTED DADSM X           
                                                 +                                        RETURN CODE                                
                         00000040            2800+SSSAEOVI EQU   B'01000000'              VIO DATA SET CREATED            01-IEFSSSA 
                         00000020            2801+SSSAEOSM EQU   B'00100000'              SMS MANAGED DATA SET CREATED    01-IEFSSSA 
                         00000010            2802+SSSAEVDS EQU   B'00010000'              VSAM DATA SET CREATED           01-IEFSSSA 
                         00000008            2803+SSSAEGRC EQU   B'00001000'              GDG WAS RECLAIMED          @07A 01-IEFSSSA 
                         00000004            2804+SSSAESSB EQU   B'00000100'              subsystem bit              @LMA 01-IEFSSSA 
 000000CD                                    2805+         DS    CL1                      RESERVED                        01-IEFSSSA 
 000000CE                                    2806+SSSAEONV DS    H                        MAXIMUM NUMBER OF VOLUMES       01-IEFSSSA 
 000000D0                                    2807+SSSAENVS DS    H                        NUMBER OF VOLUMES SELECTED     X01-IEFSSSA 
                                                 +                                        EQUAL TO THE NUMBER OF UCBS IN X           
                                                 +                                        THE LIST THAT FOLLOWS                      
 000000D2                                    2808+         DS    H                        RESERVED                        01-IEFSSSA 
 000000D4                                    2809+SSSAEOAU DS    59A       DIMENSION=(59)  LIST OF UCB ADDRESSES MAY BE  X01-IEFSSSA 
                                                 +                                        A SINGLE VDSCB (FOR VIO)                   
 000001C0                                    2810+SSSAECRC DS    F                        CATALOG RETURN CODE, CPL       X01-IEFSSSA 
                                                 +                                        INTERFACE ONLY                             
1QUERYSMS REXX FUNCTION - QUERY SMS                                                                             Page   60            
   Active Usings: ARGTABLE_ENTRY,R8  EVALBLOCK,R9  EFPL,R10  ENVBLOCK,R11  QUERYSMS,R12  DATA,R13                                    
0D-Loc    Object Code      Addr1    Addr2    Stmt  Source Statement                          HLASM R6.0  2012/02/10 10.07            
0000001C4                                    2811+SSSAEOTT DS    CL3                      TTR FOR FORMAT 1 DSCB           01-IEFSSSA 
 000001C7                                    2812+SSSAEORB DS    CL4                      RBA OF VVDS ENTRY               01-IEFSSSA 
 000001CB                                    2813+SSSAESSN DS    CL4                      subsystem name = 'SMS '    @LMA 01-IEFSSSA 
 000001CF                                    2814+         DS    CL1                      RESERVED                   @VLA 01-IEFSSSA 
 000001D0                                    2815+SSSAESNP DS    A                        Snapshot volist ptr        @VLA 01-IEFSSSA 
 000001D4                                    2816+SSSAERDS DS    A                        Real DSN ptr    I/P        @LRA 01-IEFSSSA 
 000001D8                                    2817+SSSAEFRV DS    CL6                      Fast Replication       @LRA@FRCX01-IEFSSSA 
                                                 +                                          source control volume    @FRA            
 000001DE                                    2818+SSSAESTC DS    AL1                      Stripe cnt of source D.S   @FRA 01-IEFSSSA 
 000001DF                                    2819+         DS    CL4                      RESERVED for SSSAE2 ptr    @FRC 01-IEFSSSA 
 000001E3                                    2820+SSSAEEND DS    0C                                                       01-IEFSSSA 
 000001E3                000001E3 00000030   2821+         ORG   SSSA+48                                                  01-IEFSSSA 
 00000030                                    2822+SSSAF    DS    0CL61                    START OF VTOC/DATA SET         X01-IEFSSSA 
                                                 +                                        SERVICES DELETE AN EXISTING    X           
                                                 +                                        DATA SET SECTION                           
 00000030                                    2823+SSSAFIF1 DS    XL1                      INPUT FLAG                      01-IEFSSSA 
                         00000080            2824+SSSAFDVE EQU   B'10000000'              DELETE VTOC ENTRY ONLY          01-IEFSSSA 
                         00000040            2825+SSSAFDVV EQU   B'01000000'              DELETE VTOC AND VVDS ENTRIES   X01-IEFSSSA 
                                                 +                                        ONLY                                       
                         00000020            2826+SSSAFDDP EQU   B'00100000'              DDNAME PASSED                   01-IEFSSSA 
                         00000010            2827+SSSAFRVP EQU   B'00010000'              RBA OF VVR PASSED (ONLY FOR    X01-IEFSSSA 
                                                 +                                        TEMPORARY VSAM DELETE)                     
                         00000008            2828+SSSAFVLG EQU   B'00001000'              CALLER GUARANTEES ACCURACY OF  X01-IEFSSSA 
                                                 +                                        VOLUME LIST                                
                         00000004            2829+SSSAFVSM EQU   B'00000100'              DATASET IS VSAM                 01-IEFSSSA 
                         00000002            2830+SSSAFTMP EQU   B'00000010'              Dataset is temporary     @0MA   01-IEFSSSA 
 00000031                                    2831+         DS    XL3                      RESERVED                        01-IEFSSSA 
 00000034                                    2832+SSSAFSCR DS    A                        ADDRESS OF DADSM PARAMETER     X01-IEFSSSA 
                                                 +                                        LIST (IGGDASCR)                            
 00000038                                    2833+SSSAFDDN DS    CL8                      DDNAME IF SSSAFDDP = '1'B       01-IEFSSSA 
 00000040                                    2834+SSSAFRBA DS    CL4                      RBA OF VVR (TEMP? VSAM DELETE)  01-IEFSSSA 
 00000044                                    2835+         DS    CL24                     RESERVED                        01-IEFSSSA 
                                             2836+***********************************************************************            
                                             2837+*   THE FOLLOWING STATUS IS RETURNED                                  *            
                                             2838+***********************************************************************            
 0000005C                                    2839+SSSAFOF1 DS    XL1                      OUTPUT FLAGS                    01-IEFSSSA 
                         00000080            2840+SSSAFODE EQU   B'10000000'              RETURNED ERROR MESSAGE NOT     X01-IEFSSSA 
                                                 +                                        GENERATED FOR UNEXPECTED DADSM X           
                                                 +                                        RETURN CODE                                
 0000005D                                    2841+         DS    CL16                     RESERVED                        01-IEFSSSA 
 0000006D                                    2842+SSSAFEND DS    0C                                                       01-IEFSSSA 
 0000006D                0000006D 00000030   2843+         ORG   SSSA+48                                                  01-IEFSSSA 
 00000030                                    2844+SSSAG    DS    0CL49                    START OF VTOC/DATA SET         X01-IEFSSSA 
                                                 +                                        SERVICES TO RENAME AN EXISTING X           
                                                 +                                        DATA SET                                   
 00000030                                    2845+SSSAGIF1 DS    XL1                      INPUT FLAG                      01-IEFSSSA 
                         00000080            2846+SSSAGRVE EQU   B'10000000'              RENAME VTOC ENTRY ONLY          01-IEFSSSA 
                         00000040            2847+SSSAGVLG EQU   B'01000000'              CALLER GURANATEES ACCURACY OF  X01-IEFSSSA 
                                                 +                                        VOLUME LIST                                
 00000031                                    2848+         DS    XL3                      RESERVED                        01-IEFSSSA 
 00000034                                    2849+SSSAGREN DS    A                        ADDRESS OF DADSM PARAMETER     X01-IEFSSSA 
                                                 +                                        LIST (IGGDAREN)                            
 00000038                                    2850+         DS    CL24                     RESERVED                        01-IEFSSSA 
                                             2851+***********************************************************************            
                                             2852+*   THE FOLLOWING STATUS IS RETURNED                                  *            
1QUERYSMS REXX FUNCTION - QUERY SMS                                                                             Page   61            
   Active Usings: ARGTABLE_ENTRY,R8  EVALBLOCK,R9  EFPL,R10  ENVBLOCK,R11  QUERYSMS,R12  DATA,R13                                    
0D-Loc    Object Code      Addr1    Addr2    Stmt  Source Statement                          HLASM R6.0  2012/02/10 10.07            
0                                            2853+***********************************************************************            
 00000050                                    2854+SSSAGOF1 DS    XL1                      OUTPUT FLAGS                    01-IEFSSSA 
                         00000080            2855+SSSAGODE EQU   B'10000000'              RETURNED ERROR MESSAGE NOT     X01-IEFSSSA 
                                                 +                                        GENERATED FOR UNEXPECTED DADSM X           
                                                 +                                        RETURN CODE                                
 00000051                                    2856+         DS    CL16                     RESERVED                        01-IEFSSSA 
 00000061                                    2857+SSSAGEND DS    0C                                                       01-IEFSSSA 
 00000061                00000061 00000030   2858+         ORG   SSSA+48                                                  01-IEFSSSA 
 00000030                                    2859+SSSAH    DS    0CL83                    START OF VTOC/DATA SET         X01-IEFSSSA 
                                                 +                                        SERVICES ADD A VOLUME TO AN    X           
                                                 +                                        EXISTING DATA SET                          
 00000030                                    2860+SSSAHFLG DS    XL1                      FLAGS                      @0FA 01-IEFSSSA 
                         00000080            2861+SSSAHKSC EQU   B'10000000'              KEYRANGE SPACE CHECK       @0FA 01-IEFSSSA 
                         00000040            2862+SSSAHRLS EQU   B'01000000'              THE DATA SET IS OPEN FOR RLS   X01-IEFSSSA 
                                                 +                                        PROCESSING, 1 ==> YES      @LDA            
                         00000020            2863+SSSAHUPD EQU   B'00100000'              Update function requested  @LJA 01-IEFSSSA 
                         00000010            2864+SSSAHDEL EQU   B'00010000'              DELVOL function requested  @LJA 01-IEFSSSA 
                         00000008            2865+SSSAHKRG EQU   B'00001000'              Keyrange data set          @X3A 01-IEFSSSA 
                         00000004            2866+SSSAHNDV EQU   B'00000100'              Not to delete lastvol in   @POAX01-IEFSSSA 
                                                 +                                        JFCB/TIOT during DELVOL    @POA            
 00000031                                    2867+SSSAHFL2 DS    XL1                      Flag byte 2           @0VA      01-IEFSSSA 
                         00000080            2868+SSSAHOSM EQU   B'10000000'              OSAM synch            @0VA      01-IEFSSSA 
                         00000040            2869+SSSAHDT  EQU   B'01000000'              VSAM Data Component   @MXA      01-IEFSSSA 
                         00000020            2870+SSSAHADV EQU   B'00100000'              EOV requests ADDVOL   @PMA     X01-IEFSSSA 
                                                 +                                        '*' to BCS. JFCB/TIOT @PMA     X           
                                                 +                                        have available slot.  @PMA                 
 00000032                                    2871+         DS    XL2                      RESERVED              @0VC      01-IEFSSSA 
 00000034                                    2872+SSSAHCRE DS    A                        ADDRESS OF DADSM PARAMETER     X01-IEFSSSA 
                                                 +                                        LIST (IGGDACRE)                            
 00000038                                    2873+SSSAHDSB DS    A                        ADDRESS OF DSAB                 01-IEFSSSA 
 0000003C                                    2874+SSSAHDDN DS    CL8                      DDNAME OF DATA SET              01-IEFSSSA 
 00000044                                    2875+SSSAHVOL DS    CL6                      REQUESTED VOLSER                01-IEFSSSA 
 0000004A                                    2876+SSSAHRXT DS    AL2                      Remaining extents         @X3C  01-IEFSSSA 
 0000004C                                    2877+SSSAHCNM DS    A                        COMPONENT NAME PASSED TO       X01-IEFSSSA 
                                                 +                                        CATALOG WHEN KRDS EXTENDING                
 00000050                                    2878+SSSAHJFC DS    A                        JFCB address              @LJA  01-IEFSSSA 
 00000054                                    2879+SSSAHCMT DS    CL8                      Component token           @LJA  01-IEFSSSA 
 0000005C                                    2880+SSSAHASV DS    A                        Active striping volist    @EVA  01-IEFSSSA 
 00000060                                    2881+         DS    CL4                      Reserved              @LJC@EVC  01-IEFSSSA 
                                             2882+***********************************************************************            
                                             2883+*   THE FOLLOWING STATUS IS RETURNED                                  *            
                                             2884+***********************************************************************            
 00000064                                    2885+SSSAHOF1 DS    XL1                      OUTPUT FLAGS                    01-IEFSSSA 
                         00000080            2886+SSSAHODE EQU   B'10000000'              RETURNED ERROR MESSAGE NOT     X01-IEFSSSA 
                                                 +                                        GENERATED FOR UNEXPECTED DADSM X           
                                                 +                                        RETURN CODE                                
                         00000040            2887+SSSAHFIJ EQU   B'01000000'              Selected Volume already    @PQAX01-IEFSSSA 
                                                 +                                        found in JFCB & JFCB/TIOT  @PQAX           
                                                 +                                        update was bypassed        @PQA            
 00000065                                    2888+         DS    CL3                      RESERVED                        01-IEFSSSA 
 00000068                                    2889+SSSAHOAU DS    A                        ADDRESS OF THE UCB              01-IEFSSSA 
 0000006C                                    2890+SSSAHOTT DS    CL3                      TTR FOR FORMAT 1 DSCB           01-IEFSSSA 
 0000006F                                    2891+SSSAHORB DS    CL4                      RBA OF VVDS ENTRY               01-IEFSSSA 
 00000073                                    2892+         DS    CL16                     RESERVED                        01-IEFSSSA 
 00000083                                    2893+SSSAHEND DS    0C                                                       01-IEFSSSA 
1QUERYSMS REXX FUNCTION - QUERY SMS                                                                             Page   62            
   Active Usings: ARGTABLE_ENTRY,R8  EVALBLOCK,R9  EFPL,R10  ENVBLOCK,R11  QUERYSMS,R12  DATA,R13                                    
0D-Loc    Object Code      Addr1    Addr2    Stmt  Source Statement                          HLASM R6.0  2012/02/10 10.07            
0                                            2894+*****************************************************************3@L7A*            
                                             2895+* SMS Tape Volume Record Update SSI                                   *            
                                             2896+***********************************************************************            
 00000083                00000083 00000030   2897+         ORG   SSSA+48                                             @L7A 01-IEFSSSA 
 00000030                                    2898+SSSAJ    DS    0CL320                                              @L2C 01-IEFSSSA 
 00000030                                    2899+SSSAJI   DS    CL84                     INPUT to Tape Vol Rec Upd  @PCC 01-IEFSSSA 
 00000084                00000084 00000030   2900+         ORG   SSSAJ+0                                             @L7A 01-IEFSSSA 
 00000030                                    2901+SSSAJIHD DS    CL6                      'SSSAJI' eye catcher       @PCA 01-IEFSSSA 
 00000036                                    2902+SSSAJFL1 DS    XL2                      INPUT flags                @L7A 01-IEFSSSA 
                         00000080            2903+SSSAJOUT EQU   B'10000000'              '1'= open for output       @L7A 01-IEFSSSA 
                         00000040            2904+SSSAJNEW EQU   B'01000000'              '1'=dataset disposition=NEW@L7A 01-IEFSSSA 
                         00000020            2905+SSSAJBYP EQU   B'00100000'              '1'= caller does not want  @L7AX01-IEFSSSA 
                                                 +                                        full update of the tape    @L7AX           
                                                 +                                        volume record incl.        @L7AX           
                                                 +                                        storage group update, so   @L7AX           
                                                 +                                        bypass that processing and @L7AX           
                                                 +                                        only update last mount,    @L7AX           
                                                 +                                        last write and expiration  @L7AX           
                                                 +                                        (if given) dates           @L7A            
                         00000010            2906+SSSAJFS1 EQU   B'00010000'              '1'=file sequence # is 1   @P7A 01-IEFSSSA 
                         00000008            2907+SSSAJBAI EQU   B'00001000'              '1'= caller is requesting  @P7CX01-IEFSSSA 
                                                 +                                        build and issuance of all  @L7AX           
                                                 +                                        error msgs in SMS TVRU SSI @L7A            
 00000038                                    2908+SSSAJFUN DS    XL1                      = SSSAJUPD means update    @PCAX01-IEFSSSA 
                                                 +                                        tape volume record         @PCAX           
                                                 +                                        = SSSAJRAU means retrieve  @PCAX           
                                                 +                                        sc, dc, mc, sg names AND   @PCAX           
                                                 +                                        update tape volume record  @PCAX           
                                                 +                                        =SSSAJLOG means logrec     @L2AX           
                                                 +                                        the OCE cntlblks           @LQCX           
                                                 +                                        =SSSAJDSG means derive SG  @LQAX           
                                                 +                                        function                   @LQAX           
                                                 +                                        =SSSAJDCD retrieve SCALing @LVCX           
                                                 +                                        /Media types from DC       @LVC            
 00000039                                    2909+SSSAJVLA DS    CL1                      volume attribute           @L7AX01-IEFSSSA 
                                                 +                                        SSSAJPRI or SSSAJSCR       @L7A            
 0000003A                                    2910+SSSAJSDD DS    CL8                      SJF DD token               @L7A 01-IEFSSSA 
 00000042                                    2911+SSSAJPRV DS    CL6                      volser of previous volume  @L7A 01-IEFSSSA 
 00000048                                    2912+SSSAJTDS DS    F                        Tape Device Selection Info @PCAX01-IEFSSSA 
                                                 +                                        if current volser is part  @L7AX           
                                                 +                                        of a logical grouping of   @L7AX           
                                                 +                                        volumes                    @L7A            
 0000004C                                    2913+SSSAJUCB DS    A                        pointer to the UCB         @L7A 01-IEFSSSA 
 00000050                                    2914+SSSAJXPD DS    CL4                      data set expiration date   @L7AX01-IEFSSSA 
                                                 +                                        in TIME macro format of    @L7AX           
                                                 +                                        0CYYDDDF                   @L7A            
 00000054                                    2915+SSSAJVOL DS    CL6                      volume serial number       @L7A 01-IEFSSSA 
 0000005A                                    2916+SSSAJVER DS    H                        SSSAJ version number       @LZA 01-IEFSSSA 
                         00000001            2917+SSSAJV   EQU   1                        Version number             @LZA 01-IEFSSSA 
 0000005C                                    2918+         DS    CL40                     reserved, unused           @LZC 01-IEFSSSA 
 00000084                                    2919+SSSAJO   DS    CL180                    OUTPUT - Tape Vol Rec Upd  @PCC 01-IEFSSSA 
 00000138                00000138 00000084   2920+         ORG   SSSAJ+84                                            @L7A 01-IEFSSSA 
                                             2921+*                                                                35@P7D            
 00000084                                    2922+SSSAJOHD DS    CL6                      'SSSAJO' eye catcher       @PCA 01-IEFSSSA 
 0000008A                                    2923+SSSAJRSG DS    0CL32                                               @PCA 01-IEFSSSA 
1QUERYSMS REXX FUNCTION - QUERY SMS                                                                             Page   63            
   Active Usings: ARGTABLE_ENTRY,R8  EVALBLOCK,R9  EFPL,R10  ENVBLOCK,R11  QUERYSMS,R12  DATA,R13                                    
0D-Loc    Object Code      Addr1    Addr2    Stmt  Source Statement                          HLASM R6.0  2012/02/10 10.07            
00000008A                                    2924+SSSAJSGL DS    XL2                      storage group name length  @PCA 01-IEFSSSA 
 0000008C                                    2925+SSSAJSG  DS    0CL30                    storage group name         @PCA 01-IEFSSSA 
 0000008C                                    2926+SSSAJSGN DS    CL8                      storage group name         @PCA 01-IEFSSSA 
 00000094                                    2927+         DS    CL22                                                @PCA 01-IEFSSSA 
 000000AA                                    2928+SSSAJRMC DS    0CL32                                               @PCA 01-IEFSSSA 
 000000AA                                    2929+SSSAJMCL DS    XL2                      management class name len  @PCA 01-IEFSSSA 
 000000AC                                    2930+SSSAJMC  DS    0CL30                    management class name      @PCA 01-IEFSSSA 
 000000AC                                    2931+SSSAJMCN DS    CL8                      storage group name         @PCA 01-IEFSSSA 
 000000B4                                    2932+         DS    CL22                                                @PCA 01-IEFSSSA 
 000000CA                                    2933+SSSAJRSC DS    0CL32                                               @PCA 01-IEFSSSA 
 000000CA                                    2934+SSSAJSCL DS    XL2                      storage class length       @PCA 01-IEFSSSA 
 000000CC                                    2935+SSSAJSC  DS    0CL30                    storage class name         @PCA 01-IEFSSSA 
 000000CC                                    2936+SSSAJSCN DS    CL8                      storage group name         @PCA 01-IEFSSSA 
 000000D4                                    2937+         DS    CL22                                                @PCA 01-IEFSSSA 
 000000EA                                    2938+SSSAJRDC DS    0CL32                                               @PCA 01-IEFSSSA 
 000000EA                                    2939+SSSAJDCL DS    XL2                      data class length          @PCA 01-IEFSSSA 
 000000EC                                    2940+SSSAJDC  DS    0CL30                    data class name            @PCA 01-IEFSSSA 
 000000EC                                    2941+SSSAJDCN DS    CL8                      storage group name         @PCA 01-IEFSSSA 
 000000F4                                    2942+         DS    CL22                                                @PCA 01-IEFSSSA 
 0000010A                                    2943+SSSAJSGT DS    XL1                      Scratch SG pool type       @LQA 01-IEFSSSA 
 0000010C                                    2944+SSSAJIAR DS    F                        storclass IART value       @LPA 01-IEFSSSA 
 00000110                                    2945+SSSAJSCA DS    CL1                      Scaling option in char     @15A 01-IEFSSSA 
 00000111                                    2946+SSSAJSCF DS    0XL1                     Scaling option in number   @LVC 01-IEFSSSA 
 00000111                                    2947+SSSAJMDA DS    XL1                      Media type from DC         @LVA 01-IEFSSSA 
 00000112                                    2948+SSSAJSEG DS    CL1                      Segmentation option        @LYA 01-IEFSSSA 
 00000113                                    2949+SSSAJREC DS    XL1                      Recording Tech option      @LYA 01-IEFSSSA 
 00000114                                    2950+         DS    CL37                     reserved, unused           @LYC 01-IEFSSSA 
 00000139                                    2951+SSSAJM   DS    CL56                     For LOGREC message info    @L2A 01-IEFSSSA 
 00000171                00000171 0000013C   2952+         ORG   SSSAJ+268                                           @LZC 01-IEFSSSA 
                                             2953+*                                                                  @L2A            
 0000013C                                    2954+SSSAJMHD DS    CL6                      'SSSAJM' eye catcher       @L2A 01-IEFSSSA 
 00000142                                    2955+SSSAJCMN DS    CL8                      CALLER module name         @L2A 01-IEFSSSA 
 0000014A                                    2956+SSSAJEMN DS    CL8                      Error module name          @L2A 01-IEFSSSA 
 00000152                                    2957+         DS    CL2                      Reserved                   @L2A 01-IEFSSSA 
 00000154                                    2958+SSSAJMRC DS    F                        Return code to put out     @L2A 01-IEFSSSA 
 00000158                                    2959+SSSAJMRS DS    F                        Reason code to put out     @L2A 01-IEFSSSA 
 0000015C                                    2960+SSSAJCBK DS    0CL8                     cntlblk to be log          @L2A 01-IEFSSSA 
 0000015C                                    2961+SSSAJCBL DS    XL4                      Length of the cntlblk      @L2A 01-IEFSSSA 
 00000160                                    2962+SSSAJCBP DS    A                        Pointer to control blks    @L2A 01-IEFSSSA 
 00000164                                    2963+SSSAJPID DS    CL8                      Output: LOGREC Problem ID  @L2A 01-IEFSSSA 
 0000016C                                    2964+         DS    CL8                      Reserve - unused           @L2A 01-IEFSSSA 
 00000174                                    2965+SSSAJO2  DS    CL65                     Part 2 of output area      @LZA 01-IEFSSSA 
 000001B5                000001B5 00000174   2966+         ORG   SSSAJ+324                                           @LZA 01-IEFSSSA 
 00000174                                    2967+SSSAJ2HD DS    CL8                      output 2 eye catcher       @LZA 01-IEFSSSA 
 0000017C                                    2968+SSSAJKL1 DS    CL64                     Key Label 1                @LZA 01-IEFSSSA 
 000001BC                                    2969+SSSAJKC1 DS    CL1                      Encoding code for label 1  @LZA 01-IEFSSSA 
 000001BD                                    2970+SSSAJKL2 DS    CL64                     Key Label 2                @LZA 01-IEFSSSA 
 000001FD                                    2971+SSSAJKC2 DS    CL1                      Encoding code for label 2  @LZA 01-IEFSSSA 
 000001FE                                    2972+SSSAJEND DS    0C                                                  @L7A 01-IEFSSSA 
                         000001CE            2973+SSSAJLEN EQU   *-SSSAJ                  LEN OF SSSAJ               @15M 01-IEFSSSA 
                                             2974+*****************************************************************3@L9A*            
                                             2975+* Device Pool Select SSI                                              *            
                                             2976+***********************************************************************            
 000001FE                000001FE 00000030   2977+         ORG   SSSA+48                                                  01-IEFSSSA 
1QUERYSMS REXX FUNCTION - QUERY SMS                                                                             Page   64            
   Active Usings: ARGTABLE_ENTRY,R8  EVALBLOCK,R9  EFPL,R10  ENVBLOCK,R11  QUERYSMS,R12  DATA,R13                                    
0D-Loc    Object Code      Addr1    Addr2    Stmt  Source Statement                          HLASM R6.0  2012/02/10 10.07            
000000030                                    2978+SSSAI    DS    0CL40                    START OF DEVICE POOL SELECT    X01-IEFSSSA 
                                                 +                                        SSSASFN = SSSAIDPS         @L9A            
 00000030                                    2979+SSSAISJF DS    CL8                      SJF TOKEN OR ZERO          @L9A 01-IEFSSSA 
 00000038                                    2980+SSSAISPN DS    AL1                      SUBPOOL NUMBER FOR DEVICE POOL X01-IEFSSSA 
                                                 +                                        NAME LIST                  @L9A            
 00000039                                    2981+         DS    CL3                      RESERVED                   @L9A 01-IEFSSSA 
 0000003C                                    2982+SSSAIDPN DS    A                        PTR TO DEVICE POOL NM LST  @L9A 01-IEFSSSA 
 00000040                                    2983+SSSAIRC  DS    CL4                      RETURN CODE                @L9A 01-IEFSSSA 
 00000044                                    2984+SSSAILIB DS    CL5                      LIBRARY ID                 @PBA 01-IEFSSSA 
 00000049                                    2985+SSSAIFG1 DS    CL1                      FLAGS                      @PBA 01-IEFSSSA 
                         00000080            2986+SSSAIPRF EQU   B'10000000'              LIST IN PREFERRED ORDER    @PBA 01-IEFSSSA 
 0000004A                                    2987+         DS    CL20                     RESERVED                   @L9A 01-IEFSSSA 
 0000005E                                    2988+SSSAIEND DS    0C                                                  @L9A 01-IEFSSSA 
                                             2989+***********************************************************************            
                                             2990+*       Data Set Stacking SSI                                      @TMA            
                                             2991+***********************************************************************            
                                             2992+*       Invoke SMS Data Set Stacking SSI - Invoked once per DD under  *            
                                             2993+*       under the following conditions:                               *            
                                             2994+*       1. The DD is DISP=NEW or DISP=MOD treated as NEW              *            
                                             2995+*       2. The DD does not specify VOL=REF (this is handled by        *            
                                             2996+*          VOLREF Services).                                          *            
                                             2997+*       3. The DD is determined by Allocation to be part of a data set*            
                                             2998+*          collection (using volumes serials, LABEL parameter, etc.). *            
                                             2999+*       4. Previous processing caused primary data set and data set   *            
                                             3000+*          being stacked to be directed to different media types.     *            
                                             3001+*       Called by Scheduler/Allocation and JES3.                  @TMA*            
                                             3002+***********************************************************************            
 0000005E                0000005E 00000030   3003+         ORG   SSSA+48                                             @TMA 01-IEFSSSA 
 00000030                                    3004+SSSAK    DS    0CL224                    Start of Data Set Stacking@0TCX01-IEFSSSA 
                                                 +                                         SSI (SSSASFN = SSSADSTK)  @TMA            
                                             3005+***********************************************************************            
                                             3006+*        Data Set Stacking SSI Input                               @TMA            
                                             3007+***********************************************************************            
 00000030                                    3008+SSSAKI   DS    0CL200                    Input                     @0TC 01-IEFSSSA 
 00000030                                    3009+SSSAKIFL DS    XL1                       Input flags               @TMA 01-IEFSSSA 
                         00000080            3010+SSSAKSM1 EQU   B'10000000'               1 ==> Primary data set is     X01-IEFSSSA 
                                                 +                                         SMS managed               @TMA            
                         00000040            3011+SSSAKTP1 EQU   B'01000000'               1 ==> Primary data set is     X01-IEFSSSA 
                                                 +                                         managed mountable (tape)  @TMA            
 00000031                                    3012+         DS    CL3                       Reserved                  @TMA 01-IEFSSSA 
 00000034                                    3013+SSSAKSC  DS    0CL32                     Storage class of primary  @0TCX01-IEFSSSA 
                                                 +                                         data set, if available    @TMA            
 00000034                                    3014+SSSAKSCL DS    H                         Storage class length      @TMA 01-IEFSSSA 
 00000036                                    3015+SSSAKSCN DS    CL30                      Storage class name        @TMA 01-IEFSSSA 
 00000054                                    3016+SSSAKSG  DS    0CL32                     Storage group of primary  @0TCX01-IEFSSSA 
                                                 +                                         data set, if available    @TMA            
 00000054                                    3017+SSSAKSGL DS    H                         Storage group length      @TMA 01-IEFSSSA 
 00000056                                    3018+SSSAKSGN DS    CL30                      Storage group name        @TMA 01-IEFSSSA 
 00000074                                    3019+SSSAKVOL DS    CL6                       Volume serial of primary      X01-IEFSSSA 
                                                 +                                         data set when storage group isX           
                                                 +                                         not available             @TMA            
 0000007A                                    3020+         DS    CL6                       Reserved                  @TMA 01-IEFSSSA 
 00000080                                    3021+SSSAKDS1 DS    CL44                      Data set name of data set     X01-IEFSSSA 
                                                 +                                         being stacked ON (primary)@TMA            
1QUERYSMS REXX FUNCTION - QUERY SMS                                                                             Page   65            
   Active Usings: ARGTABLE_ENTRY,R8  EVALBLOCK,R9  EFPL,R10  ENVBLOCK,R11  QUERYSMS,R12  DATA,R13                                    
0D-Loc    Object Code      Addr1    Addr2    Stmt  Source Statement                          HLASM R6.0  2012/02/10 10.07            
0000000AC                                    3022+SSSAKDS2 DS    CL44                      Data set name of data set TO  X01-IEFSSSA 
                                                 +                                         BE stacked                @TMA            
 000000D8                                    3023+SSSAKSI  DS    0CL32                     Additional input,         @0TCX01-IEFSSSA 
                                                 +                                         if called by              @0SAX           
                                                 +                                         Scheduler/Allocation      @TMA            
 000000D8                                    3024+SSSAKSJ1 DS    CL8                       SJF token for data set being  X01-IEFSSSA 
                                                 +                                         stacked ON (primary)      @TMA            
 000000E0                                    3025+SSSAKSJ2 DS    CL8                       SJF token for data set TO BE  X01-IEFSSSA 
                                                 +                                         stacked                   @TMA            
 000000E8                                    3026+         DS    CL16                      Reserved                  @TMA 01-IEFSSSA 
                                             3027+***********************************************************************            
                                             3028+*       Data Set Stacking SSI Output                               @TMA            
                                             3029+***********************************************************************            
 000000F8                                    3030+SSSAKO   DS    0CL24                     Output                    @0TC 01-IEFSSSA 
 000000F8                                    3031+SSSAKOFL DS    XL1                       Output flags              @TMA 01-IEFSSSA 
                         00000080            3032+SSSAKSM2 EQU   B'10000000'               1 ==> Data set being stacked  X01-IEFSSSA 
                                                 +                                         is SMS managed            @TMA            
                         00000040            3033+SSSAKTP2 EQU   B'01000000'               1 ==> Data set being stacked  X01-IEFSSSA 
                                                 +                                         is managed mountable:tape @TMA            
 000000F9                                    3034+         DS    CL7                       Reserved                  @TMA 01-IEFSSSA 
 00000100                                    3035+SSSAKSRC DS    F                         Failing service retcode   @TMA 01-IEFSSSA 
 00000104                                    3036+SSSAKSRS DS    F                         Failing service rsncode   @TMA 01-IEFSSSA 
 00000108                                    3037+         DS    CL8                       Reserved                  @TMA 01-IEFSSSA 
 00000110                                    3038+SSSAKEND DS    0C                                                  @TMA 01-IEFSSSA 
                         000000E0            3039+SSSAKLEN EQU   *-SSSAK                   Length of SSSAK           @0TC 01-IEFSSSA 
                                             3040+***********************************************************************            
                                             3041+*       Unit Affinity SSI                                          @LOA            
 00000110                00000110 00000030   3042+         ORG   SSSA+48                                             @TMA 01-IEFSSSA 
 00000030                                    3043+SSSAL    DS    0CL224                    Start of Unit Affinity SSI@LOCX01-IEFSSSA 
                                                 +                                         SSI (SSSASFN = SSSAUAFF)  @LOA            
                                             3044+***********************************************************************            
                                             3045+*        Unit Affinity SSI Input Area                              @LOA            
                                             3046+***********************************************************************            
 00000030                                    3047+SSSALI   DS    0CL108                    Input                     @LOC 01-IEFSSSA 
 00000030                                    3048+SSSALIFL DS    XL1                       Input flags               @LOA 01-IEFSSSA 
                         00000080            3049+SSSALSM1 EQU   B'10000000'               1 ==> AFFed data set is       X01-IEFSSSA 
                                                 +                                         SMS managed               @LOA            
                         00000040            3050+SSSALTP1 EQU   B'01000000'               1 ==> AFFed data set is       X01-IEFSSSA 
                                                 +                                         SMS managed mountable     @LOA            
                         00000020            3051+SSSALJS3 EQU   B'00100000'               1 ==> Caller is JES3      @LOA 01-IEFSSSA 
                         00000010            3052+SSSALRDL EQU   B'00010000'               1 ==> Return Device Pool  @LOA 01-IEFSSSA 
 00000031                                    3053+         DS    CL2                       Reserved                  @PKC 01-IEFSSSA 
 00000033                                    3054+SSSALLBL DS    CL1                       AFFing DD LABEL           @PKA 01-IEFSSSA 
 00000034                                    3055+SSSALLSP DS    F                         Subpool number for device @LOAX01-IEFSSSA 
                                                 +                                         pool name list return area@LOA            
 00000038                                    3056+SSSALVOL DS    CL6                       Volume serial of AFFed        X01-IEFSSSA 
                                                 +                                         data set when storage group isX           
                                                 +                                         not available             @LOA            
 0000003E                                    3057+         DS    CL6                       Reserved                  @LOA 01-IEFSSSA 
 00000044                                    3058+SSSALDS1 DS    CL44                      Data set name of the AFFed@LOAX01-IEFSSSA 
                                                 +                                         DD.                       @LOA            
 00000070                                    3059+SSSALDS2 DS    CL44                      Data set name of the AFFing   X01-IEFSSSA 
                                                 +                                         DD.                       @LOA            
 0000009C                                    3060+SSSALSI  DS    0CL64                     Additional input,         @LOCX01-IEFSSSA 
1QUERYSMS REXX FUNCTION - QUERY SMS                                                                             Page   66            
   Active Usings: ARGTABLE_ENTRY,R8  EVALBLOCK,R9  EFPL,R10  ENVBLOCK,R11  QUERYSMS,R12  DATA,R13                                    
0D-Loc    Object Code      Addr1    Addr2    Stmt  Source Statement                          HLASM R6.0  2012/02/10 10.07            
0                                                +                                         if called by              @LOAX           
                                                 +                                         Scheduler/Allocation      @LOA            
 0000009C                                    3061+SSSALSJ1 DS    CL8                       SJF token for the AFFed DD@LOA 01-IEFSSSA 
 000000A4                                    3062+SSSALSJ2 DS    CL8                       SJF token for the AFFing  @LOAX01-IEFSSSA 
                                                 +                                         DD                        @LOA            
 000000AC                                    3063+         DS    CL48                      Reserved                  @LOA 01-IEFSSSA 
                                             3064+***********************************************************************            
                                             3065+*       Unit Affinity SSI Output Area                              @LOA            
                                             3066+***********************************************************************            
 000000DC                                    3067+SSSALO   DS    0CL52                     Output                    @LOC 01-IEFSSSA 
 000000DC                                    3068+SSSALOFL DS    XL1                       Output flags              @LOA 01-IEFSSSA 
                         00000080            3069+SSSALSM2 EQU   B'10000000'               1 ==> Data set being AFFed    X01-IEFSSSA 
                                                 +                                         is SMS managed            @LOA            
                         00000040            3070+SSSALTP2 EQU   B'01000000'               1 ==> Data set being AFFed    X01-IEFSSSA 
                                                 +                                         is managed mountable:tape @LOA            
 000000DD                                    3071+         DS    CL3                       Reserved                  @LOA 01-IEFSSSA 
 000000E0                                    3072+SSSALSRC DS    F                         Failing service retcode   @LOA 01-IEFSSSA 
 000000E4                                    3073+SSSALSRS DS    F                         Failing service rsncode   @LOA 01-IEFSSSA 
 000000E8                                    3074+SSSALDPN DS    CL4                       Ptr to device pool list   @LOA 01-IEFSSSA 
 000000EC                                    3075+         DS    CL36                      Reserved                  @LOA 01-IEFSSSA 
 00000110                                    3076+SSSALEND DS    0C                                                  @LOA 01-IEFSSSA 
                         000000E0            3077+SSSALLEN EQU   *-SSSAL                   Length of SSSAL           @LOC 01-IEFSSSA 
                                             3078+***********************************************************************            
                                             3079+*   /*  Extension to Catalog Services parameter list and                           
                                             3080+*       list of volsers in JCL when multiple volsers exist.                        
                                             3081+*       Based on SSSA9MVL for Cat Serv and SSSAAMVL for VOLREF     @PLC            
                                             3082+***********************************************************************            
 00000000                00000000 00000040   3083+SSSA9EXT DSECT                          Extension to SSSA9         @PLA 01-IEFSSSA 
 00000000                                    3084+SSSA9XI  DS    CL32                     Input extension            @PLA 01-IEFSSSA 
 00000020                                    3085+SSSA9XO  DS    CL32                     Output extension           @PLA 01-IEFSSSA 
 00000040                00000040 00000020   3086+         ORG   SSSA9EXT+32                                         @PLA 01-IEFSSSA 
 00000020                                    3087+SSSA9LIB DS    CL8                      Tape library name          @PLA 01-IEFSSSA 
 00000000                00000000 00000008   3088+SSSA9VLS DSECT                          LIST OF VOLSERS FROM JCL   @L9A 01-IEFSSSA 
 00000000                                    3089+SSSA9VCT DS    H                        Number of VOLSERs in list  @L9A 01-IEFSSSA 
 00000002                                    3090+SSSA9VSA DS    CL6       DIMENSION=(*)  ARRAY OF VOLSERS           @L9A 01-IEFSSSA 
 00000008                00000008 00000002   3091+         ORG   SSSA9VLS+2                                          @L9A 01-IEFSSSA 
 00000002                                    3092+SSSA9VSR DS    CL6                      VOLSERS to be changed      @L9A 01-IEFSSSA 
                                             3093+***********************************************************************            
                                             3094+*      When SSSABEXG is off, this structure must be based on the      *            
                                             3095+*      address of SSSABNM and no more than eight entries may be       *            
                                             3096+*      processed. When it is on, it must be based on the address of   *            
                                             3097+*      SSSABNMX. When SSSABEXR is off, no more than the first eight   *            
                                             3098+*      entries must be processed on return.                       @LHA*            
                                             3099+***********************************************************************            
 00000000                00000000 00000100   3100+SSSABEX1 DSECT                          Extended system name list  @LHA 01-IEFSSSA 
 00000000                                    3101+SSSABNM2 DS    32CL8     DIMENSION=(32) List of systems eligible to    X01-IEFSSSA 
                                                 +                                        access SMS resources?      @LHC            
                                             3102+***********************************************************************            
                                             3103+*      When SSSABEXG is off, this structure must be based on the      *            
                                             3104+*      address of SSSABPST and no more than eight entries may be      *            
                                             3105+*      processed. When it is on, it must be based on the address of   *            
                                             3106+*      SSSABPSX. When SSSABEXR is off, no more than the first eight   *            
                                             3107+*      entries must be processed on return.                       @LHA*            
                                             3108+***********************************************************************            
 00000000                00000000 00000080   3109+SSSABEX2 DSECT                          Extended system status list@LHA 01-IEFSSSA 
1QUERYSMS REXX FUNCTION - QUERY SMS                                                                             Page   67            
   Active Usings: ARGTABLE_ENTRY,R8  EVALBLOCK,R9  EFPL,R10  ENVBLOCK,R11  QUERYSMS,R12  DATA,R13                                    
0D-Loc    Object Code      Addr1    Addr2    Stmt  Source Statement                          HLASM R6.0  2012/02/10 10.07            
000000000                                    3110+SSSABPS2 DS    32CL4     DIMENSION=(32) System status:             @LHC 01-IEFSSSA 
                         00000080            3111+SSSABPA2 EQU   B'10000000'              '1'B = System available, '0'B  X01-IEFSSSA 
                                                 +                                        = System unavailable       @LHM            
 00000080                00000080 00000000   3112+         ORG   SSSABEX2+0                                          @LHC 01-IEFSSSA 
 00000000                                    3113+         DS    XL3                      Reserved                   @LHC 01-IEFSSSA 
 00000003                                    3114+         DS    CL125                                               @LHC 01-IEFSSSA 
                                             3115+***********************************************************************            
                                             3116+*      When SSSACEXG is off, this structure must be based on the      *            
                                             3117+*      address of SSSACNM and no more than eight entries may be       *            
                                             3118+*      processed. When it is on, it must be based on the address of   *            
                                             3119+*      SSSACNMX. When SSSACEXR is off, no more than the first eight   *            
                                             3120+*      entries must be processed on return.                       @LHA*            
                                             3121+***********************************************************************            
 00000000                00000000 00000100   3122+SSSACEX1 DSECT                          Extended system name list  @LHA 01-IEFSSSA 
 00000000                                    3123+SSSACNM2 DS    32CL8     DIMENSION=(32) List of systems eligible to    X01-IEFSSSA 
                                                 +                                        access SMS resources?      @LHC            
                                             3124+***********************************************************************            
                                             3125+*      When SSSACEXG is off, this structure must be based on the      *            
                                             3126+*      address of SSSACPST and no more than eight entries may be      *            
                                             3127+*      processed. When it is on, it must be based on the address of   *            
                                             3128+*      SSSACPSX. When SSSACEXR is off, no more than the first eight   *            
                                             3129+*      entries must be processed on return.                       @LHA*            
                                             3130+***********************************************************************            
 00000000                00000000 00000080   3131+SSSACEX2 DSECT                          Extended system status list@LHA 01-IEFSSSA 
 00000000                                    3132+SSSACPS2 DS    32CL4     DIMENSION=(32) System status:             @LHC 01-IEFSSSA 
                         00000080            3133+SSSACPA2 EQU   B'10000000'              '1'B = System available, '0'B  X01-IEFSSSA 
                                                 +                                        = System unavailable       @LHM            
 00000080                00000080 00000000   3134+         ORG   SSSACEX2+0                                          @LHC 01-IEFSSSA 
 00000000                                    3135+         DS    XL3                      Reserved                   @LHC 01-IEFSSSA 
 00000003                                    3136+         DS    CL125                                               @LHC 01-IEFSSSA 
 00000000                00000000 000011EC   3137+SSSAIDPL DSECT                          LIST OF DEVICE POOL NAMES  @L9A 01-IEFSSSA 
 00000000                                    3138+SSSAIDCF DS    CL16                     Fixed portion              @L9A 01-IEFSSSA 
 00000010                00000010 00000000   3139+         ORG   SSSAIDPL                                            @L9A 01-IEFSSSA 
 00000000                                    3140+SSSAIDCT DS    F                        NUMBER OF ENTRIES IN LIST  @L9A 01-IEFSSSA 
 00000004                                    3141+SSSAIDSZ DS    F                        SIZE OF BUFFER             @L9A 01-IEFSSSA 
 00000008                                    3142+         DS    CL8                      RESERVED                   @L9A 01-IEFSSSA 
 00000010                                    3143+SSSAIDPA DS    CL8       DIMENSION=(*)  ARRAY OF DEVICE POOL NAMES @L9A 01-IEFSSSA 
 00000018                00000018 00000010   3144+         ORG   SSSAIDPL+16                                         @L9A 01-IEFSSSA 
 00000010                                    3145+SSSAIDPE DS    CL8                      DEVICE POOL NAME           @L9A 01-IEFSSSA 
                                             3146+***********************************************************************            
                                             3147+*        SUBFUNCTION CODES - SSSASFN - DETERMINES SUBFUNCTION TO BE   *            
                                             3148+*        PERFORMED BY SMS SUBSYSTEM                                   *            
                                             3149+***********************************************************************            
                         00000001            3150+SSSAACTV EQU   1                        RETURNS DATA FROM THE ACTIVE   X01-IEFSSSA 
                                                 +                                        CONFIGURATION                              
                         00000002            3151+SSSAACON EQU   2                        ACTIVATE A NEW CONFIGURATION    01-IEFSSSA 
                         00000003            3152+SSSAEOJ  EQU   3                        END OF JOB NOTIFICATION         01-IEFSSSA 
                         00000004            3153+SSSACPSW EQU   4                        VOLREF COPY SWBS FUNCTION       01-IEFSSSA 
                         00000005            3154+SSSAACS  EQU   5                        PERFORM ACS PROCESSING          01-IEFSSSA 
                         00000007            3155+SSSAIDAX EQU   7                        SMS INTERPRETER/DYNAMIC        X01-IEFSSSA 
                                                 +                                        ALLOCATION EXIT (IDAX)         X           
                                                 +                                        SUBFUNCTION REQUEST CODE                   
                         00000008            3156+SSSADSPX EQU   8                        INVOKE DISP PROCESSING EXIT     01-IEFSSSA 
                         00000009            3157+SSSACTLG EQU   9                        INVOKE SMS CATALOG SERVICES     01-IEFSSSA 
1QUERYSMS REXX FUNCTION - QUERY SMS                                                                             Page   68            
   Active Usings: ARGTABLE_ENTRY,R8  EVALBLOCK,R9  EFPL,R10  ENVBLOCK,R11  QUERYSMS,R12  DATA,R13                                    
0D-Loc    Object Code      Addr1    Addr2    Stmt  Source Statement                          HLASM R6.0  2012/02/10 10.07            
0                        0000000A            3158+SSSAVOLR EQU   10                       SMS VOLREF SERVICES            X01-IEFSSSA 
                                                 +                                        SUBFUNCTION REQUEST CODE                   
                         0000000B            3159+SSSAPLCO EQU   11                       INVOKE SCHEDULING SERVICES PRE X01-IEFSSSA 
                                                 +                                        LOCATE CATALOG ORIENTATION?                
                         0000000C            3160+SSSASCHD EQU   12                       INVOKE SCHEDULING SERVICES     X01-IEFSSSA 
                                                 +                                        EXECUTION SYSTEM SELECT?                   
                         0000000D            3161+SSSAALDS EQU   13                       INVOKE VTOC/DATA SET SERVICES  X01-IEFSSSA 
                                                 +                                        ALLOCATE EXISTING DATA SET                 
                         0000000E            3162+SSSAVDSS EQU   14                       INVOKE VTOC/DATA SET SERVICES  X01-IEFSSSA 
                                                 +                                        CREATE NEW DATA SET                        
                         0000000F            3163+SSSADSDL EQU   15                       INVOKE VTOC/DATA SET SERVICES  X01-IEFSSSA 
                                                 +                                        DELETE AN EXISTING DATA SET                
                         00000010            3164+SSSADSRN EQU   16                       INVOKE VTOC/DATA SET SERVICES  X01-IEFSSSA 
                                                 +                                        RENAME AN EXISTING DATA SET                
                         00000011            3165+SSSADSAV EQU   17                       INVOKE VTOC/DATA SET SERVICES  X01-IEFSSSA 
                                                 +                                        TO ADD A VOLUME TO A DATA SET              
                         00000012            3166+SSSAIDPS EQU   18                       INVOKE DEVICE POOL SELECT      X01-IEFSSSA 
                                                 +                                        FUNCTION?                  @L9A            
                         00000013            3167+SSSATVRU  EQU   19                      Invoke Tape Volume Rec Upd @L7A 01-IEFSSSA 
                         00000014            3168+SSSADSTK  EQU   20                      Invoke DS Stacking SSI     @TMA 01-IEFSSSA 
                         00000015            3169+SSSAUAFF  EQU   21                      Invoke UAFF SSI            @LOA 01-IEFSSSA 
                                             3170+***********************************************************************            
                                             3171+*        IDENTIFICATION OF LEVEL OF MACRO AND SSI FUNCTION CODE       *            
                                             3172+***********************************************************************            
                         00000037            3173+SSOBSSMS EQU   55                       FUNCTION CODE FOR SMS SERVICES  01-IEFSSSA 
                         00000001            3174+SSOBSSVR EQU   1                        VERSION NUMBER IS 1             01-IEFSSSA 
                         E2E2E2C1            3175+SSOBSSID EQU   C'SSSA'                  CONTROL BLOCK ID                01-IEFSSSA 
                                             3176+***********************************************************************            
                                             3177+*        RETURN CODES FROM SMS SERVICES                               *            
                                             3178+***********************************************************************            
                         00000000            3179+SSSACOMP EQU   0                        REQUEST COMPLETED SUCCESSFULLY  01-IEFSSSA 
                         00000004            3180+SSSAWARN EQU   4                        SUBFUNCTION COMPLETED REQUEST  X01-IEFSSSA 
                                                 +                                        BUT DETECTED AN ANOMALY                    
                         00000008            3181+SSSAERR  EQU   8                        SUBFUNCTION WAS UNABLE TO      X01-IEFSSSA 
                                                 +                                        COMPLETE THE REQUEST                       
                         0000000C            3182+SSSABEX  EQU   12                       INVALID SSOB EXTENSION FORMAT   01-IEFSSSA 
                         00000010            3183+SSSASERR EQU   16                       AN INDETERMINATE ERROR         X01-IEFSSSA 
                                                 +                                        OCCURRED WHICH THE SUBFUNCTION X           
                                                 +                                        WAS UNABLE TO RECOVER FROM                 
                         00000014            3184+SSSANWAT EQU   20                       THE CALLER SPECIFIED TO NOT BE X01-IEFSSSA 
                                                 +                                        PUT IN A WAIT (SSSAWAIT) BUT A X           
                                                 +                                        WAIT IS REQUIRED BECAUSE SMS   X           
                                                 +                                        IS RESTARTING                              
                                             3185+***********************************************************************            
                                             3186+*        REASON CODES FROM SMS SERVICES REASON CODES COMMON TO SMS    *            
                                             3187+***********************************************************************            
                         00000000            3188+SSSACROK EQU   0                        FUNCTION PERFORMED SUCCESS      01-IEFSSSA 
                         00000004            3189+SSSAIID  EQU   4                        INVALID SSSAID FIELD            01-IEFSSSA 
                         00000008            3190+SSSAIVER EQU   8                        INVALID SSSAVER FIELD           01-IEFSSSA 
                         0000000C            3191+SSSAISFN EQU   12                       UNKNOWN SMS SUBFUNCTION        X01-IEFSSSA 
                                                 +                                        REQUESTED                                  
                         00000010            3192+SSSAIFUN EQU   16                       SMS DOES NOT SUPPORT THIS SSI  X01-IEFSSSA 
                                                 +                                        FUNCTION CODE                              
                         00000014            3193+SSSAUNAU EQU   20                       CALL NOT AUTHORIZED TO PERFORM X01-IEFSSSA 
                                                 +                                        REQUESTED SMS FUNCTION                     
1QUERYSMS REXX FUNCTION - QUERY SMS                                                                             Page   69            
   Active Usings: ARGTABLE_ENTRY,R8  EVALBLOCK,R9  EFPL,R10  ENVBLOCK,R11  QUERYSMS,R12  DATA,R13                                    
0D-Loc    Object Code      Addr1    Addr2    Stmt  Source Statement                          HLASM R6.0  2012/02/10 10.07            
0                        0000012C            3194+SSSACMAB EQU   300                      SMS ABEND                       01-IEFSSSA 
                         0000012D            3195+SSSACMNE EQU   301                      DATA SET NOT ELIGIBLE FOR      X01-IEFSSSA 
                                                 +                                        ALLOCATION ON SMS VOLUME                   
                         0000012E            3196+SSSACMIS EQU   302                      INCOMPATIBLE SC AND VOLUME      01-IEFSSSA 
                         0000012F            3197+SSSACMMN EQU   303                      MGMTCLAS MAY NOT BE SPECIFIED  X01-IEFSSSA 
                                                 +                                        FOR NON SMS DATA SETS                      
                         00000130            3198+SSSACMSG EQU   304                      USE OF REFERENCE STORAGE GROUP X01-IEFSSSA 
                                                 +                                        NOT ALLOWED BY ACS RTN.    @TMA            
                         00000131            3199+SSSACMSC EQU   305                      STORAGE CLASS ASSIGNED TO DATA X01-IEFSSSA 
                                                 +                                        SET WHICH REFERENCED A NON-SMS X           
                                                 +                                        DATA SET.                  @TMA            
                         00000132            3200+SSSACMES EQU   306                      ERROR DURING SMS PROCESSING?   X01-IEFSSSA 
                                                 +                                        THE ERROR WAS LOGGED? I?E?     X           
                                                 +                                        SPAF OR SJF ERROR?                         
                         00000133            3201+SSSACMEX EQU   307                      ERROR IN INSTALLATION EXIT      01-IEFSSSA 
                         00000134            3202+SSSANATH EQU   308                      NOT AUTHORIZED TO SMS CONST     01-IEFSSSA 
                         00000135            3203+SSSASCPE EQU   309                      SMS DATA SET NOT ALLOWED IN    X01-IEFSSSA 
                                                 +                                        THE SCOPE OF A JOBCAT/STEPCAT              
                         00000136            3204+SSSANELB EQU   310                      MGMTCLAS/STORCLAS CANNOT BE    X01-IEFSSSA 
                                                 +                                        SPECIFIED FOR DATA SET THAT IS X           
                                                 +                                        NOT ELIGIBLE TO BE MANAGED                 
                         00000139            3205+SSSADTNS EQU   313                      DSNTYPE CANNOT BE SPECIFIED    X01-IEFSSSA 
                                                 +                                        FOR DATA SET THAT IS NOT       X           
                                                 +                                        MANAGED                                    
                         0000013A            3206+SSSADCNS EQU   314                      DSNTYPE SPECIFIED IS NOT       X01-IEFSSSA 
                                                 +                                        SUPPORTED FOR THE SPECIFIED    X           
                                                 +                                        DATA CLASS                                 
                         0000013B            3207+SSSADINL EQU   315                      INVALID LABEL SPECIFIED FOR    X01-IEFSSSA 
                                                 +                                        NEW MOUNTABLE ALLOCATION  @L15A            
                         0000013D            3208+SSSADPTH EQU   317                      DSNTYPE OF PIPE MAY ONLY       X01-IEFSSSA 
                                                 +                                        SPECIFIED WITH PATH       @L15A            
                         0000013E            3209+SSSACMTY EQU   318                      NO STORAGE GROUPS OF SAME TYPE X01-IEFSSSA 
                                                 +                                        AS REFERENCED DATA SET ASSIGNEDX           
                                                 +                                        TO REFERENCING DATA SET.   @TMA            
                         00000140            3210+SSSADOMV EQU   320                      OPEN/MVS NOT INSTALLED    @LAA  01-IEFSSSA 
                         00000141            3211+SSSAINVD EQU   321                      Invalid VSAM dataset name @PNA  01-IEFSSSA 
                         0000018F            3212+SSSACRR  EQU   399                      UNABLE TO ADD RECOVERY RTNE?    01-IEFSSSA 
                         00000190            3213+SSSANAS  EQU   400                      UNABLE TO OBTAIN ASCB PTR       01-IEFSSSA 
                                             3214+***********************************************************************            
                                             3215+*        REASON CODES FOR ACS SERVICES                                *            
                                             3216+***********************************************************************            
                         000003E9            3217+SSSAACSX EQU   1001                     ALLOCATION REQUEST FAILED BY   X01-IEFSSSA 
                                                 +                                        ACS INSTALLATION EXIT OR ACS   X           
                                                 +                                        ROUTINE                                    
                         000003F3            3218+SSSAACSN EQU   1011                     NON EXISTENT CONSTRUCT         X01-IEFSSSA 
                                                 +                                        RETURNED                                   
                         000003F4            3219+SSSAACSV EQU   1012                     SG ROUTINE ASSIGNED A NON      X01-IEFSSSA 
                                                 +                                        TEMPORARY DATA SET TO A        X           
                                                 +                                        STORAGE GROUP WHICH IS NOT OF  X           
                                                 +                                        TYPE POOL                                  
                         000003F5            3220+SSSAACSG EQU   1013                     NO STORAGE GROUP ASSIGNED BY   X01-IEFSSSA 
                                                 +                                        SG ROUTINE                                 
                         000003F6            3221+SSSAACSE EQU   1014                     EXPLICITLY SPECIFIED CONSTRUCT X01-IEFSSSA 
                                                 +                                        DOES NOT EXIST                             
                         000003F7            3222+SSSAACSI EQU   1015                     RACINIT FAILED                  01-IEFSSSA 
1QUERYSMS REXX FUNCTION - QUERY SMS                                                                             Page   70            
   Active Usings: ARGTABLE_ENTRY,R8  EVALBLOCK,R9  EFPL,R10  ENVBLOCK,R11  QUERYSMS,R12  DATA,R13                                    
0D-Loc    Object Code      Addr1    Addr2    Stmt  Source Statement                          HLASM R6.0  2012/02/10 10.07            
0                        000003F8            3223+SSSAACSF EQU   1016                     ERROR DETECTED BY ACS EXECUTOR  01-IEFSSSA 
                         000003F9            3224+SSSAACSD EQU   1017                     INVALID EXPIRATION DATE         01-IEFSSSA 
                         000003FA            3225+SSSAACSR EQU   1018                     INVALID RETENTION PERIOD        01-IEFSSSA 
                         000003FB            3226+SSSAACST EQU   1019                     TIME MACRO FAILED               01-IEFSSSA 
                         000003FC            3227+SSSAACSM EQU   1020                     AUTHORIZATION CHECK FOR        X01-IEFSSSA 
                                                 +                                        MANAGEMENT CLASS FAILED                    
                         000003FD            3228+SSSAACSS EQU   1021                     AUTHORIZATION CHECK FOR        X01-IEFSSSA 
                                                 +                                        STORAGE CLASS FAILED                       
                         000003FE            3229+SSSAACSB EQU   1022                     AUTHORIZATION CHECK FOR BOTH   X01-IEFSSSA 
                                                 +                                        MGMT CLASS AND STORAGE CLASS   X           
                                                 +                                        FAILED                                     
                         000003FF            3230+SSSAACSC EQU   1023                     NON ZERO RETURN CODE FROM      X01-IEFSSSA 
                                                 +                                        CONSTRUCT ACCESS SERVICES                  
                         00000400            3231+SSSAACNO EQU   1024                     SG ROUTINE ASSIGNED AN OBJECT  X01-IEFSSSA 
                                                 +                                        TO A STORAGE GROUP WHICH IS    X           
                                                 +                                        NOT OF TYPE OBJECT OR OBJECT   X           
                                                 +                                        BACKUP                                     
                         00000401            3232+SSSAACSK EQU   1025                     RACHECK FAILED - SEE       @05AX01-IEFSSSA 
                                                 +                                        CONSTRUCT ACCESS SERVICES  @05A            
                         00000402            3233+SSSAACSY EQU   1026                     RACDEF FAILED -  SEE       @05AX01-IEFSSSA 
                                                 +                                        CONSTRUCT ACCESS SERVICES  @05A            
                         00000403            3234+SSSAAOVL EQU   1027                     &SIZE OR &MAXSIZE OVERFLOW @0BA 01-IEFSSSA 
                         00000404            3235+SSSAACPT EQU   1028                     BOTH POOL AND TAPE STORAGE @L9AX01-IEFSSSA 
                                                 +                                        GROUPS DERIVED, ONLY POOL  @L9AX           
                                                 +                                        TYPE ASSIGNED.             @L9A            
                                             3236+***********************************************************************            
                                             3237+*        REASON CODES FOR CATALOG SERVICES                            *            
                                             3238+***********************************************************************            
                         00000FA0            3239+SSSACTNX EQU   4000                     LOCATE NOT PERFORMED VOLUME    X01-IEFSSSA 
                                                 +                                        NOT SMS MANAGED                            
                         00000FA1            3240+SSSACTER EQU   4001                     CATALOG LOCATE PROCESSING ERR   01-IEFSSSA 
                         00000FA2            3241+SSSACLCX EQU   4002                     LOCATE FAILED FOR DATA SET     X01-IEFSSSA 
                                                 +                                        REFERENCED IN SCOPE OF JOBCAT  X           
                                                 +                                        OR STEPCAT                                 
                         00000FA3            3242+SSSACTLS EQU   4003                     NON SMS MANAGED DATA SET       X01-IEFSSSA 
                                                 +                                        RESIDES ON SMS MANAGED VOLUMES             
                         00000FA4            3243+SSSACTLN EQU   4004                     NON SMS MANAGED DATA SET FOUND X01-IEFSSSA 
                                                 +                                        BUT AN SMS MANAGED VOLUME      X           
                                                 +                                        SERIAL WAS SPECIFIED?                      
                         00000FA6            3244+SSSACTTL EQU   4006                     VOLUME SERIALS SPECIFIED ARE   X01-IEFSSSA 
                                                 +                                        NOT ALL IN SAME TAPE LIB   @L8A            
                         00000FA7            3245+SSSACTTD EQU   4007                     VOLUME SERIALS SPECIFIED ARE   X01-IEFSSSA 
                                                 +                                        BOTH TAPE AND DASD         @L8A            
                         00000FD2            3246+SSSACTLM EQU   4050                     BOTH SPAF AND SJF TOKENS WERE  X01-IEFSSSA 
                                                 +                                        SPECIFIED (MUTUALLY EXCLUSIVE)             
                         00000FD3            3247+SSSACTSX EQU   4051                     LOCATE NOT PERFORMED? SPECIAL, X01-IEFSSSA 
                                                 +                                        UNCATALOGED SYSTEM DATA SET                
                         00000FD4            3248+SSSACSJF EQU   4052                     SJF PROCESSING ERROR            01-IEFSSSA 
                         00000FD5            3249+SSSACSPF EQU   4053                     JES3 SPOOL ACCESS              X01-IEFSSSA 
                                                 +                                        FACILITY(SPAF) PROCESSING      X           
                                                 +                                        ERROR                                      
                         00000FD6            3250+SSSACTNF EQU   4054                     LOCATE FAILURE? DATA SET NOT   X01-IEFSSSA 
                                                 +                                        FOUND                                      
                         00000FD7            3251+SSSACTNV EQU   4055                     SMS MANAGED DATA SET RESIDES   X01-IEFSSSA 
                                                 +                                        ON NON SMS MANAGED VOLUME(S)               
1QUERYSMS REXX FUNCTION - QUERY SMS                                                                             Page   71            
   Active Usings: ARGTABLE_ENTRY,R8  EVALBLOCK,R9  EFPL,R10  ENVBLOCK,R11  QUERYSMS,R12  DATA,R13                                    
0D-Loc    Object Code      Addr1    Addr2    Stmt  Source Statement                          HLASM R6.0  2012/02/10 10.07            
0                        00000FD8            3252+SSSACTCV EQU   4056                     ERROR FROM LCS CBRXVOL          01-IEFSSSA 
                         00001004            3253+SSSACTDA EQU   4100                     LABEL parms says input only    X01-IEFSSSA 
                                                 +                                        and DISP=MOD specified     @0UA            
                         00001005            3254+SSSACTDB EQU   4101                     LCS error occurred obtaining   X01-IEFSSSA 
                                                 +                                        device pool names          @0UA            
                         0000100B            3255+SSSACTDC EQU   4107                     There is a combination of DASD X01-IEFSSSA 
                                                 +                                        and library tape volumes   @0UA            
                         0000100C            3256+SSSACTDD EQU   4108                     There is a combination of DASD X01-IEFSSSA 
                                                 +                                        and non-DASD volume        @0UA            
                         0000100D            3257+SSSACTDE EQU   4109                     There is a combination of lib  X01-IEFSSSA 
                                                 +                                        and non-lib tape volumes   @0UA            
                         0000100E            3258+SSSACTDF EQU   4110                     There is a combination of SMS  X01-IEFSSSA 
                                                 +                                        and non-SMS volumes        @0UA            
                         00001324            3259+SSSACTO1 EQU   4900                     BPXXSYSC(STA) failed     @LAA   01-IEFSSSA 
                         00001325            3260+SSSACTO2 EQU   4901                     Null pathname provided   @LAA   01-IEFSSSA 
                                             3261+***********************************************************************            
                                             3262+*        REASON CODES FROM CONSTRUCT ACCESS SERVICES                  *            
                                             3263+***********************************************************************            
                         00001388            3264+SSSA1IPL EQU   5000                     INVALID PARAMETER LIST          01-IEFSSSA 
                         00001389            3265+SSSA1ISP EQU   5001                     INSUFFICIENT SPACE PASSED       01-IEFSSSA 
                         0000138A            3266+SSSA1CNF EQU   5002                     CONSTRUCT NOT FOUND             01-IEFSSSA 
                         0000138B            3267+SSSA1NVL EQU   5003                     NO VOLUMES ASSOCIATED WITH     X01-IEFSSSA 
                                                 +                                        STORAGE GROUP                              
                         0000138C            3268+SSSA1VNV EQU   5004                     VOLUME VERIFICATION ALL VOLS   X01-IEFSSSA 
                                                 +                                        DEFINDED TO SMS BUT DO NOT     X           
                                                 +                                        BELONG TO SAME STORAGE GROUP               
                         0000138D            3269+SSSA1IUD EQU   5005                     INVALID USER OF PROVIDED DATA  X01-IEFSSSA 
                                                 +                                        AREA                                       
                         0000138E            3270+SSSA1VLB EQU   5006                     VOLUME LIST BAD OR             X01-IEFSSSA 
                                                 +                                        INCONSISTENT IN ACTIVE         X           
                                                 +                                        CONFIGURATION                              
                         0000138F            3271+SSSA1NSG EQU   5007                     VOL DEFINITION IN ACTIVE       X01-IEFSSSA 
                                                 +                                        CONFIG ASSOCIATED WITH NON     X           
                                                 +                                        EXISTENT STORAGE GROUP?                    
                         00001390            3272+SSSA1CRQ EQU   5008                     COUNT REQUIRED BUT NOT PASSED   01-IEFSSSA 
                         00001391            3273+SSSA1UAS EQU   5009                     UNABLE TO ACQUIRE SUFFICIENT   X01-IEFSSSA 
                                                 +                                        SPACE IN USER ADDRESS SPACE                
                         00001392            3274+SSSA1ANS EQU   5010                     VOLUME VERIFICATION ALL VOLS   X01-IEFSSSA 
                                                 +                                        IN LIST NOT DEFINED TO SMS                 
                         00001393            3275+SSSA1MXV EQU   5011                     VOLUME VERIFICATION LIST       X01-IEFSSSA 
                                                 +                                        CONTAINS DEFINED AND UNDEFINED X           
                                                 +                                        VOLUMES                                    
                         00001394            3276+SSSA1ISF EQU   5012                     EXTENDED INTERFACE INVALID     X01-IEFSSSA 
                                                 +                                        SUBFUNCTION SPECIFIED                      
                         00001395            3277+SSSA1INE EQU   5013                     CALLER REQUESTED SPECIFIC      X01-IEFSSSA 
                                                 +                                        RELEASE AND ITEM REQUESTED DOESX           
                                                 +                                        NOT EXIST IN RELEASE       @PDA            
                         00001396            3278+SSSA1ILV EQU   5014                     CALLER REQUESTED SPECIFIC      X01-IEFSSSA 
                                                 +                                        RELEASE AND LENGTH IS INVALID  X           
                                                 +                                        (NOT HDR+SSSA1CLT ENTRY)   @PDA            
                         00001397            3279+SSSA1IRL EQU   5015                     SSSA1IRL IS INVALID - NOT      X01-IEFSSSA 
                                                 +                                        VALID IF: SSSA1RLV EXCEEDS MAX,X           
                                                 +                                        SSSA1CNT > 1, OR REQUEST TYPE  X           
                                                 +                                        IS NOT RETURN SINGLE ITEM  @PDA            
                                             3280+***********************************************************************            
1QUERYSMS REXX FUNCTION - QUERY SMS                                                                             Page   72            
   Active Usings: ARGTABLE_ENTRY,R8  EVALBLOCK,R9  EFPL,R10  ENVBLOCK,R11  QUERYSMS,R12  DATA,R13                                    
0D-Loc    Object Code      Addr1    Addr2    Stmt  Source Statement                          HLASM R6.0  2012/02/10 10.07            
0                                            3281+*        REASON CODES FOR DISPOSITION PROCESSING 7000-7999            *            
                                             3282+***********************************************************************            
                         00001B58            3283+SSSA8IPL EQU   7000                     INVALID PARAMETER LIST          01-IEFSSSA 
                         00001B59            3284+SSSA8CDF EQU   7001                     FAILURE IN CAT DEF ROLLIN GDG   01-IEFSSSA 
                         00001B5A            3285+SSSA8DDX EQU   7002                     UNABLE TO FIND DDNAME PASSED    01-IEFSSSA 
                         00001B5C            3286+SSSA8NVL EQU   7004                     No volumes provided to catalog X01-IEFSSSA 
                                                 +                                        data set on mountable      @L8A            
                         00001EDC            3287+SSSA8OM1 EQU   7900                     Null pathname passed       @LAA 01-IEFSSSA 
                         00001EDD            3288+SSSA8OM2 EQU   7901                     BPXXSYSC(UNL) failed       @LAA 01-IEFSSSA 
                         00001EDE            3289+SSSA8OM3 EQU   7902                     Invalid disposition for an     X01-IEFSSSA 
                                                 +                                        OPEN/MVS file              @LAA            
                         00001F3E            3290+SSSA8EVR EQU   7998                     Enhanced volume list required  X01-IEFSSSA 
                                                 +                                        for ATL with DISP=CATLG    @L8A            
                         00001F3F            3291+SSSA8MDN EQU   7999                     Mountable device not supported X01-IEFSSSA 
                                                 +                                        unless DISP=CATLG    ?     @L8A            
                                             3292+***********************************************************************            
                                             3293+*        REASON CODES FOR INTERPRETER/DYNAMIC ALLOCATION EXIT (IDAX)  *            
                                             3294+***********************************************************************            
                         00002AF8            3295+SSSAILGC EQU   11000                    INTERNAL IDAX LOGIC ERROR       01-IEFSSSA 
                         00002AF9            3296+SSSAISJT EQU   11001                    INVALID INPUT SITUATION, SJF   X01-IEFSSSA 
                                                 +                                        TOKEN IS ALWAYS REQUIRED                   
                         00002AFF            3297+SSSAIDER EQU   11007                    Device Pool SSI Error     @L5A  01-IEFSSSA 
                         00002B00            3298+SSSAINAR EQU   11008                    Not a Retrieve Request    @L9A  01-IEFSSSA 
                         00002B01            3299+SSSAIJSR EQU   11009                    Job or Step Request       @L9A  01-IEFSSSA 
                         00002B02            3300+SSSAIFR0  EQU  11010                    Failing SJF RSN for RC 0 @L11A  01-IEFSSSA 
                         00002B03            3301+SSSAIFR4  EQU  11011                    Failing SJF RSN for RC 4 @L11A  01-IEFSSSA 
                         00002B04            3302+SSSAINFR  EQU  11012                    Not a Find Request        @L9A  01-IEFSSSA 
                         00002B05            3303+SSSAIRRR  EQU  11013                    REFDD Related Request     @L9A  01-IEFSSSA 
                         00002B06            3304+SSSAIFRC  EQU  11014                    Failing SJF Return Code  @L11A  01-IEFSSSA 
                         00002B07            3305+SSSAINRS  EQU  11015                    Not allowable RSN to IDAX @L9A  01-IEFSSSA 
                         00002B08            3306+SSSAICBR  EQU  11016                    CBRXVOL failed            @P4A  01-IEFSSSA 
                         00002B5D            3307+SSSADTRC  EQU  11101                    DSNTYPE CANNOT BE SPECIFIED    X01-IEFSSSA 
                                                 +                                        WITH RECORG                                
                                             3308+***********************************************************************            
                                             3309+*        REASON CODES FOR OPERATIONAL SERVICES                        *            
                                             3310+***********************************************************************            
                         000032C8            3311+SSSA2NAU EQU   13000                    NOT AUTHORIZED TO ACTIVATE A   X01-IEFSSSA 
                                                 +                                        CONFIGURATION RACF                         
                         000032C9            3312+SSSA2ERE EQU   13001                    TOO MANY REQUEST ELEMENTS ON   X01-IEFSSSA 
                                                 +                                        QUEUE                                      
                         000032CA            3313+SSSA2CNF EQU   13002                    REQUESTED CONFIGURATION NO     X01-IEFSSSA 
                                                 +                                        LONGER EXISTS                              
                         000032CB            3314+SSSA2IRE EQU   13003                    INVALID REQUEST ELEMENT FOUND  X01-IEFSSSA 
                                                 +                                        ON QUEUE                                   
                         000032CC            3315+SSSA2ANF EQU   13004                    ACTIVE CONFIGURATION NOT FOUND X01-IEFSSSA 
                                                 +                                        ON CONFIGURATION CHAIN                     
                         000032CD            3316+SSSA2ECF EQU   13005                    EXCESSIVE NUMBER OF CONFIGS ON X01-IEFSSSA 
                                                 +                                        CONFIGURATION CHAIN                        
                         000032CE            3317+SSSA2ICN EQU   13006                    INVALID CONFIGURATION           01-IEFSSSA 
                         000032CF            3318+SSSA2IVP EQU   13007                    INVALID PARAMETER LIST          01-IEFSSSA 
                         000032D0            3319+SSSA2IOR EQU   13008                    INVALID CONFIGURATION ROOT      01-IEFSSSA 
                         000032D1            3320+SSSA2NAC EQU   13009                    NO ACTIVE CONFIGURATION         01-IEFSSSA 
                         000032D2            3321+SSSA2USF EQU   13010                    UNEXPECTED RETURNED CODE FROM  X01-IEFSSSA 
                                                 +                                        SAF                                        
1QUERYSMS REXX FUNCTION - QUERY SMS                                                                             Page   73            
   Active Usings: ARGTABLE_ENTRY,R8  EVALBLOCK,R9  EFPL,R10  ENVBLOCK,R11  QUERYSMS,R12  DATA,R13                                    
0D-Loc    Object Code      Addr1    Addr2    Stmt  Source Statement                          HLASM R6.0  2012/02/10 10.07            
0                        000032D3            3322+SSSA2NAO EQU   13011                    NOT AUTHORIZED TO ACTIVATE A   X01-IEFSSSA 
                                                 +                                        CONFIGURATION OPERATOR                     
                         000032D4            3323+SSSA2EAF EQU   13012                    EVENT AUDIT FAILED              01-IEFSSSA 
                         000032D5            3324+SSSA2BST EQU   13013                    STATUS FOR UPDATE LIBRARY OR   X01-IEFSSSA 
                                                 +                                        DRIVE MUST BE ONLINE OR        X           
                                                 +                                        OFFLINE O1A                                
                         000032D6            3325+SSSA2NUP EQU   13014                    LIBRARY/DRIVE NOT FOUND,       X01-IEFSSSA 
                                                 +                                        UPDATE FAILED O1A                          
                         000032D7            3326+SSSA2NDF EQU   13015                    EXTRACT LIBR/DR FAILED,        X01-IEFSSSA 
                                                 +                                        UNEXPECTED RC/RSN FROM MODULE  X           
                                                 +                                        IGDOPSD1                                   
                         000032D8            3327+SSSA2BS1 EQU   13016                    LIBRARY/DRI UPDATED FAILED     X01-IEFSSSA 
                                                 +                                        UNEXPECTED RC/RSN FROM MODULE  X           
                                                 +                                        IGDOPS10                                   
                         000032D9            3328+SSSA2NDR EQU   13017                    LIBRARY DEINTION EXISTS, NO    X01-IEFSSSA 
                                                 +                                        DRIVE DEFINITIONS EXISTS,      X           
                                                 +                                        MODULE IGDOPST1                            
                         000032DA            3329+SSSA2SGM EQU   13018                    STORAGE GROUP MISSING @22A     X01-IEFSSSA 
                                                 +                                        CDS MUST BE CORRUPTED @22A     X           
                                                 +                                        MODULE IGDOPSC1       @22A                 
                                             3330+***********************************************************************            
                                             3331+*        REASON CODES FOR SCHEDULING SERVICES 14000 THRU 14999        *            
                                             3332+*        ('36B0'X THRU '3A97'X)?                                      *            
                                             3333+***********************************************************************            
                         000036B0            3334+SSSASCHC EQU   14000                    SMS RESOURCE CONNECTIVITY      X01-IEFSSSA 
                                                 +                                        CONFLICT (FAIL JOB)            X           
                                                 +                                        (14000='36B0'X)?                           
                         000036B1            3335+SSSASCHF EQU   14001                    SUBFUNCTION OTHER THAN         X01-IEFSSSA 
                                                 +                                        SSSAPLCO OR SSSASCHD WAS       X           
                                                 +                                        SPECIFIED? (14001='36B1'X)?                
                         000036B2            3336+SSSASCHI EQU   14002                    SAVED SCHEDULING INFO IS NOT   X01-IEFSSSA 
                                                 +                                        CONSISTENT WITH CURRENT SMS    X           
                                                 +                                        CONFIGURATION (14002='36B2'X)?             
                         000036B3            3337+SSSASCHL EQU   14003                    NEW LIST OF SYSTEM NAMES HAS   X01-IEFSSSA 
                                                 +                                        BEEN DETERMINED                X           
                                                 +                                        (14003='36B3'X)?                           
                         000036B4            3338+SSSASCHN EQU   14004                    JOB HAS NO SMS RESOURCE        X01-IEFSSSA 
                                                 +                                        REQUIREMENTS (14004='36B4'X)?              
                         000036B5            3339+SSSASCHR EQU   14005                    RETURNED SYSTEM LIST           X01-IEFSSSA 
                                                 +                                        RESTRICTED DUE TO UNAVAILABLE  X           
                                                 +                                        RESOURCES (14005='36B5'X)?                 
                         000036B6            3340+SSSASCHS EQU   14006                    JES3 SPOOL ACCESS              X01-IEFSSSA 
                                                 +                                        FACILITY(SPAF) READ ERROR      X           
                                                 +                                        (14006='36B6'X)?                           
                         000036B7            3341+SSSASCHT EQU   14007                    SPAF TOKEN WAS NOT SPECIFIED   X01-IEFSSSA 
                                                 +                                        (14007='36B7'X)?                           
                         000036B8            3342+SSSASCHU EQU   14008                    SMS RESOURCES ARE TEMPORARILY  X01-IEFSSSA 
                                                 +                                        UNAVAILABLE (RESCHEDULE JOB)   X           
                                                 +                                        (14008='36B8'X)?                           
                         000036B9            3343+SSSASCHB EQU   14009                    SPAF SUBSYSTEN NAME WAS NOT    X01-IEFSSSA 
                                                 +                                        SPECIFIED? (14009='36B9'X)?                
                         000036BA            3344+SSSASCHV EQU   14010                    VOLUME NOT IN ACTIVE CONFIG.   X01-IEFSSSA 
                                                 +                                        " (14010='36BA'X)"         @0ZA            
                         000036BC            3345+SSSASCHO EQU   14012                    AN SMS SERVICE OTHER THAN      X01-IEFSSSA 
1QUERYSMS REXX FUNCTION - QUERY SMS                                                                             Page   74            
   Active Usings: ARGTABLE_ENTRY,R8  EVALBLOCK,R9  EFPL,R10  ENVBLOCK,R11  QUERYSMS,R12  DATA,R13                                    
0D-Loc    Object Code      Addr1    Addr2    Stmt  Source Statement                          HLASM R6.0  2012/02/10 10.07            
0                                                +                                        SCHEDULING SERVICES HAS        X           
                                                 +                                        FAILED? THE FAILING SERVICE    X           
                                                 +                                        RETURN CODE IS IN SSSABSAC OR  X           
                                                 +                                        SSSACSAC? THE FAILING SERVICE  X           
                                                 +                                        REASON CODE IS IS SSSABSAR OR  X           
                                                 +                                        SSSACSAR? (14012='36BC'X)?                 
                                             3346+***********************************************************************            
                                             3347+*        REASON CODES FOR VOLREF SERVICES 16000 THRU 16999 ('3E80'X   *            
                                             3348+*        THRU '4267'X)?                                               *            
                                             3349+***********************************************************************            
                         00003E80            3350+SSSAVRAA EQU   16000                    POINTER TO CPL OF THE          X01-IEFSSSA 
                                                 +                                        REFERENCING DATA SET IS ZERO?  X           
                                                 +                                        (16000 = '3E80'X)?                         
                         00003E81            3351+SSSAVRAB EQU   16001                    POINTER TO THE CPL OF THE      X01-IEFSSSA 
                                                 +                                        REFERENCED DATA SET IS ZERO?   X           
                                                 +                                        (16001 = '3E81'X)?                         
                         00003E82            3352+SSSAVRAC EQU   16002                    INVALID VALUE IN REFERENCING   X01-IEFSSSA 
                                                 +                                        DATA SET DISPOSITION FIELD?    X           
                                                 +                                        (16002 = '3E82'X)?                         
                         00003E83            3353+SSSAVRAD EQU   16003                    INVALID VALUE IN REFERENCED    X01-IEFSSSA 
                                                 +                                        DATA SET DISPOSITION FIELD?    X           
                                                 +                                        (16003 = '3E83'X)?                         
                         00003E84            3354+SSSAVRAE EQU   16004                    UNABLE TO BUILD THE RECOVERY   X01-IEFSSSA 
                                                 +                                        ENVIRONMENT FOR VOLREF? (16004 X           
                                                 +                                        = '3E84'X)?                                
                         00003E85            3355+SSSAVRAF EQU   16005                    VOLREF INTERNAL ERROR? (16005  X01-IEFSSSA 
                                                 +                                        = '3E85'X)?                                
                         00003E86            3356+SSSAVRAG EQU   16006                    FAILURE AT THE SCHEDULING      X01-IEFSSSA 
                                                 +                                        INFORMATION PROCESSING FOR     X           
                                                 +                                        VOLREF? (16006 = '3E86'X)?                 
                         00003E87            3357+SSSAVRAH EQU   16007                    SUBFUNCTION CODE NOT VOLREF    X01-IEFSSSA 
                                                 +                                        FUNCTION CODE? VALID CODE ARE? X           
                                                 +                                        SSSAVOLR, SSSACPSW? (16007 =   X           
                                                 +                                        '3E87'X)?                                  
                         00003E88            3358+SSSAVRAI EQU   16008                    SSSAASJ1 IS ZEROES? (16008 =   X01-IEFSSSA 
                                                 +                                        '3E88'X)?                                  
                         00003E89            3359+SSSAVRAJ EQU   16009                    NEITHER SJF TOKEN NOR CPL PTR  X01-IEFSSSA 
                                                 +                                        IS SPECIFIED FOR REFERENCED    X           
                                                 +                                        DD? (16009 = '3E89'X)?                     
                         00003E8A            3360+SSSAVRAK EQU   16010                    SJF RETRIEVAL REQUEST FAILED?  X01-IEFSSSA 
                                                 +                                        (16010 = '3E8A'X)?                         
                         00003E8B            3361+SSSAVRAL EQU   16011                    SJF UPDATE REQUEST FAILED?     X01-IEFSSSA 
                                                 +                                        (16011 = '3E8B'X)?                         
                         00003E8C            3362+SSSAVRAM EQU   16012                    BOTH SJF & SPAF TOKENS ARE 0?  X01-IEFSSSA 
                                                 +                                        (16012 = '3E8C'X)?                         
                         00003E8D            3363+SSSAVRAN EQU   16013                    VOLREF DID NOT DO ANY          X01-IEFSSSA 
                                                 +                                        PROCESSING FOR THIS            X           
                                                 +                                        INVOCATION? (16013 = '3E8D'X)?             
                         00003E8E            3364+SSSAVRAO EQU   16014                    BOTH SJF & SPAF TOKEN ARE      X01-IEFSSSA 
                                                 +                                        SPECIFIED? (16014 = '3E8E'X)?              
                         00003E8F            3365+SSSAVRAP EQU   16015                    UNEXPECTED RETURN CODE FROM    X01-IEFSSSA 
                                                 +                                        INVOKED ROUTINE? (16015 =      X           
                                                 +                                        '3E8F'X)?                                  
                         00003E90            3366+SSSAVRAQ EQU   16016                    DELETE OF VOLREF ERROR         X01-IEFSSSA 
1QUERYSMS REXX FUNCTION - QUERY SMS                                                                             Page   75            
   Active Usings: ARGTABLE_ENTRY,R8  EVALBLOCK,R9  EFPL,R10  ENVBLOCK,R11  QUERYSMS,R12  DATA,R13                                    
0D-Loc    Object Code      Addr1    Addr2    Stmt  Source Statement                          HLASM R6.0  2012/02/10 10.07            
0                                                +                                        RECOVERY ROUTINE FAILED?       X           
                                                 +                                        (16016 = '3E90'X)?                         
                         00003E91            3367+SSSAVRAR EQU   16017                    NON SMS DATA SET REFERENCED    X01-IEFSSSA 
                                                 +                                        SMS MANAGED DATA SET (VOLREF)? X           
                                                 +                                        (16017 = '3E91'X)?                         
                         00003E92            3368+SSSAVRAS EQU   16018                    SMS CATALOG FAILURE? (16018 =  X01-IEFSSSA 
                                                 +                                        '3E92'X)?                                  
                         00003E93            3369+SSSAVRAT EQU   16019                    CONSTRUCT ACCESS SERV FAILURE? X01-IEFSSSA 
                                                 +                                        (16019 = '3E93'X)?                         
                         00003E94            3370+SSSAVRAU EQU   16020                    VOLREF INTERNAL ERROR? DDFLAG  X01-IEFSSSA 
                                                 +                                        VALUE IS INVALID? VALID VALUE  X           
                                                 +                                        ARE '1' AND '2'? (16020 =      X           
                                                 +                                        '3E94'X)                                   
                         00003E95            3371+SSSAVRAV EQU   16021                    VOLREF ERROR RECOVERY ROUTINE  X01-IEFSSSA 
                                                 +                                        FAILED DUE TO NO VOLREF GLOBAL X           
                                                 +                                        DATA CONTROL BLOCK(IGDVRFGD)?  X           
                                                 +                                        (16021 = '3E95'X)?                         
                         00003E96            3372+SSSAVRAW EQU   16022                    REFERENCED DATA SET NOT        X01-IEFSSSA 
                                                 +                                        CATALOGED (VOLREF SERVICES)?   X           
                                                 +                                        (16022 = '3E96'X)?                         
                         00003E97            3373+SSSAVRAX EQU   16023                    REFERENCING DATA SET NOT       X01-IEFSSSA 
                                                 +                                        CATALOGED (VOLREF SERVICES)?   X           
                                                 +                                        (16023 = '3E97'X)?                         
                         00003E98            3374+SSSAVRAY EQU   16024                    SPAF JOB TOKEN IS 0 (16023 =   X01-IEFSSSA 
                                                 +                                        '3E98'X)?                                  
                         00003E99            3375+SSSAVRAZ EQU   16025                    SPAF SCHEDULING INFO TOKEN =0  X01-IEFSSSA 
                                                 +                                        (16025 = '3E99'X)?                         
                         00003E9A            3376+SSSAVRBA EQU   16026                    CLEANUP =ON, SSSAASRA = 0      X01-IEFSSSA 
                                                 +                                        (16026 = '3E9A'X)?                         
                         00003E9B            3377+SSSAVRBB EQU   16027                    VOLREF INTERNAL ERROR? BOTH    X01-IEFSSSA 
                                                 +                                        SCHEDULE AND ALLOCATE FLAGS    X           
                                                 +                                        ARE SET IN IGDVRF00 (16027 =   X           
                                                 +                                        '3E9B'X)?                                  
                         00003E9C            3378+SSSAVRBC EQU   16028                    VOLREF DID NOT DO ANY PROCESS  X01-IEFSSSA 
                                                 +                                        FOR A NEW NEW REFERENCE (16028 X           
                                                 +                                        = '3E9C'X)?                                
                         00003E9D            3379+SSSAVRBD EQU   16029                    VOLREF INTERNAL ERROR?         X01-IEFSSSA 
                                                 +                                        CLEANUP, SCHEDULE,AND ALLOC    X           
                                                 +                                        FLAGS ARE ALL 0 IN MODULE      X           
                                                 +                                        IGDVRF00 (16029 = '3E9D'X)?                
                         00003E9E            3380+SSSAVRBE EQU   16030                    VOLREF INTERNAL ERROR? INVALID X01-IEFSSSA 
                                                 +                                        SJF FUNCTION CODE? VALID CODES X           
                                                 +                                        ARE 0= CLEANUP, 1= RETRIEVE,   X           
                                                 +                                        2= UPDATE (16030 = '3E9E'X)?               
                         00003E9F            3381+SSSAVRBF EQU   16031                    NO SMS SWBS COPIED TO THE      X01-IEFSSSA 
                                                 +                                        TARGET DD DUE TO SOURCE DD HAS X           
                                                 +                                        NO SMS SWBS? (16031 =          X           
                                                 +                                        '3E9F'X)?                                  
                         00003EA0            3382+SSSAVRBG EQU   16032                    PROCESS DID NOT COMPLETE FOR   X01-IEFSSSA 
                                                 +                                        SCHEDULING INFORAMTIOM DUE TO  X           
                                                 +                                        REFERENCED DATA SET IS NEW OR  X           
                                                 +                                        TEMPORARY? (16032 = '3EA0'X)?              
                         00003EA1            3383+SSSAVRBH EQU   16033                    NEED SJF TOKEN FOR NEW/MOD     X01-IEFSSSA 
                                                 +                                        DATA SET (16033 = '3EA1'X)?                
1QUERYSMS REXX FUNCTION - QUERY SMS                                                                             Page   76            
   Active Usings: ARGTABLE_ENTRY,R8  EVALBLOCK,R9  EFPL,R10  ENVBLOCK,R11  QUERYSMS,R12  DATA,R13                                    
0D-Loc    Object Code      Addr1    Addr2    Stmt  Source Statement                          HLASM R6.0  2012/02/10 10.07            
0                        00003EA2            3384+SSSAVRBI EQU   16034                    MESSAGE SERVICE FAILURE (16034 X01-IEFSSSA 
                                                 +                                        = '3EA2'X)?                                
                         00003EA3            3385+SSSAVRBJ EQU   16035                    SJF ACCESS FUNC FLAG OR ACCESS X01-IEFSSSA 
                                                 +                                        FIELD FLAG INVALID? VALID      X           
                                                 +                                        FUNCTION COMBINATIONS ARE? 1?  X           
                                                 +                                        UPDATE/UPDATE & CLEANUP 2?     X           
                                                 +                                        RETRIEVE/RETRIEVE & CLEANUP 3? X           
                                                 +                                        CLEANUP ONLY 3? CLEANUP ONLY   X           
                                                 +                                        ACCESS FIELD FLAG CAN NOT BE   X           
                                                 +                                        0? (16035 = '3EA3'X)                       
                         00003EA4            3386+SSSAVRBK EQU   16036                    POINTER TO THE GLOBAL DATA     X01-IEFSSSA 
                                                 +                                        BLOCK FROM THE SW PARM LIST IS X           
                                                 +                                        ZERO (16036 = '3EA4'X)                     
                         00003EA5            3387+SSSAVRBL EQU   16037                    POINTER TO SJF LOCAL STORAGE   X01-IEFSSSA 
                                                 +                                        IS ZERO (IN VOLREF GLOBAL DATA X           
                                                 +                                        BLK) (16037 = '3EA5'X)?                    
                         00003EA6            3388+SSSAVRBM EQU   16038                    SJF REQUEST TO "TERMINATE"     X01-IEFSSSA 
                                                 +                                        FAILED??? (16038 = '3EA6'X)?               
                         00003EA7            3389+SSSAVRBN EQU   16039                    VOLREF INTERNAL ERROR?         X01-IEFSSSA 
                                                 +                                        REFERENCED DATA HAS NO         X           
                                                 +                                        STORCLAS & SMS BIT IS OFF      X           
                                                 +                                        (16039 = '3EA7'X)?                         
                         00003EA8            3390+SSSAVRBO EQU   16040                    ERROR? CTGWAVCT =0 FROM        X01-IEFSSSA 
                                                 +                                        IGDCAT00 WHEN THE RETCODE = 0  X           
                                                 +                                        (16040 = '3EA8'X)?                         
                         00003EA9            3391+SSSAVRBP EQU   16041                    VRF INTERNAL ERROR? FUNCTION   X01-IEFSSSA 
                                                 +                                        CODE NOT ACCEPTABLE BY         X           
                                                 +                                        IGDVRFS1? VALID FUNCTION ARE?  X           
                                                 +                                        UPDATE OR RETRIEVE (16041 =    X           
                                                 +                                        '3EA9'X)?                                  
                         00003EAA            3392+SSSAVRBQ EQU   16042                    NO SJF TOKEN SPECIFIED? (16042 X01-IEFSSSA 
                                                 +                                        = '3EAA'X)?                                
                         00003EAB            3393+SSSAVRBR EQU   16043                    UPDATE AND RETRIEVE ARE        X01-IEFSSSA 
                                                 +                                        MUTUALLY EXCLUSIVE (16043 =    X           
                                                 +                                        '3EAB'X)?                                  
                         00003EAC            3394+SSSAVRBS EQU   16044                    SJF UPDATED FAILED DUE TO SJF  X01-IEFSSSA 
                                                 +                                        RETRIEVE FAILED (16044 =       X           
                                                 +                                        '3EAC'X)?                                  
                         00003EAD            3395+SSSAVRBT EQU   16045                    VOLREF INTERNAL ERROR? SJF     X01-IEFSSSA 
                                                 +                                        REQUM >SJF ARRRAY DIM OR < 1?  X           
                                                 +                                        (16045 = '3EAD'X)?                         
                         00003EAE            3396+SSSAVRBU EQU   16046                    ADD SCHEDULING RECORDS FAILED  X01-IEFSSSA 
                                                 +                                        (16046 = '3EAE'X)?                         
                         00003EAF            3397+SSSAVRBV EQU   16047                    SMS INTERNAL ERROR? CONSTRUCT  X01-IEFSSSA 
                                                 +                                        NOT FOUND FOR A SMS VOLUME     X           
                                                 +                                        (16047 = '3EAF'X)?                         
                         00003EB0            3398+SSSAVRBW EQU   16048                    SSSAASJ2 IS ZERO? (16048 =     X01-IEFSSSA 
                                                 +                                        '3EB0'X)?                                  
                         00003EB1            3399+SSSAVRBX EQU   16049                    CALLER IS NOT ALLOCATION OR OR X01-IEFSSSA 
                                                 +                                        JES3 (16049 = '3EB1'X)?                    
                         00003EB2            3400+SSSAVRBY EQU   16050                    CONTROL BLOCK VISUAL ID IS NOT X01-IEFSSSA 
                                                 +                                        'IGDVRMSW'? (16050 = '3EB2'X)?             
                         00003EB3            3401+SSSAVRBZ EQU   16051                    POINTER TO SJACP IS ZERO       X01-IEFSSSA 
                                                 +                                        (16051 = '3EB3'X)?                         
1QUERYSMS REXX FUNCTION - QUERY SMS                                                                             Page   77            
   Active Usings: ARGTABLE_ENTRY,R8  EVALBLOCK,R9  EFPL,R10  ENVBLOCK,R11  QUERYSMS,R12  DATA,R13                                    
0D-Loc    Object Code      Addr1    Addr2    Stmt  Source Statement                          HLASM R6.0  2012/02/10 10.07            
0                        00003EB4            3402+SSSAVRCA EQU   16052                    UNEXPECTED VISUAL ID FOR CNTL  X01-IEFSSSA 
                                                 +                                        BLK IGDVRMGD? VALID VALUE ARE  X           
                                                 +                                        ZEROES OR 'IGDVRMGD'? (16052 = X           
                                                 +                                        '3EB4'X)?                                  
                         00003EB5            3403+SSSAVRCB EQU   16053                    ACS DOES NOT ALLOW THE STORAGE X01-IEFSSSA 
                                                 +                                        GROUP DERIVED FROM REFERENCED  X           
                                                 +                                        DATAT SET (16053 = '3EB5'X)?               
                         00003EB6            3404+SSSAVRCC EQU   16054                    ACS ROUTINE FAILED (16054 =    X01-IEFSSSA 
                                                 +                                        '3EB6'X)?                                  
                         00003EB7            3405+SSSAVRCD EQU   16055                    IGDIDMAR FAILED (16055 =       X01-IEFSSSA 
                                                 +                                        '3EB7'X)?                                  
                         00003EB8            3406+SSSAVRCE EQU   16056                    SSSA5SGN IS 0 FORM ACS RTN     X01-IEFSSSA 
                                                 +                                        (16056 = '3EB8'X)?                         
                         00003EB9            3407+SSSAVRCF EQU   16057                    VOLREF TO GDG NOT ALLOWED      X01-IEFSSSA 
                                                 +                                        (16057 = '3EB9'X).         @09A            
                         00003EE4            3408+SSSAVRDA EQU   16100                    SSSAAVOL and SSSAAMVL are      X01-IEFSSSA 
                                                 +                                        mutually exclusive - (16100 =  X           
                                                 +                                        '3EE4'X).                                  
                         00003EE5            3409+SSSAVRDB EQU   16101                    Internal error from IDAX -     X01-IEFSSSA 
                                                 +                                        (16101 = '3EE5'X).                         
                         00003EE6            3410+SSSAVRDC EQU   16102                    Error returned by LCS          X01-IEFSSSA 
                                                 +                                        (16102 = '3EE6'X).                         
                         00003EE7            3411+SSSAVRDD EQU   16103                    LCS: volume record not found   X01-IEFSSSA 
                                                 +                                        for ATL data set               X           
                                                 +                                        (16103 = '3EE7'X).                         
                         00003EE8            3412+SSSAVRDE EQU   16104                    No SJF token provided for      X01-IEFSSSA 
                                                 +                                        referencing data set           X           
                                                 +                                        (16104 = '3EE8'X).         @PEA            
                         00004267            3413+SSSAVRZZ EQU   16999                    VOLREF FAILED DUE TO           X01-IEFSSSA 
                                                 +                                        UNDETERMINED ERROR (16999 =    X           
                                                 +                                        '4267'X)?                                  
                                             3414+***********************************************************************            
                                             3415+*        REASON CODES FOR VTOC/DATA SET SERVICES                      *            
                                             3416+***********************************************************************            
                         00004269            3417+SSSAVTAB EQU   17001                    DUPLICATE DATA SET NAME         01-IEFSSSA 
                         0000426A            3418+SSSAVTAC EQU   17002                    NO ROOM IN VTOC OR VTOC INDEX   01-IEFSSSA 
                         0000426B            3419+SSSAVTAD EQU   17003                    PERMANENT I/O ERROR             01-IEFSSSA 
                         0000426C            3420+SSSAVTAE EQU   17004                    No room for PDS directory @MAC  01-IEFSSSA 
                         0000426D            3421+SSSAVTAF EQU   17005                    RESERVED                        01-IEFSSSA 
                         0000426E            3422+SSSAVTAG EQU   17006                    AVERAGE RECORD LENGTH EXCEEDS  X01-IEFSSSA 
                                                 +                                        65,535 BYTES                               
                         00004274            3423+SSSAVTAH EQU   17012                    SDA USER NOT AUTH TO CREATE DS  01-IEFSSSA 
                         00004276            3424+SSSAVTAI EQU   17014                    SSP? SPACE REQUEST = 0          01-IEFSSSA 
                         00004277            3425+SSSAVTAJ EQU   17015                    SSP? INVALID FUNCTION CODE      01-IEFSSSA 
                         00004278            3426+SSSAVTAK EQU   17016                    SSP? INVALID REQUEST TYPE       01-IEFSSSA 
                         00004279            3427+SSSAVTAL EQU   17017                    SSP? TRKCALC FAILURE            01-IEFSSSA 
                         0000427A            3428+SSSAVTAM EQU   17018                    SSP? DEVNAME NOT PASSED         01-IEFSSSA 
                         0000427C            3429+SSSAVTAN EQU   17020                    RESERVED                        01-IEFSSSA 
                         00004286            3430+SSSAVTAO EQU   17030                    RESERVED                        01-IEFSSSA 
                         00004288            3431+SSSAVTAP EQU   17032                    RESERVED                        01-IEFSSSA 
                         0000428B            3432+SSSAVTAQ EQU   17035                    RESERVED                        01-IEFSSSA 
                         0000428C            3433+SSSAVTAR EQU   17036                    DIRECTORY SPC > PRIMARY SPC     01-IEFSSSA 
                         0000428D            3434+SSSAVTAS EQU   17037                    RESERVED                        01-IEFSSSA 
                         0000428E            3435+SSSAVTAT EQU   17038                    INSTALLATION EXIT REJECTED     X01-IEFSSSA 
                                                 +                                        REQUEST W/ RETURN CODE OF 4                
1QUERYSMS REXX FUNCTION - QUERY SMS                                                                             Page   78            
   Active Usings: ARGTABLE_ENTRY,R8  EVALBLOCK,R9  EFPL,R10  ENVBLOCK,R11  QUERYSMS,R12  DATA,R13                                    
0D-Loc    Object Code      Addr1    Addr2    Stmt  Source Statement                          HLASM R6.0  2012/02/10 10.07            
0                        0000428F            3436+SSSAVTAU EQU   17039                    ISAM no longer supported   @LWC 01-IEFSSSA 
                         00004290            3437+SSSAVTAV EQU   17040                    ERROR IN DADSM PROCESSING,     X01-IEFSSSA 
                                                 +                                        HIST ORIC RETURN CODE IS (),   X           
                                                 +                                        DIAGNOS TIC INFORMATION IS ()              
                         00004292            3438+SSSAVTAW EQU   17042                    EXPDT overridden         @LIC   01-IEFSSSA 
                         00004294            3439+SSSAVTAX EQU   17044                    INVALID PARAMETER LIST         X01-IEFSSSA 
                                                 +                                        SUPPLIED BY CALLER                         
                         00004295            3440+SSSAVTAY EQU   17045                    SCR? SPACE NOT SPECIFIED        01-IEFSSSA 
                         00004296            3441+SSSAVTBM EQU   17046                    ERROR IN DADSM PROCESSING, NEW X01-IEFSSSA 
                                                 +                                        RETURN CODE IS (), DIAGNOSTIC  X           
                                                 +                                        INFORMATION IS ()?                         
                         0000429B            3442+SSSAVTAZ EQU   17051                    PRIMARY SPACE > 65535 TRKS @0KA 01-IEFSSSA 
                         0000429C            3443+SSSAVTBA EQU   17052                    RESERVED                        01-IEFSSSA 
                         0000429D            3444+SSSAVTBB EQU   17053                    INVALID DADSM PARM LIST OR     X01-IEFSSSA 
                                                 +                                        VOLUME LIST                                
                         0000429E            3445+SSSAVTBC EQU   17054                    DSCB NOT FOUND                  01-IEFSSSA 
                         0000429F            3446+SSSAVTBD EQU   17055                    PASSWORD DIFFICULTY             01-IEFSSSA 
                         000042A0            3447+SSSAVTBE EQU   17056                    DUPLICATE DATA SET NAME         01-IEFSSSA 
                         000042A1            3448+SSSAVTBF EQU   17057                    UNEXPIRED PURGE DATE            01-IEFSSSA 
                         000042A2            3449+SSSAVTBG EQU   17058                    APPROPRIATE UCB UNAVAILABLE     01-IEFSSSA 
                         000042A3            3450+SSSAVTBH EQU   17059                    OPERATOR UNABLE TO MOUNT VOL    01-IEFSSSA 
                         000042A4            3451+SSSAVTBI EQU   17060                    DELETE/RENAME FAILURE, DS OPEN  01-IEFSSSA 
                         000042A5            3452+SSSAVTBJ EQU   17061                    INSUFFICIENT RACF AUTHORITY     01-IEFSSSA 
                         000042A6            3453+SSSAVTBK EQU   17062                    INDETERMINATE RENAME/DELETE    X01-IEFSSSA 
                                                 +                                        ERROR                                      
                         000042A9            3454+SSSAVTBL EQU   17065                    INVALID DADSM HISTORIC RETURN  X01-IEFSSSA 
                                                 +                                        CODE                                       
                         000042AA            3455+SSSAVTBN EQU   17066                    UNABLE TO UPDATE LAST VOLUME   X01-IEFSSSA 
                                                 +                                        INDICATOR                                  
                         000042AB            3456+SSSAVTBO EQU   17067                    Convert CNTPCNVT TTR failed    X01-IEFSSSA 
                                                 +                                                                  @L13A            
                         000042AC            3457+SSSAVTBP EQU   17068                    I/O error while writing EOF    X01-IEFSSSA 
                                                 +                                        mark                      @L13A            
                         000042AD            3458+SSSAVTBQ EQU   17069                    RESERVED                        01-IEFSSSA 
                         000042AE            3459+SSSAVTBR EQU   17070                    Data set allocated as striped  X01-IEFSSSA 
                                                 +                                                                  @LEC             
                         000042AF            3460+SSSAVTBS EQU   17071                    Data set not allocated as      X01-IEFSSSA 
                                                 +                                        striped                   @LEA             
                         000042B0            3461+SSSAVTBT EQU   17072                    Striping requirement could not X01-IEFSSSA 
                                                 +                                        be met                    @LEA             
                         000042B1            3462+SSSAVTBU EQU   17073                    Allocation as non-striped will X01-IEFSSSA 
                                                 +                                        be attempted              @LEA             
                         000042B2            3463+SSSAVTBV EQU   17074                    Guaranteed space volume list isX01-IEFSSSA 
                                                 +                                        invalid                   @LEA             
                         000042B3            3464+SSSAVTBW EQU   17075                    Data set DSORG must be PS for  X01-IEFSSSA 
                                                 +                                        data set to be striped    @LEA             
                         000042B4            3465+SSSAVTBX EQU   17076                    Non-SMS data sets cannot be    X01-IEFSSSA 
                                                 +                                        striped                   @LEA             
                         000042B5            3466+SSSAVTBY EQU   17077                    An error has occurred in the   X01-IEFSSSA 
                                                 +                                        SG/Volume selection proc. @LEA             
                         000042B8            3467+SSSAVTCA EQU   17080                    Data set not eligible for VSAM X01-IEFSSSA 
                                                 +                                        Striping                  @LFA             
                         000042CC            3468+SSSAVTEA EQU   17100                    UNEXPECTED CATALOG ERROR        01-IEFSSSA 
                         000042CD            3469+SSSAVTEB EQU   17101                    DUPLICATE NAME IN CATALOG       01-IEFSSSA 
                         000042CE            3470+SSSAVTEC EQU   17102                    CATALOG DEFINE (NONVSAM) ERROR  01-IEFSSSA 
1QUERYSMS REXX FUNCTION - QUERY SMS                                                                             Page   79            
   Active Usings: ARGTABLE_ENTRY,R8  EVALBLOCK,R9  EFPL,R10  ENVBLOCK,R11  QUERYSMS,R12  DATA,R13                                    
0D-Loc    Object Code      Addr1    Addr2    Stmt  Source Statement                          HLASM R6.0  2012/02/10 10.07            
0                        000042CF            3471+SSSAVTED EQU   17103                    CATALOG DEFINE (VSAM) ERROR     01-IEFSSSA 
                         000042D0            3472+SSSAVTEE EQU   17104                    CATALOG RENAME ERROR            01-IEFSSSA 
                         000042D1            3473+SSSAVTEF EQU   17105                    CATALOG DELETE ERROR            01-IEFSSSA 
                         000042D2            3474+SSSAVTEG EQU   17106                    CATALOG LOCATE ERROR            01-IEFSSSA 
                         000042D3            3475+SSSAVTEH EQU   17107                    CATALOG ERROR WHILE ADDING     X01-IEFSSSA 
                                                 +                                        VOLUME TO EXISTING DATASET                 
                         000042D4            3476+SSSAVTEI EQU   17108                    RESERVED                        01-IEFSSSA 
                         000042D5            3477+SSSAVTEJ EQU   17109                    RESERVED                        01-IEFSSSA 
                         000042D6            3478+SSSAVTEK EQU   17110                    UNABLE TO LOCATE DATASET        01-IEFSSSA 
                         000042D7            3479+SSSAVTEL EQU   17111                    INVALID PARAMETER LIST SENT TO X01-IEFSSSA 
                                                 +                                        MODULE IGDVTSCT SYSTEM ERROR               
                         000042D8            3480+SSSAVTEM EQU   17112                    EXPIRATION DATE RESET BY       X01-IEFSSSA 
                                                 +                                        CATALOG?                                   
                         000042D9            3481+SSSAVTEN EQU   17113                    RESERVED                        01-IEFSSSA 
                         000042DA            3482+SSSAVTEO EQU   17114                    RESERVED                        01-IEFSSSA 
                         000042DB            3483+SSSAVTEP EQU   17115                    AIX DEFINE FAILED, BASE CLSTR  X01-IEFSSSA 
                                                 +                                        NOT SMS?                                   
                         000042DC            3484+SSSAVTEQ EQU   17116                    CAN'T LOCATE DATA CMPNTS       X01-IEFSSSA 
                                                 +                                        DSNAME TO RETRV CLSTR VLSR?                
                         000042DD            3485+SSSAVTER EQU   17117                    RESERVED                        01-IEFSSSA 
                         000042DE            3486+SSSAVTES EQU   17118                    DSNAME SPECD IN LIKE= NOT NON  X01-IEFSSSA 
                                                 +                                        VSAM OR CLSTR NAME?                        
                         000042DF            3487+SSSAVTFA EQU   17119                    NULL RDA                        01-IEFSSSA 
                         000042E0            3488+SSSAVTFB EQU   17120                    BAD RETURN CODE FROM FAMS       01-IEFSSSA 
                         000042E1            3489+SSSAVTFC EQU   17121                    RESERVED                        01-IEFSSSA 
                         000042E2            3490+SSSAVTFD EQU   17122                    RESERVED                        01-IEFSSSA 
                         000042E3            3491+SSSAVTFE EQU   17123                    RESERVED                        01-IEFSSSA 
                         00004308            3492+SSSAVTHA EQU   17160                    Data set is compressible  @LEA  01-IEFSSSA 
                         00004309            3493+SSSAVTHB EQU   17161                    Bad return from compression    X01-IEFSSSA 
                                                 +                                        services                  @LEA             
                         0000430A            3494+SSSAVTHC EQU   17162                    Bad return from compression    X01-IEFSSSA 
                                                 +                                        services                  @LEA             
                         0000430B            3495+SSSAVTHD EQU   17163                    Data set characteristics do notX01-IEFSSSA 
                                                 +                                        allow compression         @LEA             
                         0000430C            3496+SSSAVTHE EQU   17164                    Compression not honored by     X01-IEFSSSA 
                                                 +                                        catalog management        @LFA             
                         0000430D            3497+SSSAVTHF EQU   17165                    Multi-volume temporary data    X01-IEFSSSA 
                                                 +                                        set cannot be striped     @LGA             
                         0000430E            3498+SSSAVTHG EQU   17166                    Allocated dataset is not  @FRC X01-IEFSSSA 
                                                 +                                        eligible for FR since     @FRA X           
                                                 +                                      - not all on FR volumes     @FRA X           
                                                 +                                      - not matched on stripe cnt @FRA             
                         0000430F            3499+SSSAVTHH EQU   17167                    Reserved                  @LGA  01-IEFSSSA 
                         00004310            3500+SSSAVTHI EQU   17168                    Reserved                  @LGA  01-IEFSSSA 
                         00004311            3501+SSSAVTHJ EQU   17169                    Reserved                  @LGA  01-IEFSSSA 
                         00004312            3502+SSSAVTHK EQU   17170                    Extended Addressability        X01-IEFSSSA 
                                                 +                                        not honored               @LLA             
                         00004313            3503+SSSAVTHL EQU   17171                    Reserved                  @LLA  01-IEFSSSA 
                         00004314            3504+SSSAVTHM EQU   17172                    Extended Addressability        X01-IEFSSSA 
                                                 +                                        is honored                @LLA             
                         00004330            3505+SSSAVTKA EQU   17200                    THERE ARE MORE VOLUMES IN THE  X01-IEFSSSA 
                                                 +                                        TIOT THAN IN THE CATALOG                   
                         00004331            3506+SSSAVTKB EQU   17201                    CONSTRUCT DEFINITION NOT FOUND  01-IEFSSSA 
                         00004332            3507+SSSAVTKC EQU   17202                    ERROR RETURN FROM CONSTRUCT    X01-IEFSSSA 
1QUERYSMS REXX FUNCTION - QUERY SMS                                                                             Page   80            
   Active Usings: ARGTABLE_ENTRY,R8  EVALBLOCK,R9  EFPL,R10  ENVBLOCK,R11  QUERYSMS,R12  DATA,R13                                    
0D-Loc    Object Code      Addr1    Addr2    Stmt  Source Statement                          HLASM R6.0  2012/02/10 10.07            
0                                                +                                        ACCESS SERVICES, RETURN CODE   X           
                                                 +                                        IS ()                                      
                         00004333            3508+SSSAVTKD EQU   17203                    CAN'T LOCATE VOLUME DEFINITION X01-IEFSSSA 
                                                 +                                        FOR SMS DATA                               
                         00004334            3509+SSSAVTKE EQU   17204                    UNABLE TO ENQ ON DATA SET      X01-IEFSSSA 
                                                 +                                        NAME, RETURN CODE IS () REASON X           
                                                 +                                        CODE IS ()?                                
                         00004335            3510+SSSAVTKF EQU   17205                    VOLUMES SPECIFIED BY THE       X01-IEFSSSA 
                                                 +                                        CALLER ARE NOT IN THE SAME     X           
                                                 +                                        STORAGE GRP FOR A GUARANTEED   X           
                                                 +                                        SPACE REQUEST                              
                         00004336            3511+SSSAVTKG EQU   17206                    NO MORE VOLUMES LEFT TO CHOOSE  01-IEFSSSA 
                         00004337            3512+SSSAVTKH EQU   17207                    NO VOLUMES WITH SUFFICIENT     X01-IEFSSSA 
                                                 +                                        SPACE                                      
                         00004338            3513+SSSAVTKI EQU   17208                    VOLUME ALLOCATION UNABLE TO    X01-IEFSSSA 
                                                 +                                        GET A LIST OF ALLOCATED UCBS,  X           
                                                 +                                        RETURN CODE IS ()                          
                         0000433A            3514+SSSAVTKJ EQU   17210                    DYNAM VOLUME DEALLOC FAILED     01-IEFSSSA 
                         0000433B            3515+SSSAVTKK EQU   17211                    MIXED SPFC AND NON SPFC VOLS    01-IEFSSSA 
                         0000433C            3516+SSSAVTKL EQU   17212                    CAN'T EXTRACT DDN FOR CREATE    01-IEFSSSA 
                         0000433D            3517+SSSAVTKM EQU   17213                    S99? CANT DYNAM ALLOC VOL       01-IEFSSSA 
                         0000433E            3518+SSSAVTKN EQU   17214                    S99? CANT DYNAM ALLOC DS        01-IEFSSSA 
                         0000433F            3519+SSSAVTKO EQU   17215                    NO SPACE SPECIFIED FOR VSAM    X01-IEFSSSA 
                                                 +                                        DATASET CREATE?                            
                         00004340            3520+SSSAVTKP EQU   17216                    CAN'T ALLOC SP USER SPECD VOL  X01-IEFSSSA 
                                                 +                                        FOR GS REQ?                                
                         00004341            3521+SSSAVTKQ EQU   17217                    CAN'T SELECT VOLS FOR GS REQ    01-IEFSSSA 
                         00004342            3522+SSSAVTKR EQU   17218                    VOLUME LIST NOT SPECIFIED?      01-IEFSSSA 
                         00004343            3523+SSSAVTKS EQU   17219                    UNABLE TO CONTINUE DEFINE OF   X01-IEFSSSA 
                                                 +                                        DATA SET?                                  
                         00004344            3524+SSSAVTKT EQU   17220                    GRTR THAN 59 VOLUMES SPECD      01-IEFSSSA 
                         00004345            3525+SSSAVTKU EQU   17221                    M.V.TEMP. VSAM NOT ALLOWED     X01-IEFSSSA 
                                                 +                                                              @YA40360             
                         00004346            3526+SSSAVTKV EQU   17222                    Server is not available @LJA    01-IEFSSSA 
                         00004347            3527+SSSAVTKW EQU   17223                    RESERVED                        01-IEFSSSA 
                         00004348            3528+SSSAVTKX EQU   17224                    NO SGS RETD ON CALL TO ACS     X01-IEFSSSA 
                                                 +                                        DURING VSAM DEFINE?                        
                         00004349            3529+SSSAVTKY EQU   17225                    CAN'T FIND REQ'D VOLUME FOR GS X01-IEFSSSA 
                                                 +                                        REQUEST?                                   
                         0000434A            3530+SSSAVTKZ EQU   17226                    INSUFF VOLS IN ELIGIBLE SG(S)   01-IEFSSSA 
                         0000434B            3531+SSSAVTLA EQU   17227                    Reserved                 @LJA   01-IEFSSSA 
                         0000434C            3532+SSSAVTLB EQU   17228                    Reserved                 @LJA   01-IEFSSSA 
                         0000434D            3533+SSSAVTLC EQU   17229                    Reserved                 @LJA   01-IEFSSSA 
                         0000434E            3534+SSSAVTLD EQU   17230                    Pl for VSAM EOV invalid  @LJA   01-IEFSSSA 
                         0000434F            3535+SSSAVTLE EQU   17231                    JFCB indicates non-VSAM  @LJA   01-IEFSSSA 
                         00004350            3536+SSSAVTLF EQU   17232                    DSN for VSAM EOV ^found  @LJA   01-IEFSSSA 
                         00004351            3537+SSSAVTLG EQU   17233                    Reserved                 @LJA   01-IEFSSSA 
                         00004352            3538+SSSAVTLH EQU   17234                    VSAM EOV request failed  @LJA   01-IEFSSSA 
                         00004353            3539+SSSAVTLI EQU   17235                    VSAM EOV DEL failed      @LJA   01-IEFSSSA 
                         00004354            3540+SSSAVTLJ EQU   17236                    VSAM EOV DEL failed      @LJA   01-IEFSSSA 
                         00004355            3541+SSSAVTLK EQU   17237                    Reserved                 @LJA   01-IEFSSSA 
                         00004356            3542+SSSAVTLL EQU   17238                    Reserved                 @LJA   01-IEFSSSA 
                         00004357            3543+SSSAVTLM EQU   17239                    VSAM EOV completed       @LJA   01-IEFSSSA 
                         00004358            3544+SSSAVTLN EQU   17240                    VSAM EOV request failed  @LJA   01-IEFSSSA 
                         00004359            3545+SSSAVTLO EQU   17241                    VSAM EOV request failed  @LJA   01-IEFSSSA 
1QUERYSMS REXX FUNCTION - QUERY SMS                                                                             Page   81            
   Active Usings: ARGTABLE_ENTRY,R8  EVALBLOCK,R9  EFPL,R10  ENVBLOCK,R11  QUERYSMS,R12  DATA,R13                                    
0D-Loc    Object Code      Addr1    Addr2    Stmt  Source Statement                          HLASM R6.0  2012/02/10 10.07            
0                        0000435A            3546+SSSAVTLP EQU   17242                    VSAM EOV DEL req failed  @LJA   01-IEFSSSA 
                         0000435B            3547+SSSAVTLQ EQU   17243                    Reserved                 @LJA   01-IEFSSSA 
                         0000435C            3548+SSSAVTLR EQU   17244                    Reserved                 @LJA   01-IEFSSSA 
                         0000435D            3549+SSSAVTLS EQU   17245                    No JFCBX for ADDVOL      @18A   01-IEFSSSA 
                         0000435E            3550+SSSAVTLT EQU   17246                    Reserved                 @LJA   01-IEFSSSA 
                         0000435F            3551+SSSAVTLU EQU   17247                    Reserved                 @LJA   01-IEFSSSA 
                         00004360            3552+SSSAVTLV EQU   17248                    Reserved                 @LJA   01-IEFSSSA 
                         00004361            3553+SSSAVTLW EQU   17249                    VSAM EOV Extend failed   @0WC   01-IEFSSSA 
                         00004362            3554+SSSAVTMA EQU   17250                    CAN'T STACK LOCAL RECOVERY RTN  01-IEFSSSA 
                         00004363            3555+SSSAVTMB EQU   17251                    SWA MGR LOCATE MODE FAILURE     01-IEFSSSA 
                         0000436C            3556+SSSAVTMC EQU   17260                    SG OR VOL DISABLED TO SMS       01-IEFSSSA 
                         0000436D            3557+SSSAVTMD EQU   17261                    INVALID VOL LIST PASSED TO OLD X01-IEFSSSA 
                                                 +                                        SMS DS ALLOCATION                          
                         0000436E            3558+SSSAVTME EQU   17262                    UNABLE TO ALLOCATE VOLUME       01-IEFSSSA 
                         0000436F            3559+SSSAVTMF EQU   17263                    INVALID INCLUDE LIST PASSED     01-IEFSSSA 
                         00004370            3560+SSSAVTMG EQU   17264                    RESERVED                        01-IEFSSSA 
                         00004371            3561+SSSAVTMH EQU   17265                    RESERVED                        01-IEFSSSA 
                         00004376            3562+SSSAVTMI EQU   17270                    RESERVED                        01-IEFSSSA 
                         00004377            3563+SSSAVTMJ EQU   17271                    SVS TERT VOLS USED   @YA32669   01-IEFSSSA 
                         00004378            3564+SSSAVTMK EQU   17272                    STI? CALLED W/ UNDEF FNC        01-IEFSSSA 
                         00004379            3565+SSSAVTML EQU   17273                    CAN'T ALLOCATE SELECTED VOLS    01-IEFSSSA 
                         0000437A            3566+SSSAVTMM EQU   17274                    VOLS FOR GSP RQST NOT IN ANY   X01-IEFSSSA 
                                                 +                                        ELIGIBLE STORAGE GROUP                     
                         0000437B            3567+SSSAVTMN EQU   17275                    NO ELIGIBLE SG'S HAVE SPACE    X01-IEFSSSA 
                                                 +                                        FOR BEST FIT REQUEST                       
                         0000437C            3568+SSSAVTMO EQU   17276                    MOD RQST WILL MAKE VOLCNT>59    01-IEFSSSA 
                         0000437D            3569+SSSAVTMP EQU   17277                    VOLUMES STATUS MESSAGE          01-IEFSSSA 
                         0000437F            3570+SSSAVTMR EQU   17279                    PMR reduction              @LKC 01-IEFSSSA 
                         00004380            3571+SSSAVTMQ EQU   17280                    AIX DEFINE REQUESTED WITH NO   X01-IEFSSSA 
                                                 +                                        VOLSER PROVIDED        @YA38473            
                         00004381            3572+SSSAVTNA EQU   17281                    PMR reduction              @LKA 01-IEFSSSA 
                         00004382            3573+SSSAVTNB EQU   17282                    PMR reduction              @LKA 01-IEFSSSA 
                         00004383            3574+SSSAVTNC EQU   17283                    PMR reduction              @LKA 01-IEFSSSA 
                         00004384            3575+SSSAVTND EQU   17284                    PMR reduction              @LKA 01-IEFSSSA 
                         00004385            3576+SSSAVTNE EQU   17285                    PMR reduction              @LKA 01-IEFSSSA 
                         00004386            3577+SSSAVTNF EQU   17286                    X37 processing message     @X3A 01-IEFSSSA 
                         00004387            3578+SSSAVTNG EQU   17287                    X37 processing message     @X3A 01-IEFSSSA 
                         00004388            3579+SSSAVTNH EQU   17288                    X37 processing message     @X3A 01-IEFSSSA 
                         00004389            3580+SSSAVTNI EQU   17289                    X37 processing message     @X3A 01-IEFSSSA 
                         0000438A            3581+SSSAVTNJ EQU   17290                    X37 processing message     @X3A 01-IEFSSSA 
                         0000438B            3582+SSSAVTNK EQU   17291                    X37 processing message     @X3A 01-IEFSSSA 
                         0000438C            3583+SSSAVTNL EQU   17292                    X37 processing message     @X3A 01-IEFSSSA 
                         0000438D            3584+SSSAVTNM EQU   17293                    X37 processing message     @X3A 01-IEFSSSA 
                         00004394            3585+SSSAVTIA EQU   17300                    RESERVED                        01-IEFSSSA 
                         00004395            3586+SSSAVTIB EQU   17301                    VOLUME(S) NOT ENABLED OR       X01-IEFSSSA 
                                                 +                                        ONLINE FOR DELETE/RENAME                   
                         00004396            3587+SSSAVTIC EQU   17302                    UNABLE TO EXTRACT DDNAME FOR   X01-IEFSSSA 
                                                 +                                        DELETE                                     
                         00004397            3588+SSSAVTID EQU   17303                    UNABLE TO DYNAMICALLY ALLOCATE X01-IEFSSSA 
                                                 +                                        DATASET FOR DELETE                         
                         00004398            3589+SSSAVTIE EQU   17304                    DATASET NOT DELETED/RENAMED    X01-IEFSSSA 
                                                 +                                        NON SMS DATASET ON SMS         X           
                                                 +                                        VOLUME(S)                                  
                         00004399            3590+SSSAVTIF EQU   17305                    DATASET NOT DELETED/RENAMED    X01-IEFSSSA 
1QUERYSMS REXX FUNCTION - QUERY SMS                                                                             Page   82            
   Active Usings: ARGTABLE_ENTRY,R8  EVALBLOCK,R9  EFPL,R10  ENVBLOCK,R11  QUERYSMS,R12  DATA,R13                                    
0D-Loc    Object Code      Addr1    Addr2    Stmt  Source Statement                          HLASM R6.0  2012/02/10 10.07            
0                                                +                                        VOLUMES ARE A COMBINATION OF   X           
                                                 +                                        SMS AND NON SMS                            
                         0000439A            3591+SSSAVTIG EQU   17306                    DELETE FAILED INVALID SVC 99   X01-IEFSSSA 
                                                 +                                        PARM LIST SYSTEM ERROR                     
                         0000439B            3592+SSSAVTIH EQU   17307                    INVALID DADSM DELETE/RENAME    X01-IEFSSSA 
                                                 +                                        VOLUME LIST OR VOLUME LIST PTR             
                         0000439C            3593+SSSAVTII EQU   17308                    DEL/REN FAILED? CAN'T LOCATE   X01-IEFSSSA 
                                                 +                                        VOLS FOR DATASET?                          
                         0000439D            3594+SSSAVTIJ EQU   17309                    ERROR ON SVC 99 DYN UNALLOC    X01-IEFSSSA 
                                                 +                                        DURING DELETE?                             
                         0000439E            3595+SSSAVTIK EQU   17310                    GETMAIN FAILED FOR DADSM       X01-IEFSSSA 
                                                 +                                        VOLIST DURING DELETE?                      
                         0000439F            3596+SSSAVTIL EQU   17311                    DS/RN? SMS VOL & ^SMS DS        01-IEFSSSA 
                         000043A0            3597+SSSAVTIM EQU   17312                    RESERVED                        01-IEFSSSA 
                         000043A1            3598+SSSAVTIN EQU   17313                    Input error for           @FRC X01-IEFSSSA 
                                                 +                                        fast replication          @FRA             
                         000043A3            3599+SSSAVTIP EQU   17315                    QFRVOLS failed for        @FRA X01-IEFSSSA 
                                                 +                                        required fast replication @FRA             
                         000043A5            3600+SSSAVTIR EQU   17317                    EAV vols not eligible     @SLC  01-IEFSSSA 
                         000043A6            3601+SSSAVTIS EQU   17318                    Chunk for striped D.S.    @SLA  01-IEFSSSA 
                         000043A7            3602+SSSAVTIT EQU   17319                    RESERVED                  @FRA  01-IEFSSSA 
                         000043A9            3603+SSSAVTIV EQU   17321                    RESERVED                  @FRA  01-IEFSSSA 
                         000043B3            3604+SSSAVTJF EQU   17331                    Dataset not allocated     @FRA X01-IEFSSSA 
                                                 +                                        for fast replication      @FRA             
                         000043B5            3605+SSSAVTJH EQU   17333                    Optimum stripe count      @FRA X01-IEFSSSA 
                                                 +                                        less than the source      @FRA             
                         000043B6            3606+SSSAVTJI EQU   17334                    Allocated stripe count    @FRA X01-IEFSSSA 
                                                 +                                        not match the source      @FRA             
                         000043BD            3607+SSSAVTJP EQU   17341                    RESERVED                  @FRA  01-IEFSSSA 
                         000043C5            3608+SSSAVTJT EQU   17349                    Orphan NVR exists         @20A  01-IEFSSSA 
                                             3609+***********************************************************************            
                                             3610+*        REASON CODES FOR VTOC/DATA SET SERVICES?                     *            
                                             3611+***********************************************************************            
                         000043C6            3612+SSSAVTOB EQU   17350                    INVALID PARAMETER LIST         X01-IEFSSSA 
                                                 +                                        SUPPLIED BY CALLER OF VTOC DS  X           
                                                 +                                        SERVICES?                                  
                         000043C7            3613+SSSAVTOC EQU   17351                    RESERVED                        01-IEFSSSA 
                         000043C8            3614+SSSAVTOD EQU   17352                    BAD RETURN FROM SJF?            01-IEFSSSA 
                         000043C9            3615+SSSAVTOE EQU   17353                    SMS VOLUMES SPECIFIED FOR NON  X01-IEFSSSA 
                                                 +                                        SMS DATA SET?                              
                         000043CA            3616+SSSAVTOF EQU   17354                    BAD RETURN CODE FOR ACS?        01-IEFSSSA 
                         000043CB            3617+SSSAVTOG EQU   17355                    SPACE PARAMETER IN THE PARTIAL X01-IEFSSSA 
                                                 +                                        DSCB INVALID?                              
                         000043CC            3618+SSSAVTOH EQU   17356                    RESERVED                        01-IEFSSSA 
                         000043CD            3619+SSSAVTOI EQU   17357                    GDG RECLAIM REQUEST FAILED      01-IEFSSSA 
                         000043CE            3620+SSSAVTOJ EQU   17358                    VOLUME SELECTION FAILED AFTER  X01-IEFSSSA 
                                                 +                                        5 ATTEMPTS BUT VOLUME(S) COULD X           
                                                 +                                        NOT BE SELECTED?                           
                         000043CF            3621+SSSAVTOK EQU   17359                    PASSWORD SPECIFICATION MAY BE  X01-IEFSSSA 
                                                 +                                        INEFFECTIVE FOR DATA SET                   
                         000043D0            3622+SSSAVTOL EQU   17360                    RETPD OR EXPDT RESET FOR TEMP  X01-IEFSSSA 
                                                 +                                        DATA SET                                   
                         000043D1            3623+SSSAVTOM EQU   17361                    NON_SMS VOLUMES SPECIFIED FOR  X01-IEFSSSA 
                                                 +                                        SMS_MANAGED DATA SET?                      
1QUERYSMS REXX FUNCTION - QUERY SMS                                                                             Page   83            
   Active Usings: ARGTABLE_ENTRY,R8  EVALBLOCK,R9  EFPL,R10  ENVBLOCK,R11  QUERYSMS,R12  DATA,R13                                    
0D-Loc    Object Code      Addr1    Addr2    Stmt  Source Statement                          HLASM R6.0  2012/02/10 10.07            
0                        000043D2            3624+SSSAVTON EQU   17362                    CAN'T LOCATE SMS MGD DS OR     X01-IEFSSSA 
                                                 +                                        VSAM DS DURING EOV?                        
                         000043D3            3625+SSSAVTOO EQU   17363                    RESERVED,UNUSED                 01-IEFSSSA 
                         000043D4            3626+SSSAVTOP EQU   17364                    DATA SET NOT AUTHORIZED TO EXP X01-IEFSSSA 
                                                 +                                        DATE RESET TO MAX ALLOWED                  
                         000043D5            3627+SSSAVTOQ EQU   17365                    SCM? EXTENT REDUCTION FAILED    01-IEFSSSA 
                         000043D6            3628+SSSAVTOR EQU   17366                    DP/V1? EXTENT REDUCTION FAILED  01-IEFSSSA 
                         000043D7            3629+SSSAVTOS EQU   17367                    RESERVED,UNUSED                 01-IEFSSSA 
                         000043D8            3630+SSSAVTOT EQU   17368                    ERROR IN UCBSCAN       @YA39668 01-IEFSSSA 
                         000043D9            3631+SSSAVTOU EQU   17369                    ERROR IN EDTINFO       @YA39668 01-IEFSSSA 
                         000043DA            3632+SSSAVTOV EQU   17370                    ERROR IN UCBLOOK       @YA39668 01-IEFSSSA 
                         000043DB            3633+SSSAVTOW EQU   17371                    Undefined VIO device type  @0EC 01-IEFSSSA 
                         000043DC            3634+SSSAVTOX EQU   17372                    RESERVED,UNUSED                 01-IEFSSSA 
                         000043DD            3635+SSSAVTOY EQU   17373                    RESERVED,UNUSED                 01-IEFSSSA 
                         000043DE            3636+SSSAVTOZ EQU   17374                    RESERVED,UNUSED                 01-IEFSSSA 
                         000043E4            3637+SSSAVTSM EQU   17380                    CUT SMF RECORD FAIL       @LRA  01-IEFSSSA 
                         000043F3            3638+SSSAVTYB EQU   17395                    SFI not honored message   @SFA  01-IEFSSSA 
                                             3639+***********************************************************************            
                                             3640+*        REASON CODES FOR VTOC/DATA SET SERVICES 'LIKE' PROCESSING?   *            
                                             3641+***********************************************************************            
                         000043F8            3642+SSSAVTPA EQU   17400                    DATA SET REFERENCED BY 'LIKE'  X01-IEFSSSA 
                                                 +                                        NOT CATALOGED?                             
                         000043F9            3643+SSSAVTPB EQU   17401                    'LIKE' DATA SET DSCB NOT       X01-IEFSSSA 
                                                 +                                        UNAVAILABLE?                               
                         000043FA            3644+SSSAVTPC EQU   17402                    TRYING TO READ PDS DIRECTORY   X01-IEFSSSA 
                                                 +                                        FOR 'LIKE' BUT ALLOCATION      X           
                                                 +                                        FAILED?                                    
                         000043FB            3645+SSSAVTPD EQU   17403                    TRYING TO READ PDS DIRECTORY   X01-IEFSSSA 
                                                 +                                        FOR 'LIKE' BUT OPEN FAILED?                
                         000043FC            3646+SSSAVTPE EQU   17404                    TRYING TO READ PDS DIRECTORY   X01-IEFSSSA 
                                                 +                                        FOR 'LIKE' WHEN I/O ERROR      X           
                                                 +                                        OCCURED?                                   
                         000043FD            3647+SSSAVTPF EQU   17405                    UNABLE TO DETERMINE DEVICE     X01-IEFSSSA 
                                                 +                                        CHARACTERISTICS?                           
                         000043FE            3648+SSSAVTPG EQU   17406                    UNABLE TO DEALLOCAT DATA SET   X01-IEFSSSA 
                                                 +                                        REFERENCED BY 'LIKE'?                      
                         000043FF            3649+SSSAVTPH EQU   17407                    CATALOG ERROR LOCATING DS FOR  X01-IEFSSSA 
                                                 +                                        LIKE PROCESSING                            
                         00004400            3650+SSSAVTPI EQU   17408                    ERROR RC FROM SJF ATTEMPTING   X01-IEFSSSA 
                                                 +                                        TO GET DATA CLASS                          
                         00004401            3651+SSSAVTPJ EQU   17409                    RESERVED                        01-IEFSSSA 
                         00004402            3652+SSSAVTPK EQU   17410                    RESERVED                        01-IEFSSSA 
                                             3653+***********************************************************************            
                                             3654+*        02A MESSAGES FROM UNAUTHORIZED DEFINE (IGDVTSUC)             *            
                                             3655+*        02A                                                          *            
                                             3656+***********************************************************************            
                         00004403            3657+SSSAVTPL EQU   17411                    SSSA RQST BITS NOT SET          01-IEFSSSA 
                         00004404            3658+SSSAVTPM EQU   17412                    INTNL ERR COPYING FVT           01-IEFSSSA 
                         00004405            3659+SSSAVTPN EQU   17413                    CPL PREFIX NOT FOUND            01-IEFSSSA 
                         00004406            3660+SSSAVTPO EQU   17414                    REQUEST FOR UNSPTD FUNCT        01-IEFSSSA 
                         00004407            3661+SSSAVTPP EQU   17415                    FVT NOT FOUND                   01-IEFSSSA 
                         00004408            3662+SSSAVTPQ EQU   17416                    INTNL ERR MSGS FND              01-IEFSSSA 
                         00004409            3663+SSSAVTPR EQU   17417                    VOL SEL NOT ALLWD               01-IEFSSSA 
                         0000440A            3664+SSSAVTPS EQU   17418                    ERR CPYING FR CLR KEY           01-IEFSSSA 
                         0000440B            3665+SSSAVTPT EQU   17419                    ERR CPYING TO CLR KEY           01-IEFSSSA 
1QUERYSMS REXX FUNCTION - QUERY SMS                                                                             Page   84            
   Active Usings: ARGTABLE_ENTRY,R8  EVALBLOCK,R9  EFPL,R10  ENVBLOCK,R11  QUERYSMS,R12  DATA,R13                                    
0D-Loc    Object Code      Addr1    Addr2    Stmt  Source Statement                          HLASM R6.0  2012/02/10 10.07            
0                        0000440C            3666+SSSAVTPU EQU   17420                    INTERNAL ERROR                  01-IEFSSSA 
                         0000440D            3667+SSSAVTPV EQU   17421                    CWA NOT FOUND                   01-IEFSSSA 
                         0000440E            3668+SSSAVTPW EQU   17422                    FVT EXT HDR ID MISMATCH         01-IEFSSSA 
                         0000440F            3669+SSSAVTPX EQU   17423                    CPL EXT HDR ID MISMATCH         01-IEFSSSA 
                         00004410            3670+SSSAVTPY EQU   17424                    BEST FIT INTERF NOT SPTD        01-IEFSSSA 
                         00004411            3671+SSSAVTPZ EQU   17425                    RESERVED                        01-IEFSSSA 
                         00004412            3672+SSSAVTQA EQU   17426                    RESERVED                        01-IEFSSSA 
                         00004413            3673+SSSAVTQB EQU   17427                    RESERVED                        01-IEFSSSA 
                         00004414            3674+SSSAVTQC EQU   17428                    RESERVED                        01-IEFSSSA 
                         00004415            3675+SSSAVTQD EQU   17429                    RESERVED                        01-IEFSSSA 
                         00004416            3676+SSSAVTQE EQU   17430                    tape ds allocation refer enced X01-IEFSSSA 
                                                 +                                        a VSAM ds with LIKE                        
                         00004417            3677+SSSAVTQF EQU   17431                    RESERVED                        01-IEFSSSA 
                         00004418            3678+SSSAVTQG EQU   17432                    RESERVED                        01-IEFSSSA 
                         00004419            3679+SSSAVTQH EQU   17433                    RESERVED                        01-IEFSSSA 
                         0000445D            3680+SSSAVTRA EQU   17501                    OPEN failed for POSIX file @LAA 01-IEFSSSA 
                         0000445E            3681+SSSAVTRB EQU   17502                    CREATE of special POSIX file   X01-IEFSSSA 
                                                 +                                        failed                     @LAA            
                         0000445F            3682+SSSAVTRC EQU   17503                    CLOSE failed for POSIX     @LAA 01-IEFSSSA 
                         00004460            3683+SSSAVTRD EQU   17504                    STA, CHR, UNL failed       @LMC 01-IEFSSSA 
                         00004461            3684+SSSAVTRE EQU   17505                    Reserved                   @LAA 01-IEFSSSA 
                         00004462            3685+SSSAVTRF EQU   17506                    Reserved                   @LAA 01-IEFSSSA 
                         00004466            3686+SSSAVTRJ EQU   17510                    OPEN failed for POSIX file @LAA 01-IEFSSSA 
                         00004467            3687+SSSAVTRK EQU   17511                    No pathname specified      @LAA 01-IEFSSSA 
                         00004468            3688+SSSAVTRL EQU   17512                    Invalid DSNTYPE specified  @LAA 01-IEFSSSA 
                                             3689+***********************************************************************            
                                             3690+*        THE SSSAVTX MESSAGES ARE DUPLICATES OF OTHER MESSAGES BUT    *            
                                             3691+*        ARE GIVEN NEW MESSAGE IDS TO MAINTAIN UNIQUE CORRESPONDENCE  *            
                                             3692+*        BETWEEN MESSAGE ID AND ISSUEING MODULE?                      *            
                                             3693+***********************************************************************            
                         00004588            3694+SSSAVTXA EQU   17800                    CONSTRUCT DEFN NOT FOUND        01-IEFSSSA 
                         00004589            3695+SSSAVTXB EQU   17801                    ERROR RETURN FROM CNS           01-IEFSSSA 
                         0000458A            3696+SSSAVTXC EQU   17802                    VOLS NOT IN SAME SG FOR GS      01-IEFSSSA 
                         0000458B            3697+SSSAVTXD EQU   17803                    NO MORE VOLUMES LEFT TO CHOOSE  01-IEFSSSA 
                         0000458C            3698+SSSAVTXE EQU   17804                    NO VOLS WITH SUFFICIENT SPACE   01-IEFSSSA 
                         0000458D            3699+SSSAVTXF EQU   17805                    RESERVED                        01-IEFSSSA 
                         0000458E            3700+SSSAVTXG EQU   17806                    CAN'T ALLOCATE SELECTED VOLS    01-IEFSSSA 
                         0000458F            3701+SSSAVTXH EQU   17807                    VOLUMES STATUS MESSAGE          01-IEFSSSA 
                         00004590            3702+SSSAVTXI EQU   17808                    RELAX GUARANTEED SPACE   @0GC   01-IEFSSSA 
                         00004591            3703+SSSAVTXJ EQU   17809                    RESERVED                        01-IEFSSSA 
                         00004592            3704+SSSAVTXK EQU   17810                    RESERVED                        01-IEFSSSA 
                         00004593            3705+SSSAVTXL EQU   17811                    RESERVED                        01-IEFSSSA 
                         00004594            3706+SSSAVTXM EQU   17812                    RESERVED                        01-IEFSSSA 
                         00004595            3707+SSSAVTXN EQU   17813                    BAD RETURN CODE FROM ACS        01-IEFSSSA 
                         00004596            3708+SSSAVTXO EQU   17814                    BAD RC FROM DASDCALC            01-IEFSSSA 
                         00004597            3709+SSSAVTXP EQU   17815                    RESERVED                        01-IEFSSSA 
                         00004598            3710+SSSAVTXQ EQU   17816                    RESERVED                        01-IEFSSSA 
                         00004599            3711+SSSAVTXR EQU   17817                    RESERVED                        01-IEFSSSA 
                         0000459A            3712+SSSAVTXS EQU   17818                    RESERVED                        01-IEFSSSA 
                         0000459B            3713+SSSAVTXT EQU   17819                    RESERVED                        01-IEFSSSA 
                         0000459C            3714+SSSAVTXU EQU   17820                    RESERVED                        01-IEFSSSA 
                         0000459D            3715+SSSAVTXV EQU   17821                    RESERVED                        01-IEFSSSA 
                         0000459E            3716+SSSAVTXW EQU   17822                    RESERVED                        01-IEFSSSA 
                         0000459F            3717+SSSAVTXX EQU   17823                    RESERVED                        01-IEFSSSA 
                         000045A0            3718+SSSAVTXY EQU   17824                    RESERVED                        01-IEFSSSA 
1QUERYSMS REXX FUNCTION - QUERY SMS                                                                             Page   85            
   Active Usings: ARGTABLE_ENTRY,R8  EVALBLOCK,R9  EFPL,R10  ENVBLOCK,R11  QUERYSMS,R12  DATA,R13                                    
0D-Loc    Object Code      Addr1    Addr2    Stmt  Source Statement                          HLASM R6.0  2012/02/10 10.07            
0                        000045A1            3719+SSSAVTXZ EQU   17825                    RESERVED                        01-IEFSSSA 
                                             3720+*****************************************************************3@L7A*            
                                             3721+*        REASON CODES FOR SMS Tape Volume Record ?Update SSI          *            
                                             3722+***********************************************************************            
                         00005208            3723+SSSAJDRR EQU   21000                    delete of recov rtn failed @PCC 01-IEFSSSA 
                         00005209            3724+SSSAJAPR EQU   21001                    CBRXLCS use attribute      @P7CX01-IEFSSSA 
                                                 +                                        change scratch to private  @P7MX           
                                                 +                                        wanted but already private @P7M            
                         0000520A            3725+SSSAJCIE EQU   21002                    CBRUXCUA Installation Exit @P7AX01-IEFSSSA 
                                                 +                                        at fault                   @P7A            
                         0000520B            3726+SSSAJCVU EQU   21003                    CBRXVOL FUNC(UPDATE) failed@P3C 01-IEFSSSA 
                         0000520C            3727+SSSAJCVR EQU   21004                    CBRXVOL FUNC(RETRIEVE)     @P3CX01-IEFSSSA 
                                                 +                                        failed                     @L7A            
                         0000520D            3728+SSSAJISD EQU   21005                    IGDCNS call to get sg      @P3CX01-IEFSSSA 
                                                 +                                        definition failed          @L7A            
                         0000520E            3729+SSSAJNLM EQU   21006                    no library name match in   @P3CX01-IEFSSSA 
                                                 +                                        any of the sg definitions  @L7A            
                         0000520F            3730+SSSAJARR EQU   21007                    Add of recovery rtn failed @P3C 01-IEFSSSA 
                                             3731+*                                                             @P9C6@P3D            
                         00005210            3732+SSSAJCLC EQU   21008                    CBRXLCS FUNC(CUA) failed   @P7C 01-IEFSSSA 
                         00005211            3733+SSSAJCLO EQU   21009                    CBRXVOL FUNC(OLN) failed   @P7C 01-IEFSSSA 
                         00005212            3734+SSSAJSSG EQU   21010                    SJF SG retrieval failed    @PCA 01-IEFSSSA 
                         00005213            3735+SSSAJNSS EQU   21011                    No Storage grp name in SWB @PCA 01-IEFSSSA 
                         00005214            3736+SSSAJBOU EQU   21012                    SSSAJBYP can only be set   @PCAX01-IEFSSSA 
                                                 +                                        when SSSAJFUN=SSSAJUPD     @PCA            
                         00005215            3737+SSSAJSCO EQU   21013                    error in retrieval of SJF  @PCAX01-IEFSSSA 
                                                 +                                        COnstruct names SG, SC, MC,@PCAX           
                                                 +                                        and DC from the SWB        @PCA            
                         00005216            3738+SSSAJINF EQU   21014                    INvalid Function,SSSAJFUN^=@PCAX01-IEFSSSA 
                                                 +                                        SSSAJUPD or SSSAJRAU or    @PCAX           
                                                 +                                        SSSAJLOG or SSSAJDRG       @LQC            
                         00005217            3739+SSSAJLTB  EQU  21015                    LOAD CBRBLRCT FAIL         @LNA 01-IEFSSSA 
                         00005218            3740+SSSAJDTB  EQU  21016                    DELETE CBRBLRCT FAIL       @LNA 01-IEFSSSA 
                         000055EF            3741+SSSAJTVA EQU   21999                    Tape Vol Rec Upd abended   @P3C 01-IEFSSSA 
                                             3742+******************************************************************3@L9A            
                                             3743+*        REASON CODES FOR THE DEVICE POOL SELECT SSI?                 *            
                                             3744+***********************************************************************            
                         000055F0            3745+SSSAIDSJ EQU   22000                    BAD SJF REASON CODE?       @P3C 01-IEFSSSA 
                         000055F1            3746+SSSAIDNF EQU   22001                    DEVICE POOLS NOT FOUND?    @P3C 01-IEFSSSA 
                                             3747+***********************************************************************            
                                             3748+*      Reason codes for Data Set Stacking SSI                      @TMA            
                                             3749+*      23000 THRU 23999 ('59D8'X THRU '5DBF'X).                                    
                                             3750+***********************************************************************            
                         000059D8            3751+SSSADKAA EQU   23000                    Unable to establish recovery   X01-IEFSSSA 
                                                 +                                        environment for DS Stackingt   X           
                                                 +                                        SSI (23000 = '59D8'X).     @TMA            
                         000059D9            3752+SSSADKAB EQU   23001                    Data Set Stacking SSI internal X01-IEFSSSA 
                                                 +                                        error (23001 = '59D9'X).   @TMA            
                         000059DA            3753+SSSADKAC EQU   23002                    Both SMS and managed mountable X01-IEFSSSA 
                                                 +                                        flags are on                   X           
                                                 +                                        (23002 = '59DA'X).         @TMA            
                         000059DB            3754+SSSADKAD EQU   23003                    Neither SJF token nor SMS      X01-IEFSSSA 
                                                 +                                        construct information provided X           
                                                 +                                        for primary data set           X           
                                                 +                                        (23003 = '59DB'X).         @TMA            
1QUERYSMS REXX FUNCTION - QUERY SMS                                                                             Page   86            
   Active Usings: ARGTABLE_ENTRY,R8  EVALBLOCK,R9  EFPL,R10  ENVBLOCK,R11  QUERYSMS,R12  DATA,R13                                    
0D-Loc    Object Code      Addr1    Addr2    Stmt  Source Statement                          HLASM R6.0  2012/02/10 10.07            
0                        000059DC            3755+SSSADKAE EQU   23004                    SJF retrieval request failed.  X01-IEFSSSA 
                                                 +                                        (23004 = '59DC'X)          @TMA            
                         000059DD            3756+SSSADKAF EQU   23005                    SJF update request failed.     X01-IEFSSSA 
                                                 +                                        (23005 = '59DD'X).         @TMA            
                         000059DE            3757+SSSADKAG EQU   23006                    Unexpected return code from    X01-IEFSSSA 
                                                 +                                        invoked routine.               X           
                                                 +                                        (23006 = '59DE'X).         @TMA            
                         000059DF            3758+SSSADKAH EQU   23007                    Delete recovery routine failed X01-IEFSSSA 
                                                 +                                        (23007 = '59DF'X).         @TMA            
                         000059E0            3759+SSSADKAI EQU   23008                    Construct Access Serv. Failure X01-IEFSSSA 
                                                 +                                        (23008 = '59E0'X).         @TMA            
                         000059E1            3760+SSSADKAJ EQU   23009                    Message Services Failure       X01-IEFSSSA 
                                                 +                                        (23009 = '59E1'X).         @TMA            
                         000059E2            3761+SSSADKAK EQU   23010                    SJF "TERMINATE" request failed X01-IEFSSSA 
                                                 +                                        (23010 = '59E2'X).         @TMA            
                         000059E3            3762+SSSADKAL EQU   23011                    Neither SJF token nor data set X01-IEFSSSA 
                                                 +                                        name provided                  X           
                                                 +                                        (23011 = '59E3'X).         @TMA            
                         000059E4            3763+SSSADKAM EQU   23012                    Construct not found            X01-IEFSSSA 
                                                 +                                        (23012 = '59E4'X).         @TMA            
                         000059E5            3764+SSSADKAN EQU   23013                    The ACS routines failed the    X01-IEFSSSA 
                                                 +                                        allocation                     X           
                                                 +                                        (23013 = '59E5'X).         @TMA            
                         000059E6            3765+SSSADKAO EQU   23014                    SSSA5SGN is 0 from ACS routine X01-IEFSSSA 
                                                 +                                        (23014 = '59E6'X).         @TMA            
                         000059E7            3766+SSSADKAP EQU   23015                    Internal error from IDAX       X01-IEFSSSA 
                                                 +                                        (23015 = '59E7'X).         @TMA            
                         000059E8            3767+SSSADKAQ EQU   23016                    Unexpected error from LCS      X01-IEFSSSA 
                                                 +                                        (23016 = '59E8'X).         @TMA            
                         00005A3C            3768+SSSADKBA EQU   23100                    ACS routine assigned a storage X01-IEFSSSA 
                                                 +                                        class to a data set being      X           
                                                 +                                        stacked on a non-SMS data set  X           
                                                 +                                        (23100 = '5A3C'X).         @TMA            
                         00005A3D            3769+SSSADKBB EQU   23101                    No storage groups of compatibleX01-IEFSSSA 
                                                 +                                        type assigned to data set whichX           
                                                 +                                        is part of data set collection X           
                                                 +                                        (23101 = '5A3D'X).         @TMA            
                         00005A3E            3770+SSSADKBC EQU   23102                    Storage group ACS routine did  X01-IEFSSSA 
                                                 +                                        not allow use of storage group X           
                                                 +                                        of primary data set for data   X           
                                                 +                                        set being stacked on SMS tape  X           
                                                 +                                        (23102 = '5A3E'X).         @TMA            
                         00005DBF            3771+SSSADKZZ EQU   23999                    Data Set Stacking SSI failed   X01-IEFSSSA 
                                                 +                                        due to undetermined error      X           
                                                 +                                        (23999 = '5DBF'X).         @TMA            
                                             3772+***********************************************************************            
                                             3773+*      Reason codes for Unit Affinity SSI                          @LOA            
                                             3774+*      24000 THRU 24999 ('5dc0'X THRU '61a7'X).                    @LOA            
                                             3775+***********************************************************************            
                         00005DC0            3776+SSSALUAA EQU   24000                     Affinity broken by ACS    @LOA 01-IEFSSSA 
                         00005DC1            3777+SSSALUAB EQU   24001                     SG conflict               @LOA 01-IEFSSSA 
                         00005DC2            3778+SSSALUAC EQU   24002                     Invalid input parameters  @LOA 01-IEFSSSA 
                         00005DC3            3779+SSSALUAD EQU   24003                     Error in stacking LRR     @LOA 01-IEFSSSA 
                         00005DC4            3780+SSSALUAE EQU   24004                     Error in unstacking LRR   @LOA 01-IEFSSSA 
                         00005DC5            3781+SSSALUAF EQU   24005                     reserved                  @LOA 01-IEFSSSA 
1QUERYSMS REXX FUNCTION - QUERY SMS                                                                             Page   87            
   Active Usings: ARGTABLE_ENTRY,R8  EVALBLOCK,R9  EFPL,R10  ENVBLOCK,R11  QUERYSMS,R12  DATA,R13                                    
0D-Loc    Object Code      Addr1    Addr2    Stmt  Source Statement                          HLASM R6.0  2012/02/10 10.07            
0                                            3782+***********************************************************************            
                         00000030            3783+SSSALN   EQU   48                       LENGTH OF SSSA HEADER           01-IEFSSSA 
                         00000020            3784+SSSA1LN  EQU   32                       LEN OF FIXED SSSA1              01-IEFSSSA 
                         00000000            3785+SSSA1GLK EQU   0                        SERIALIZE ACCESS TO THE        X01-IEFSSSA 
                                                 +                                        CURRENT ACTIVE CONFIGURATION   X           
                                                 +                                        MAPPED BY IGDOPSLK                         
                         00000001            3786+SSSA1FLK EQU   1                        RELEASE ACCESS TO THE CURRENT  X01-IEFSSSA 
                                                 +                                        ACTIVE CONFIGURATION MAPPED BY X           
                                                 +                                        IGDOPSLK                                   
                         00000002            3787+SSSA1CON EQU   2                        RETURN BASE CONFIGURATION      X01-IEFSSSA 
                                                 +                                        MAPPED BY IGDBCD                           
                         00000003            3788+SSSA1DC  EQU   3                        RETURN A DATA CLASS DEFINITION X01-IEFSSSA 
                                                 +                                        MAPPED BY IGDDCD                           
                         00000004            3789+SSSA1MC  EQU   4                        RETURN A MANAGEMENT CLASS      X01-IEFSSSA 
                                                 +                                        DEFINITION MAPPED BY IGDMCD                
                         00000005            3790+SSSA1SC  EQU   5                        RETURN A STORAGE CLASS         X01-IEFSSSA 
                                                 +                                        DEFINITION MAPPED BY IGDSCD                
                         00000006            3791+SSSA1SG  EQU   6                        RETURN A STORAGE GROUP         X01-IEFSSSA 
                                                 +                                        DEFINITION MAPPED BY IGDSGD                
                         00000007            3792+SSSA1SGV EQU   7                        RETURN A LIST OF VOLUMES       X01-IEFSSSA 
                                                 +                                        ASSOCIATED WITH A STORAGE      X           
                                                 +                                        GROUP DEFINITION MAPPED BY     X           
                                                 +                                        IGDVLD                                     
                         00000008            3793+SSSA1VSG EQU   8                        RETURN THE STORAGE GROUP       X01-IEFSSSA 
                                                 +                                        (MAPPED BY IGDSGD) ASSOCIATED  X           
                                                 +                                        WITH A VOLUME                              
                         00000009            3794+SSSA1DCL EQU   9                        RETURN THE LIST OF DATA        X01-IEFSSSA 
                                                 +                                        CLASSES ASSOCIATED WITH A      X           
                                                 +                                        CONFIGURATION? MAPPED BY       X           
                                                 +                                        IGDDCD                                     
                         0000000A            3795+SSSA1MCL EQU   10                       RETURN THE LIST OF MANAGEMENT  X01-IEFSSSA 
                                                 +                                        CLASSES ASSOCIATED WITH A      X           
                                                 +                                        CONFIGURATION? MAPPED BY       X           
                                                 +                                        IGDMCD                                     
                         0000000B            3796+SSSA1SCL EQU   11                       RETURN THE LIST OF STORAGE     X01-IEFSSSA 
                                                 +                                        CLASSES ASSOCIATED WITH A      X           
                                                 +                                        CONFIGURATION? MAPPED BY       X           
                                                 +                                        IGDSCD                                     
                         0000000C            3797+SSSA1SGL EQU   12                       RETURN THE LIST OF STORAGE     X01-IEFSSSA 
                                                 +                                        GROUPS ASSOCIATED WITH A       X           
                                                 +                                        CONFIGURATION? MAPPED BY       X           
                                                 +                                        IGDSGD                                     
                         0000000D            3798+SSSA1VOL EQU   13                       RETURN A VOLUME DEFINITION     X01-IEFSSSA 
                                                 +                                        MAPPED BY IGDVLD                           
                         0000000E            3799+SSSA1DCA EQU   14                       RETURN DATA CLASS ACS ROUTINE   01-IEFSSSA 
                         0000000F            3800+SSSA1MCA EQU   15                       RETURN MGMT CLASS ACS ROUTINE   01-IEFSSSA 
                         00000010            3801+SSSA1SCA EQU   16                       RETURN STOR CLASS ACS ROUTINE   01-IEFSSSA 
                         00000011            3802+SSSA1SGA EQU   17                       RETURN STOR GROUP ACS ROUTINE   01-IEFSSSA 
                         00000012            3803+SSSA1VVL EQU   18                       VERIFY PASSED VOLUMES BELONG   X01-IEFSSSA 
                                                 +                                        TO ONE STORAGE GROUP                       
                         00000013            3804+SSSA1INT EQU   19                       RESERVED,UNUSED                 01-IEFSSSA 
                         00000014            3805+SSSA1AVL EQU   20                       RETURN THE LIST OF ALL VOLUMES X01-IEFSSSA 
                                                 +                                        IN A CONFIGURATION? MAPPED BY  X           
                                                 +                                        IGDVLD?                                    
1QUERYSMS REXX FUNCTION - QUERY SMS                                                                             Page   88            
   Active Usings: ARGTABLE_ENTRY,R8  EVALBLOCK,R9  EFPL,R10  ENVBLOCK,R11  QUERYSMS,R12  DATA,R13                                    
0D-Loc    Object Code      Addr1    Addr2    Stmt  Source Statement                          HLASM R6.0  2012/02/10 10.07            
0                        00000015            3806+SSSA1AGG EQU   21                       RETURN A SINGLE AGGREGATE      X01-IEFSSSA 
                                                 +                                        GROUP? MAPPED BY IGDAGD?                   
                         00000016            3807+SSSA1AGL EQU   22                       RETURN LIST OF ALL AGGR?       X01-IEFSSSA 
                                                 +                                        GROUPS IN A CONFIGURATION?     X           
                                                 +                                        MAPPED BY IGDAGD?                          
                         00000017            3808+SSSA1OLB EQU   23                       RETURN A COPY OF AN OPTICAL    X01-IEFSSSA 
                                                 +                                        LIBRARY DEFINITION BY NAME(S)?             
                         00000018            3809+SSSA1OLL EQU   24                       RETURN A COPY OF ALL OPTICAL   X01-IEFSSSA 
                                                 +                                        LIBRARY DEFINITION                         
                         00000019            3810+SSSA1ODR EQU   25                       RETURN A COPY OF AN OPTICAL    X01-IEFSSSA 
                                                 +                                        DRIVE DEFINITION BY NAME(S)?               
                         0000001A            3811+SSSA1ODL EQU   26                       RETURN A COPY OF ALL OPTICAL   X01-IEFSSSA 
                                                 +                                        DRIVE DEFINITIONS                          
                         0000001B            3812+SSSA1DST EQU   27                       RETURN A DESTINATION DEFINITIONX01-IEFSSSA 
                                                 +                                        MAPPED BY IGDDST           @LxA            
                         0000001C            3813+SSSA1DSL EQU   28                       RETURN ALL DESTINATION     @LxAX01-IEFSSSA 
                                                 +                                        DEFINITIONS MAPPED BY IGDDST               
                         0000001D            3814+SSSA1CPA EQU   29                       RETURN A STORAGE GROUP     @19AX01-IEFSSSA 
                                                 +                                        COLLECTION (I.E. COPYPOOL )@19AX           
                                                 +                                        MAPPED BY IGDSGCL          @19A            
                         0000001E            3815+SSSA1CPL EQU   30                       RETURN ALL STORAGE GROUP   @19AX01-IEFSSSA 
                                                 +                                        COLLECTIONS(I.E. COPYPOOL )@19AX           
                                                 +                                        MAPPED BY IGDSGCL          @19A            
                                             3816+***********************************************************************            
                         00000001            3817+SSSA1R31 EQU   1                        DFP 3.1.0                  @PDA 01-IEFSSSA 
                         00000002            3818+SSSA1R32 EQU   2                        DFP 3.2.0                  @PDA 01-IEFSSSA 
                         00000003            3819+SSSA1R33 EQU   3                        DFP 3.3.0                  @PDA 01-IEFSSSA 
                         00000004            3820+SSSA1R11 EQU   4                        DFSMS 1.1.0                @PDA 01-IEFSSSA 
                         00000005            3821+SSSA1R12 EQU   5                        DFSMS 1.2.0                @LCA 01-IEFSSSA 
                         00000006            3822+SSSA1R13 EQU   6                        DFSMS 1.3.0                @LDA 01-IEFSSSA 
                         00000007            3823+SSSA1R14 EQU   7                        DFSMS 1.4.0           @X4A @LDA 01-IEFSSSA 
                         00000008            3824+SSSA1O13 EQU   8                        OS390 1.3                  @LRA 01-IEFSSSA 
                         00000009            3825+SSSA1R19 EQU   9                        OS390 1.9                  @J1A 01-IEFSSSA 
                         00000009            3826+SSSA1MXC EQU   9                        Maximum column index  @LDC,@J1C 01-IEFSSSA 
                         00000001            3827+SSSA1XA1 EQU   1                        SG ACS routine row index   @PDA 01-IEFSSSA 
                         00000002            3828+SSSA1XA2 EQU   2                        SC ACS routine row index   @PDA 01-IEFSSSA 
                         00000003            3829+SSSA1XA3 EQU   3                        MC ACS routine row index   @PDA 01-IEFSSSA 
                         00000004            3830+SSSA1XA4 EQU   4                        DC ACS routine row index   @PDA 01-IEFSSSA 
                         00000005            3831+SSSA1XSG EQU   5                        Storage group row index    @PDA 01-IEFSSSA 
                         00000006            3832+SSSA1XSC EQU   6                        Storage class row index    @PDA 01-IEFSSSA 
                         00000007            3833+SSSA1XMC EQU   7                        Mgmt class row index       @PDA 01-IEFSSSA 
                         00000008            3834+SSSA1XDC EQU   8                        Data class row index       @PDA 01-IEFSSSA 
                         00000009            3835+SSSA1XVL EQU   9                        Volume row index           @PDA 01-IEFSSSA 
                         0000000A            3836+SSSA1XBA EQU   10                       Base row index             @PDA 01-IEFSSSA 
                         0000000B            3837+SSSA1XAG EQU   11                       Aggregate group row index  @PDA 01-IEFSSSA 
                         0000000C            3838+SSSA1XLB EQU   12                       Library row index          @PDA 01-IEFSSSA 
                         0000000D            3839+SSSA1XDR EQU   13                       Drive row index            @PDA 01-IEFSSSA 
                         0000000E            3840+SSSA1XDS EQU   14                       Destination row index      @PDA 01-IEFSSSA 
                         0000000F            3841+SSSA1MXR EQU   15                       Maximum row index          @PDA 01-IEFSSSA 
                         00000018            3842+SSSA1HLN EQU   24                       Construct header length    @PDA 01-IEFSSSA 
                                             3843+***********************************************************************            
                                             3844+* The following constants are supported only at 3.2.0 level. If other *            
                                             3845+* releases are needed caller should declare them using the values in  *            
                                             3846+* SSSA1CLT below.                                                 @PDA*            
                                             3847+***********************************************************************            
1QUERYSMS REXX FUNCTION - QUERY SMS                                                                             Page   89            
   Active Usings: ARGTABLE_ENTRY,R8  EVALBLOCK,R9  EFPL,R10  ENVBLOCK,R11  QUERYSMS,R12  DATA,R13                                    
0D-Loc    Object Code      Addr1    Addr2    Stmt  Source Statement                          HLASM R6.0  2012/02/10 10.07            
0                        00000248            3848+SSSA1LSG EQU   584                      SG Length - 3.2.0 level    @PDA 01-IEFSSSA 
                         000000E0            3849+SSSA1LSC EQU   224                      SC Length - 3.2.0 level    @PDA 01-IEFSSSA 
                         00000128            3850+SSSA1LMC EQU   296                      MC Length - 3.2.0 level    @PDA 01-IEFSSSA 
                         00000108            3851+SSSA1LDC EQU   264                      DC Length - 3.2.0 level    @PDA 01-IEFSSSA 
                         00000098            3852+SSSA1LVL EQU   152                      Vol len - 3.2.0 level      @PDA 01-IEFSSSA 
                         00000178            3853+SSSA1LBA EQU   376                      Base len - 3.2.0 level     @PDA 01-IEFSSSA 
                         00000240            3854+SSSA1LAG EQU   576                      Aggr Grp - 3.2.0 level     @PBA 01-IEFSSSA 
                         00000070            3855+SSSA1LLB EQU   112                      Lib len - 3.2.0 level      @PDA 01-IEFSSSA 
                         00000098            3856+SSSA1LDR EQU   152                      Drive len - 3.2.0 level    @PDA 01-IEFSSSA 
                                             3857+***********************************************************************            
                                             3858+* SSSA1CLT - Construct length table. Identifies length of construct   *            
                                             3859+* in each release. Zero indicates a variable length item, -1          *            
                                             3860+* indicates item does not exist in the release. The length does NOT   *            
                                             3861+* include the header length. The columns are indexed by release. The  *            
                                             3862+* rows are indexed by construct type which MUST match the types       *            
                                             3863+* defined in macro IGDOPSCR.                                      @PDA*            
                                             3864+***********************************************************************            
 00000018 0000000000000000                   3865+SSSA1CLT DC    9F'0,0,0,0,0,0,0,0,0'    SG ACS routine   @X4C @LDC,@J1C 01-IEFSSSA 
 0000015C 0000000000000000                   3866+         DC    9F'0,0,0,0,0,0,0,0,0'    SC ACS routine   @X4C @LDC,@J1C 01-IEFSSSA 
 000002A0 0000000000000000                   3867+         DC    9F'0,0,0,0,0,0,0,0,0'    MC ACS routine   @X4C @LDC,@J1C 01-IEFSSSA 
 000003E4 0000000000000000                   3868+         DC    9F'0,0,0,0,0,0,0,0,0'    DC ACS routine   @X4C @LDC,@J1C 01-IEFSSSA 
 00000528 0000013000000248                   3869+         DC    9F'304,584,584,584,584,2632,2632,2734,                  X01-IEFSSSA 
 00000530 0000024800000248                       +                  2734'                               SG @X4C @LHC,@J1C            
 0000066C 000000E0000000E0                   3870+         DC    9F'224,224,224,224,224,248,248,248,312' SC@X4C @LDC,@J1C 01-IEFSSSA 
 000007B0 0000010800000128                   3871+         DC    9F'264,296,296,880,880,880,880,880,880' MC@X4C @LDC,@J1C 01-IEFSSSA 
 000008F4 0000010800000108                   3872+         DC    9F'264,264,264,264,264,264,376,376,                     X01-IEFSSSA 
 000008FC 0000010800000108                       +                  376'                               DA            @J1C            
 00000A38 0000009800000098                   3873+         DC    9F'152,152,152,152,152,2216,2216,2216,                  X01-IEFSSSA 
 00000A40 0000009800000098                       +                  2216'                              VOLUME        @J1C            
 00000B7C 0000017800000178                   3874+         DC    9F'376,376,376,376,384,0,0,0,0'       BASE@X4C @LDC,@J1C 01-IEFSSSA 
 00000CC0 FFFFFFFF00000240                   3875+         DC    9F'-1,576,576,616,616,616,856,856,856' AG @X4C @LDC,@J1C 01-IEFSSSA 
 00000E04 FFFFFFFF00000070                   3876+         DC    9F'-1,112,112,184,184,2232,2232,2232,                   X01-IEFSSSA 
 00000E0C 00000070000000B8                       +                  2232'                         LIB @J1C,@X4C @LHC,@LRC            
 00000F48 FFFFFFFF00000098                   3877+         DC    9F'-1,152,152,152,152,2200,2200,2200,                   X01-IEFSSSA 
 00000F50 0000009800000098                       +                  2200'                         DRV,@J1C @X4C @LHC,@LRC            
 0000108C FFFFFFFFFFFFFFFF                   3878+         DC    9F'-1,-1,-1,224,224,224,224,224,224'  DEST@X4C @LDC,@LRC 01-IEFSSSA 
                         00000030            3879+SSSA2LN  EQU   48                       LEN OF SSSA2                    01-IEFSSSA 
                                             3880+***********************************************************************            
                                             3881+*        SUBFUNCTIONS FOR OPERATIONAL SERVICES - SSSA2REQ             *            
                                             3882+***********************************************************************            
                         00000001            3883+SSSA2ACT EQU   1                        ACTIVATE A CONFIGURATION        01-IEFSSSA 
                         00000002            3884+SSSA2VOL EQU   2                        UPDATE VOLUME STATISTICS        01-IEFSSSA 
                         00000003            3885+SSSA2LIB EQU   3                        UPDATE OAM LIBRARY              01-IEFSSSA 
                         00000004            3886+SSSA2DRI EQU   4                        UPDATE OAM DRIVE                01-IEFSSSA 
                         00000005            3887+SSSA2RMU EQU   5                        REMOVE UCB POINTER         @0CA 01-IEFSSSA 
                         00000006            3888+SSSA2VON EQU   6                        VARY ONLINE                @16A 01-IEFSSSA 
                                             3889+***********************************************************************            
                                             3890+*        CONSTANTS FOR OAM UPDATES                                    *            
                                             3891+***********************************************************************            
                         00000001            3892+SSSA2ONL EQU   1                        STATUS IS ONLINE                01-IEFSSSA 
                         00000002            3893+SSSA2OFL EQU   2                        STATUS IS OFFLINE               01-IEFSSSA 
                         00000028            3894+SSSA3LN  EQU   40                       LEN OF SSSA3                    01-IEFSSSA 
                         00000288            3895+SSSA5LEN EQU   648                      LEN OF SSSA5                    01-IEFSSSA 
                         00000068            3896+SSSA7LEN EQU   104                      LEN OF SSSA7                    01-IEFSSSA 
                         00000001            3897+SSSA8CAT EQU   1                        CATALOG THE DATA SET            01-IEFSSSA 
1QUERYSMS REXX FUNCTION - QUERY SMS                                                                             Page   90            
   Active Usings: ARGTABLE_ENTRY,R8  EVALBLOCK,R9  EFPL,R10  ENVBLOCK,R11  QUERYSMS,R12  DATA,R13                                    
0D-Loc    Object Code      Addr1    Addr2    Stmt  Source Statement                          HLASM R6.0  2012/02/10 10.07            
0                        00000002            3898+SSSA8UNC EQU   2                        UNCATALOG THE DATA SET          01-IEFSSSA 
                         00000003            3899+SSSA8DEL EQU   3                        DELETE THE DATA SET             01-IEFSSSA 
                         00000004            3900+SSSA8KEP EQU   4                        KEEP THE DATA SET               01-IEFSSSA 
                         00000005            3901+SSSA8PAS EQU   5                        PASS THE DATA SET               01-IEFSSSA 
                                             3902+***********************************************************************            
                                             3903+*        Status of the data set - SSSA8STA                            *            
                                             3904+***********************************************************************            
                         00000001            3905+SSSA8NEW EQU   1                        Data set status is NEW          01-IEFSSSA 
                         00000002            3906+SSSA8MOD EQU   2                        Data set status is MOD          01-IEFSSSA 
                         00000003            3907+SSSA8OLD EQU   3                        Data set status is OLD          01-IEFSSSA 
                         000001B0            3908+SSSA8LEN EQU   432                      LEN OF SSSA8                    01-IEFSSSA 
                         00000060            3909+SSSA9LEN EQU   96                       LEN OF SSSA9               @PGC 01-IEFSSSA 
                         00000058            3910+SSSAALEN EQU   88                       LEN OF SSSAA                    01-IEFSSSA 
                                             3911+***********************************************************************            
                                             3912+*      VOLREF SERVICES CONSTANTS                                      *            
                                             3913+***********************************************************************            
                         00000000            3914+SSSAANEW EQU   B'00'                    DATA SET DISPOSITION IS NEW     01-IEFSSSA 
                         00000001            3915+SSSAAMOD EQU   B'01'                    DATA SET DISPOSITION IS MOD     01-IEFSSSA 
                         00000002            3916+SSSAAOLD EQU   B'10'                    DATA SET DISPOSITION IS OLD     01-IEFSSSA 
                                             3917+******************************************************************3@PCA            
                                             3918+*      MISCELLANEOUS LENGTH CONSTANTS                                 *            
                                             3919+***********************************************************************            
                         00000098            3920+SSSABLEN EQU   152                      Length of SSSAB w/o new        X01-IEFSSSA 
                                                 +                                        32 name portion            @LHC            
                         00000218            3921+SSSABLNT EQU   536                      Total length of SSSAB      @LHA 01-IEFSSSA 
                         00000090            3922+SSSACLEN EQU   144                      Length of SSSAC w/o new        X01-IEFSSSA 
                                                 +                                        32 name portion            @LHC            
                         00000114            3923+SSSADLEN EQU   276                      LEN OF SSSAD                    01-IEFSSSA 
                         000001B3            3924+SSSAELEN EQU   435                      LEN OF SSSAE                    01-IEFSSSA 
                         0000003D            3925+SSSAFLEN EQU   61                       LEN OF SSSAF                    01-IEFSSSA 
                         00000031            3926+SSSAGLEN EQU   49                       LEN OF SSSAG                    01-IEFSSSA 
                         00000053            3927+SSSAHLEN EQU   83                       LEN OF SSSAH                    01-IEFSSSA 
                         00000024            3928+SSSAILEN EQU   36                       LEN OF SSSAI                    01-IEFSSSA 
                                             3929+*SSSAJLEN EQU   320                     LEN OF SSSAJ               @15C            
                                             3930+******************************************************************3@L7A            
                                             3931+*      SMS Tape Volume Record Update SSI Constants                    *            
                                             3932+***********************************************************************            
                         000000D7            3933+SSSAJPRI EQU   C'P'                     Vol use attribute=PRIVATE  @L7A 01-IEFSSSA 
                         000000E2            3934+SSSAJSCR EQU   C'S'                     Vol use attribute=SCRATCH  @L7A 01-IEFSSSA 
 000011D0 E2E2E2C1D1C9                       3935+SSSAJINH DC    CL6'SSSAJI'              SSSAJ input begins         @PCA 01-IEFSSSA 
 000011D6 E2E2E2C1D1D6                       3936+SSSAJOUH DC    CL6'SSSAJO'              SSSAJ output begins        @PCA 01-IEFSSSA 
 000011DC E2E2E2C1D1D4                       3937+SSSAJMGH DC    CL6'SSSAJM'              SSSAJ LOGREC info begin    @L2A 01-IEFSSSA 
 000011E2 E2E2E2C1D1D6F240                   3938+SSSAJO2H DC    CL8'SSSAJO2 '            SSSAJ output2 begins       @LZA 01-IEFSSSA 
 000011EA D3                                 3939+SSSAJCDL DC    CL1'L'                   Encoding Mechanism L       @LZA 01-IEFSSSA 
 000011EB C8                                 3940+SSSAJCDH DC    CL1'H'                   Encoding Mechanism H       @LZA 01-IEFSSSA 
                         00000001            3941+SSSAJUPD EQU   1                        request update only        @PCA 01-IEFSSSA 
                         00000002            3942+SSSAJRAU EQU   2                        request retrieve & update  @PCA 01-IEFSSSA 
                         00000003            3943+SSSAJLOG EQU   3                        request LOGREC function    @L2A 01-IEFSSSA 
                         00000004            3944+SSSAJDSG EQU   4                        request derive SG function @LQA 01-IEFSSSA 
                         00000005            3945+SSSAJDCD EQU   5                        request derive DC field    @15A 01-IEFSSSA 
                         00000001            3946+SSSAJGEN EQU   1                        SSSAJGEN=Type GENERAL      @LQA 01-IEFSSSA 
                         00000001            3947+SSSAJMD1 EQU   1                        = DCDMEDA1                 @LVA 01-IEFSSSA 
                         00000002            3948+SSSAJMD2 EQU   2                        = DCDMEDA2                 @LVA 01-IEFSSSA 
                         00000003            3949+SSSAJMD3 EQU   3                        = DCDMEDA3                 @LVA 01-IEFSSSA 
                         00000004            3950+SSSAJMD4 EQU   4                        = DCDMEDA4                 @LVA 01-IEFSSSA 
1QUERYSMS REXX FUNCTION - QUERY SMS                                                                             Page   91            
   Active Usings: ARGTABLE_ENTRY,R8  EVALBLOCK,R9  EFPL,R10  ENVBLOCK,R11  QUERYSMS,R12  DATA,R13                                    
0D-Loc    Object Code      Addr1    Addr2    Stmt  Source Statement                          HLASM R6.0  2012/02/10 10.07            
0                        00000005            3951+SSSAJMD5 EQU   5                        = DCDMEDA5                 @LVA 01-IEFSSSA 
                         00000006            3952+SSSAJMD6 EQU   6                        = DCDMEDA6                 @LVA 01-IEFSSSA 
                         00000007            3953+SSSAJMD7 EQU   7                        = DCDMEDA7                 @LVA 01-IEFSSSA 
                         00000008            3954+SSSAJMD8 EQU   8                        = DCDMEDA8                 @LVA 01-IEFSSSA 
                                             3955+*                                                                                  
                                             3956          CVT DSECT=YES                 CVT                                         
                                             3957+*%CVTL1 : ;                                                                        
                                             3958+*                                                                                  
                                             3959+*/* START OF SPECIFICATIONS ******************************************/            
                                             3960+*/*01* PROPRIETARY_STATEMENT******************************************/            
                                             3961+*/*                                                                  */            
                                             3962+*/*                                                                  */            
                                             3963+*/* LICENSED MATERIALS - PROPERTY OF IBM                             */            
                                             3964+*/* 5694-A01 COPYRIGHT IBM CORP. 1988, 2010                          */            
                                             3965+*/*                                                                  */            
                                             3966+*/* STATUS= HBB7770                                                  */            
                                             3967+*/*                                                                  */            
                                             3968+*/***END_OF_PROPRIETARY_STATEMENT*************************************/            
                                             3969+*/*                                                                  */            
                                             3970+*/*01* EXTERNAL CLASSIFICATION:                                      */            
                                             3971+*/*02*         DMTI:BASE                                             */            
                                             3972+*/*02*         GUPI: FIELDS                                          */            
                                             3973+*/*                  CVTABEND                                        */            
                                             3974+*/*                  CVTBRET                                         */            
                                             3975+*/*                  CVTCSD                                          */            
                                             3976+*/*                  CVTCTLFG                                        */            
                                             3977+*/*                  CVTDCB                                          */            
                                             3978+*/*                  CVTDCPA                                         */            
                                             3979+*/*                  CVTDFA                                          */            
                                             3980+*/*                  CVTECVT                                         */            
                                             3981+*/*                  CVTEXP1                                         */            
                                             3982+*/*                  CVTFLAG2                                        */            
                                             3983+*/*                  CVTFLAG3                                        */            
                                             3984+*/*                  CVTFLGBT                                        */            
                                             3985+*/*                  CVTIXAVL                                        */            
                                             3986+*/*                  CVTJESCT                                        */            
                                             3987+*/*                  CVTLCCAT                                    @NGA*/            
                                             3988+*/*                  CVTLDTO                                         */            
                                             3989+*/*                  CVTLSO                                          */            
                                             3990+*/*                  CVTMAXMP                                        */            
                                             3991+*/*                  CVTMDL                                          */            
                                             3992+*/*                  CVTOPCTP                                        */            
                                             3993+*/*                  CVTOSLVL                                        */            
                                             3994+*/*                  CVTOVER                                         */            
                                             3995+*/*                  CVTPCCAT                                        */            
                                             3996+*/*                  CVTPCNVT                                        */            
                                             3997+*/*                  CVTPRLTV                                        */            
                                             3998+*/*                  CVTPROD                                         */            
                                             3999+*/*                  CVTPSXM                                         */            
                                             4000+*/*                  CVTQTD00                                        */            
                                             4001+*/*                  CVTQTE00                                        */            
                                             4002+*/*                  CVTRAC                                          */            
                                             4003+*/*                  CVTRCZRT                                        */            
                                             4004+*/*                  CVTRELNO                                        */            
                                             4005+*/*                  CVTRTMCT                                    @N1A*/            
1QUERYSMS REXX FUNCTION - QUERY SMS                                                                             Page   92            
   Active Usings: ARGTABLE_ENTRY,R8  EVALBLOCK,R9  EFPL,R10  ENVBLOCK,R11  QUERYSMS,R12  DATA,R13                                    
0D-Loc    Object Code      Addr1    Addr2    Stmt  Source Statement                          HLASM R6.0  2012/02/10 10.07            
0                                            4006+*/*                  CVTSCPIN                                        */            
                                             4007+*/*                  CVTSDBF                                         */            
                                             4008+*/*                  CVTSMCA                                         */            
                                             4009+*/*                  CVTSNAME                                        */            
                                             4010+*/*                  CVTSUBSP                                        */            
                                             4011+*/*                  CVTSVT                                          */            
                                             4012+*/*                  CVTTPC                                          */            
                                             4013+*/*                  CVTTVT                                          */            
                                             4014+*/*                  CVTTZ                                       @Q6A*/            
                                             4015+*/*                  CVTUCBSC                                        */            
                                             4016+*/*                  CVTUNDVM                                        */            
                                             4017+*/*                  CVTUSER                                         */            
                                             4018+*/*                  CVTVFGET                                        */            
                                             4019+*/*                  CVTVFIND                                        */            
                                             4020+*/*                  CVTVPSIB                                        */            
                                             4021+*/*                  CVTVWAIT                                        */            
                                             4022+*/*                  CVT0EF00                                        */            
                                             4023+*/*                  CVT0PT0E                                        */            
                                             4024+*/*                  CVT0PT02                                        */            
                                             4025+*/*                  CVT0PT03                                        */            
                                             4026+*/*                  CVT0SCR1                                        */            
                                             4027+*/*02*         PSPI:FIELDS                                           */            
                                             4028+*/*                  CVTAMFF                                         */            
                                             4029+*/*                  CVTASVT                                         */            
                                             4030+*/*                  CVTGDA                                          */            
                                             4031+*/*                  CVTGRSST                                        */            
                                             4032+*/*                  CVTGVT                                          */            
                                             4033+*/*                  CVTHID                                          */            
                                             4034+*/*                  CVTLINK                                     @M9A*/            
                                             4035+*/*                  CVTRCEP                                         */            
                                             4036+*/*                  CVTSAF                                          */            
                                             4037+*/*                  CVTSDUMP                                        */            
                                             4038+*/*                  CVTVERID                                        */            
                                             4039+*/*01* END OF EXTERNAL CLASSIFICATION:                               */            
                                             4040+*/*                                                                  */            
                                             4041+*/*01* DESCRIPTIVE NAME:  Communications Vector Table                */            
                                             4042+*/*02*  ACRONYM:  CVT                                                */            
                                             4043+*/*                                                                  */            
                                             4044+*/*01* MACRO-NAME:  CVT                                              */            
                                             4045+*/*                                                                  */            
                                             4046+*/*01* DSECT NAME:                                                   */            
                                             4047+*/*02*  CVT(when DSECT=YES is coded and PREFIX=YES is not coded)     */            
                                             4048+*/*02*  CVTFIX(when DSECT=YES and PREFIX=YES is coded)               */            
                                             4049+*/*02*  CVTMAP(or name user coded in label field of CVT invocation)  */            
                                             4050+*/*02*  CVTVSTGX(DSECT name of virtual storage extension)            */            
                                             4051+*/*02*  CVTXTNT1(DSECT name of OS-OS/VS common extension)            */            
                                             4052+*/*02*  CVTXTNT2(DSECT name of OS/VS1-OS/VS2 common extension)       */            
                                             4053+*/*                                                                  */            
                                             4054+*/*                                                                  */            
                                             4055+*/*01* COMPONENT:  Common Macros (SC101)                             */            
                                             4056+*/*                                                                  */            
                                             4057+*/*01* EYE-CATCHER:  CVT                                             */            
                                             4058+*/*02*  OFFSET:  96                                                  */            
                                             4059+*/*02*  LENGTH:  4                                                   */            
                                             4060+*/*                                                                  */            
1QUERYSMS REXX FUNCTION - QUERY SMS                                                                             Page   93            
   Active Usings: ARGTABLE_ENTRY,R8  EVALBLOCK,R9  EFPL,R10  ENVBLOCK,R11  QUERYSMS,R12  DATA,R13                                    
0D-Loc    Object Code      Addr1    Addr2    Stmt  Source Statement                          HLASM R6.0  2012/02/10 10.07            
0                                            4061+*/*01* STORAGE ATTRIBUTES:                                           */            
                                             4062+*/*                                                                  */            
                                             4063+*/*02*   ALLOCATION METHOD:  N/A.                                    */            
                                             4064+*/*02*   SUBPOOL:            Nucleus                                 */            
                                             4065+*/*02*   KEY:                0                                       */            
                                             4066+*/*02*   RESIDENCY:          Below 16M line                          */            
                                             4067+*/*02*   FREQUENCY:          1 per system.                           */            
                                             4068+*/*                                                                  */            
                                             4069+*/*01* SIZE:                                                         */            
                                             4070+*/*     Prefix: 256 bytes                                            */            
                                             4071+*/*     CVT: 1280 bytes                                              */            
                                             4072+*/*     Virtual storage address extension: 80 bytes                  */            
                                             4073+*/*     OS - OS/VS common extension: 12 bytes                        */            
                                             4074+*/*     OS/VS1 - OS/VS2 common extension: 132 bytes                  */            
                                             4075+*/*                                                                  */            
                                             4076+*/*01* CREATED BY:                                                   */            
                                             4077+*/*     IEAVCVT                                                      */            
                                             4078+*/*                                                                  */            
                                             4079+*/*01* DELETED BY: N/A.                                              */            
                                             4080+*/*                                                                  */            
                                             4081+*/*01* POINTED TO BY:                                                */            
                                             4082+*/*     FLCCVT field of the PSA data area (location X'10')           */            
                                             4083+*/*     FLCCVT2 field of the PSA data area                           */            
                                             4084+*/*     CVTSMEXT points to the Virtual address storage extension     */            
                                             4085+*/*     OS/VS - OS/VS extention is pointed to by CVTEXT1             */            
                                             4086+*/*     OS/VS1 - OS/VS2 extention is pointed to by CVTEXT2           */            
                                             4087+*/*                                                                  */            
                                             4088+*/*01* SERIALIZATION:                                                */            
                                             4089+*/*     Based on the individual fields being referenced.             */            
                                             4090+*/*                                                                  */            
                                             4091+*/*01* FUNCTION:                                                     */            
                                             4092+*/*02*  The CVT provides the means by which non-nucleus-resident     */            
                                             4093+*/*     routines may refer to information in the nucleus of the      */            
                                             4094+*/*     control program.  It contains addresses of other control     */            
                                             4095+*/*     blocks and tables used by the control program routines.      */            
                                             4096+*/*                                                                  */            
                                             4097+*/*01* METHOD OF ACCESS:                                             */            
                                             4098+*/*                                                                  */            
                                             4099+*/*02*  ASM:                                                         */            
                                             4100+*/*      DSECT=YES should be specified on macro call except          */            
                                             4101+*/*      when called by IEAVCVT to create CSECT.                     */            
                                             4102+*/*                                                                  */            
                                             4103+*/*      CVT for OS/VS2 is always mapped.                            */            
                                             4104+*/*                                                                  */            
                                             4105+*/*      The PREFIX is not mapped unless PREFIX=YES is specified.    */            
                                             4106+*/*                                                                  */            
                                             4107+*/*      A USING on CVTMAP or DSECT name will establish              */            
                                             4108+*/*      addressability for all symbols except in the 2 extentions.  */            
                                             4109+*/*                                                                  */            
                                             4110+*/*      To establish addressability for the                         */            
                                             4111+*/*      OS - OS/VS common extension, you should code:               */            
                                             4112+*/*                                                                  */            
                                             4113+*/*          L     REG,CVTEXT1                                       */            
                                             4114+*/*          USING CVTXTNT1,REG                                      */            
                                             4115+*/*                                                                  */            
1QUERYSMS REXX FUNCTION - QUERY SMS                                                                             Page   94            
   Active Usings: ARGTABLE_ENTRY,R8  EVALBLOCK,R9  EFPL,R10  ENVBLOCK,R11  QUERYSMS,R12  DATA,R13                                    
0D-Loc    Object Code      Addr1    Addr2    Stmt  Source Statement                          HLASM R6.0  2012/02/10 10.07            
0                                            4116+*/*      To establish addressability for the OS/VS2                  */            
                                             4117+*/*      common extension, you should code:                          */            
                                             4118+*/*                                                                  */            
                                             4119+*/*          L     REG,CVTEXT2                                       */            
                                             4120+*/*          USING CVTXTNT2,REG                                      */            
                                             4121+*/*                                                                  */            
                                             4122+*/*      Where REG in either case is any register other than zero.   */            
                                             4123+*/*                                                                  */            
                                             4124+*/*      When LISTING is suppressed, you can determine which         */            
                                             4125+*/*      DSECT a symbol is in by using the statement number          */            
                                             4126+*/*      in the DEFN column in the Cross Reference Listing.          */            
                                             4127+*/*      For example, any symbol defined between the                 */            
                                             4128+*/*      statement numbers for CVTXTNT1 and CVTXTNT2 is in           */            
                                             4129+*/*      the OS - OS/VS common extension.                            */            
                                             4130+*/*                                                                  */            
                                             4131+*/*      Specify LIST=YES on macro call to obtain a listing.         */            
                                             4132+*/*                                                                  */            
                                             4133+*/*02*  PL/AS:                                                       */            
                                             4134+*/*                                                                  */            
                                             4135+*/*      DCL CVTPTR PTR.                                             */            
                                             4136+*/*                                                                  */            
                                             4137+*/*      Specify %IHALIST='YES' before %INCLUDE to obtain            */            
                                             4138+*/*      the PL/AS listing.                                          */            
                                             4139+*/*                                                                  */            
                                             4140+*/*      For integration, a listing must not be requested unless     */            
                                             4141+*/*      your module creates the CSECT.                              */            
                                             4142+*/*                                                                  */            
                                             4143+*/*01* DISTRIBUTION LIBRARY:  AMACLIB                                */            
                                             4144+*/*                                                                  */            
                                             4145+*/*01* CHANGE ACTIVITY:                                              */            
                                             4146+*/*  $LS=PR313    JBB3313  891128  PD16EI:  SHOWHDR format complete  */            
                                             4147+*/*                                                                  */            
                                             4148+*/* END OF SPECIFICATIONS ********************************************/            
                                             4149+*                                                                                  
                                             4150+*%GOTO CVTL2;   /*                                                                 
                                             4151+         PUSH  PRINT                                                    01-CVT     
                                             4152+         PRINT OFF                                                      01-CVT     
                                             5386+         POP   PRINT                                                    01-CVT     
                                             5387          IEFJESCT                      JESCT                                       
                                             5388+*                                                                                  
                                             5389+*/* Start of Specifications ******************************************/            
                                             5390+*/*                                                                  */            
                                             5391+*/*01* MACRO NAME = IEFJESCT                                     @H1C*/            
                                             5392+*/*                                                                  */            
                                             5393+*/*    ACRONYM: JESCT                                            @P3A*/            
                                             5394+*/*                                                                  */            
                                             5395+*/*01* DESCRIPTIVE NAME = Job Entry Subsystem Communication Table    */            
                                             5396+*/*                                                                  */            
                                             5397+*/*01* PROPRIETARY STATEMENT=                                        */            
                                             5398+*/***PROPRIETARY_STATEMENT********************************************/            
                                             5399+*/*                                                                  */            
                                             5400+*/*                                                                  */            
                                             5401+*/* LICENSED MATERIALS - PROPERTY OF IBM                             */            
                                             5402+*/* 5694-A01 COPYRIGHT IBM CORP. 1988, 2010                          */            
                                             5403+*/*                                                                  */            
1QUERYSMS REXX FUNCTION - QUERY SMS                                                                             Page   95            
   Active Usings: ARGTABLE_ENTRY,R8  EVALBLOCK,R9  EFPL,R10  ENVBLOCK,R11  QUERYSMS,R12  DATA,R13                                    
0D-Loc    Object Code      Addr1    Addr2    Stmt  Source Statement                          HLASM R6.0  2012/02/10 10.07            
0                                            5404+*/* STATUS= HBB7770                                                  */            
                                             5405+*/*                                                                  */            
                                             5406+*/***END_OF_PROPRIETARY_STATEMENT*************************************/            
                                             5407+*/*                                                              @02C*/            
                                             5408+*/*01* FUNCTION =                                                @H1A*/            
                                             5409+*/*                                                                  */            
                                             5410+*/*      This macro provides the mapping for the JESCT and its   @H1A*/            
                                             5411+*/*      pageable extension.  Its purpose is to provide a        @H1A*/            
                                             5412+*/*      combination of information and a vector table for the       */            
                                             5413+*/*      subsystem interface or scheduler service related            */            
                                             5414+*/*      functions.                                                  */            
                                             5415+*/*                                                                  */            
                                             5416+*/*01* EXTERNAL CLASSIFICATION:                                      */            
                                             5417+*/*02* NOTPI: BASE                                               @02C*/            
                                             5418+*/*02* PI: FIELDS                                                @02C*/            
                                             5419+*/*                    JES3OUTD   JESFRQEX                       @01C*/            
                                             5420+*/*                    JESDEFST   JESBR14L JESBR14N JESTLIBE     @02A*/            
                                             5421+*/*                    JESTLIBD   JESVUFL  JESVUTRK JESVUMTR     @02A*/            
                                             5422+*/*                    JESTDSFU   JESTDSFI JESDSEME JESDSEMD     @02A*/            
                                             5423+*/*01* END OF EXTERNAL CLASSIFICATION                                */            
                                             5424+*/*                                                                  */            
                                             5425+*/*01* NOTES =                                                   @L8A*/            
                                             5426+*/*        Bilingual mapping macro (PL/AS and BAL)               @L8A*/            
                                             5427+*/*        External variable IEFJESCT defined, set and           @D7A*/            
                                             5428+*/*        deactivated.                                          @D7A*/            
                                             5429+*/*        JES module HASPFMT0 references some of the fields in  @P5A*/            
                                             5430+*/*        the JESCT by name. Fields should not be removed from  @P5A*/            
                                             5431+*/*        the JESCT until that part is no longer available to   @P5A*/            
                                             5432+*/*        our customers.                                        @P5A*/            
                                             5433+*/*                                                              @L8A*/            
                                             5434+*/*      DEPENDENCIES =                                          @L8A*/            
                                             5435+*/*        Any changes to this base section of this macro should @L8A*/            
                                             5436+*/*        be reflected in the IPCS model IEFMJSCT.              @L8A*/            
                                             5437+*/*        Any changes to this pageable extension of this macro  @L8A*/            
                                             5438+*/*        should be reflected in the IPCS model IEFMJSXT.       @L8A*/            
                                             5439+*/*                                                              @L8A*/            
                                             5440+*/*      RESTRICTIONS = None                                     @L8A*/            
                                             5441+*/*                                                              @L8A*/            
                                             5442+*/*01* METHOD OF ACCESS                                      @G385P2N*/            
                                             5443+*/*              BAL - IEFJESCT TYPE=DSECT,MNTBL=YES         @ZMC1528*/            
                                             5444+*/*                                  DC          NO          @ZMC1528*/            
                                             5445+*/*                                                          @G385P2N*/            
                                             5446+*/*                    TYPE = DSECT IS THE DEFAULT           @G385P2N*/            
                                             5447+*/*                                                                  */            
                                             5448+*/*                    MNTBL = YES - PRODUCE JESMNTBL DSECT  @ZMC1528*/            
                                             5449+*/*                    MNTBL = NO (DEFAULT) - DO NOT PRODUCE @ZMC1528*/            
                                             5450+*/*                                           JESMNTBL DSECT @ZMC1528*/            
                                             5451+*/*                                                                  */            
                                             5452+*/*                                                                  */            
                                             5453+*/*              PL/S - %DCL JESCTEP CHAR                        @L7A*/            
                                             5454+*/*                     %JESCTEP = YES or NO                     @L7A*/            
                                             5455+*/*                     %INCLUDE SYSLIB(IEFJESCT)            @G385P2N*/            
                                             5456+*/*                                                          @G385P2N*/            
                                             5457+*/*                     JESCT is based on CVTJESCT           @G385P2N*/            
                                             5458+*/*                                                                  */            
1QUERYSMS REXX FUNCTION - QUERY SMS                                                                             Page   96            
   Active Usings: ARGTABLE_ENTRY,R8  EVALBLOCK,R9  EFPL,R10  ENVBLOCK,R11  QUERYSMS,R12  DATA,R13                                    
0D-Loc    Object Code      Addr1    Addr2    Stmt  Source Statement                          HLASM R6.0  2012/02/10 10.07            
0                                            5459+*/*                     Setting the macro variable JESCTEP to        */            
                                             5460+*/*                     'NO' will bypass the entry linkage           */            
                                             5461+*/*                     declares.  The default is YES.  If the       */            
                                             5462+*/*                     entry linkage declares are bypassed,         */            
                                             5463+*/*                     it becomes the programmers responsibility    */            
                                             5464+*/*                     to declare them.  See the note below.        */            
                                             5465+*/*                                                                  */            
                                             5466+*/*01* DSECT NAME = JESCT, JESPEXT                               @P3A*/            
                                             5467+*/*                                                                  */            
                                             5468+*/*01* EYE-CATCHER:                                                  */            
                                             5469+*/*         - JESCT:  JEST                                       @P4C*/            
                                             5470+*/*         - JESPEXT:  JESPEXT                                  @P4A*/            
                                             5471+*/*02* OFFSET:                                                       */            
                                             5472+*/*         - JESCT:  0                                          @P4C*/            
                                             5473+*/*         - JESPEXT:  0                                        @P4A*/            
                                             5474+*/*02* LENGTH:                                                       */            
                                             5475+*/*         - JESCT:  4                                          @P4C*/            
                                             5476+*/*         - JESPEXT:  7                                        @P4A*/            
                                             5477+*/*                                                                  */            
                                             5478+*/*01* POINTED TO BY:                                            @P4C*/            
                                             5479+*/*                                                              @P4A*/            
                                             5480+*/*       - JESCT:  CVTJESCT field in the CVT                    @P4C*/            
                                             5481+*/*                                                                  */            
                                             5482+*/*       - JESPEXT:  JESCTEXT field in the JESCT                @P4A*/            
                                             5483+*/*                                                                  */            
                                             5484+*/*01* CREATED BY:                                                   */            
                                             5485+*/*                                                                  */            
                                             5486+*/*       - JESCT:                                               @P4A*/            
                                             5487+*/*         IEFJESDM, the data only module just for the base         */            
                                             5488+*/*                   portion of the JESCT which resides in the      */            
                                             5489+*/*                   nucleus.                                       */            
                                             5490+*/*                                                                  */            
                                             5491+*/*       - JESPEXT:                                             @P4A*/            
                                             5492+*/*         IEFJSINT, a Subsystem Interface initialization           */            
                                             5493+*/*                   module which acquires the storage for the      */            
                                             5494+*/*                   pageable extension.                            */            
                                             5495+*/*                                                                  */            
                                             5496+*/*01* DELETED BY:                                                   */            
                                             5497+*/*                                                                  */            
                                             5498+*/*        N/A                                                       */            
                                             5499+*/*                                                                  */            
                                             5500+*/*01* STORAGE ATTRIBUTES                                            */            
                                             5501+*/*                                                                  */            
                                             5502+*/*       - JESCT is the nucleus portion                         @P4A*/            
                                             5503+*/*                                                                  */            
                                             5504+*/*       - JESPEXT is a pageable extension                      @P4A*/            
                                             5505+*/*                                                                  */            
                                             5506+*/*02*   ALLOCATION METHOD:                                          */            
                                             5507+*/*       - JESCT:                                               @P4A*/            
                                             5508+*/*         contained in the data only nucleus module IEFJESDM   @P4C*/            
                                             5509+*/*                                                                  */            
                                             5510+*/*       - JESPEXT:                                             @P4A*/            
                                             5511+*/*         the pageable extension is obtained via GETMAIN       @P4C*/            
                                             5512+*/*                                                                  */            
                                             5513+*/*02*   SUBPOOL:                                                    */            
1QUERYSMS REXX FUNCTION - QUERY SMS                                                                             Page   97            
   Active Usings: ARGTABLE_ENTRY,R8  EVALBLOCK,R9  EFPL,R10  ENVBLOCK,R11  QUERYSMS,R12  DATA,R13                                    
0D-Loc    Object Code      Addr1    Addr2    Stmt  Source Statement                          HLASM R6.0  2012/02/10 10.07            
0                                            5514+*/*       - JESCT:  nucleus                                      @P4C*/            
                                             5515+*/*       - JESPEXT:  241 (common)                               @P4A*/            
                                             5516+*/*02*   KEY:                                                        */            
                                             5517+*/*       - JESCT:  0                                            @P4C*/            
                                             5518+*/*       - JESPEXT:  0                                          @P4A*/            
                                             5519+*/*02*   RESIDENCY:                                                  */            
                                             5520+*/*       - JESCT:  below                                        @P4C*/            
                                             5521+*/*       - JESPEXT:  below                                      @P4A*/            
                                             5522+*/*02*   SIZE:                                                       */            
                                             5523+*/*       - JESCT:  128 bytes                                    @P4C*/            
                                             5524+*/*       - JESPEXT:  152 bytes                                  @LDC*/            
                                             5525+*/*02*   FREQUENCY:                                                  */            
                                             5526+*/*       - JESCT:  1 per MVS image                              @P4C*/            
                                             5527+*/*       - JESPEXT:  1 per MVS image                            @P4A*/            
                                             5528+*/*                                                                  */            
                                             5529+*/*                                                                  */            
                                             5530+*/*01* SERIALIZATION:                                                */            
                                             5531+*/*                                                                  */            
                                             5532+*/*      None for the data areas in this macro.  However         @P4C*/            
                                             5533+*/*      individual fields are serialized as mentioned for the       */            
                                             5534+*/*      field or in some cases by services referenced.              */            
                                             5535+*/*                                                                  */            
                                             5536+*/*01* COMPONENT: Initiator/SubSystem Interface (SC1B6)              */            
                                             5537+*/*                                                                  */            
                                             5538+*/*01* DSECT NAME = JESMNTBL                                         */            
                                             5539+*/*                                                                  */            
                                             5540+*/*01* POINTED TO BY:                                                */            
                                             5541+*/*                                                                  */            
                                             5542+*/*        JESMNTP  - Field in the JEST                              */            
                                             5543+*/*                                                                  */            
                                             5544+*/*01* CREATED BY:                                                   */            
                                             5545+*/*                                                                  */            
                                             5546+*/*        IEFAB4I0 - Allocation initialization routine acquires     */            
                                             5547+*/*                   storage for the Mountable device class         */            
                                             5548+*/*                   table.                                         */            
                                             5549+*/*                                                                  */            
                                             5550+*/*01* DELETED BY:                                                   */            
                                             5551+*/*                                                                  */            
                                             5552+*/*        N/A                                                       */            
                                             5553+*/*                                                                  */            
                                             5554+*/*01* STORAGE ATTRIBUTES                                            */            
                                             5555+*/*                                                                  */            
                                             5556+*/*      Mountable device class table                                */            
                                             5557+*/*                                                                  */            
                                             5558+*/*02*   ALLOCATION METHOD: Getmain                                  */            
                                             5559+*/*02*   SUBPOOL:           241 (common)                             */            
                                             5560+*/*02*   KEY:               1                                        */            
                                             5561+*/*02*   RESIDENCY:         Any                                      */            
                                             5562+*/*02*     VIRTUAL:         Above                                    */            
                                             5563+*/*02*   SIZE               4 bytes                                  */            
                                             5564+*/*02*   FREQUENCY:         1 PER MVS Image                          */            
                                             5565+*/*                                                                  */            
                                             5566+*/*01* SERIALIZATION:                                                */            
                                             5567+*/*                                                                  */            
                                             5568+*/*      None for the control blocks in this macro.  However         */            
1QUERYSMS REXX FUNCTION - QUERY SMS                                                                             Page   98            
   Active Usings: ARGTABLE_ENTRY,R8  EVALBLOCK,R9  EFPL,R10  ENVBLOCK,R11  QUERYSMS,R12  DATA,R13                                    
0D-Loc    Object Code      Addr1    Addr2    Stmt  Source Statement                          HLASM R6.0  2012/02/10 10.07            
0                                            5569+*/*      individual fields are serialized as mentioned for the       */            
                                             5570+*/*      field or in some cases by services referenced.              */            
                                             5571+*/*                                                                  */            
                                             5572+*/*01* COMPONENT: Device Allocation (SC1B4)                          */            
                                             5573+*/*                                                                  */            
                                             5574+*/*01* EYE-CATCHER:  None                                            */            
                                             5575+*/*                                                                  */            
                                             5576+*/*01* DISTRIBUTION LIBRARY:                                         */            
                                             5577+*/*                                                                  */            
                                             5578+*/*      AMACLIB                                                     */            
                                             5579+*/*                                                                  */            
                                             5580+*/*01* CHANGE ACTIVITY = Y02668,OZ15019,Z40FPPJ,G29AN2F,             */            
                                             5581+*/*                   G29ANSF,G64QPSJ,G38AP2N,G385P2N,               */            
                                             5582+*/*                   G383P2J,PBB0162,G382P2P,G860P2P,               */            
                                             5583+*/*                   G860PPK,G860P2M,H1,L1,L2,D1,P1,T1,L3           */            
                                             5584+*/*                   D2,L4,R2,D3,L5,D4,D5,T2,L6,D6,L7,L8,L9,LA,     */            
                                             5585+*/*                   P2,D7,T3,LB,D8                             @D8C*/            
                                             5586+*/*The above section of the Change Activity is no longer updated @LCC*/            
                                             5587+*/*                                                                  */            
                                             5588+*/*$H1= EXTJCL  JBB2110 820605 PDC6: SUPPORT OF EXTENDED JCL     @H1A*/            
                                             5589+*/*$L1= OCCF    JBB2110 820605 PD2K: PRIMARY SUBSYSTEM FLAGS     @L1A*/            
                                             5590+*/*$L2= ALLVSCR JBB2110 820605 PDE6: ALLOCATION TO EPLPA         @L2A*/            
                                             5591+*/*$D1= DCR43   JBB2110 820827 PDD7: SUPPORT FOR SJF VSCR        @D1A*/            
                                             5592+*/*$P1= PAB0207 JBB2110 830107 PDFC: ALLOCATION VSCR SUPPORT     @P1A*/            
                                             5593+*/*$T1= OZ81042 JBB2133 840719 PDH2: EARLY AUTHORIZATION         @T1A*/            
                                             5594+*/*$L3= IOGEN   JBB2220 841119 PDN4: SUPPORT FOR IOGEN           @L3A*/            
                                             5595+*/*                                  RESTRUCTURE                 @L3A*/            
                                             5596+*/*$D2= DCR53   JBB2220 841121 PDD7: DCR 53                      @D2A*/            
                                             5597+*/*$L4= GT1635  JBB2220 850211 PDD7: SUPPORT FOR 1635 DD         @L4A*/            
                                             5598+*/*                                  LIMIT                       @L4A*/            
                                             5599+*/*$R2= PA20127 JBB2220 850211 PDN3: SUPPORT FOR PTM PA20127     @R2A*/            
                                             5600+*/*$D3= DCR88   JBB2220 850408 PDD7: SUPPORT FOR DCR 88          @D3A*/            
                                             5601+*/*$L5= SWABOVE JBB2220 850408 PDT4: SWA ABOVE THE LINE          @L5A*/            
                                             5602+*/*$D4= DCR93   JBB2220 850408 PDT4: SMF DISABLED INTERFACE      @D4A*/            
                                             5603+*/*$D5= DCR158  JBB2220 860226 PDR6: SWA ABOVE THE LINE          @D5A*/            
                                             5604+*/*$T2= OY10291 JBB2220 871120 PDR6: UNAUTH SWA MANAGER SUPT     @T2A*/            
                                             5605+*/*$L6= SMSSTG2 JBB2223 860127 PDN4: STOR MGMT SUBSYS STG2 SUPT  @L6A*/            
                                             5606+*/*$D6= DCR16   JBB2223 860811 PDFF: STOR MGMT SUBSYS STG2 SUPT  @D6A*/            
                                             5607+*/*$L7= SERVC   HBB4410 870908 PDT4: Serviceability              @L7A*/            
                                             5608+*/*$L8= EMVS2   HBB4410 880725 PDZ1: Enterprise II - ESI         @L8A*/            
                                             5609+*/*$L9= EMVS2   HBB4410 881220 PDZ1: Enterprise II - SWBTUREQ    @L9A*/            
                                             5610+*/*$LA= EMVS2   HBB4410 881220 PDKK: JCL Enhancements            @LAA*/            
                                             5611+*/*$P2= EMVS2   HBB4410 890126 PDKK: JCL Enhancements            @P2A*/            
                                             5612+*/*$D7= DEO0265 HBB4410 890918 PDCC: Compile error checking      @D7A*/            
                                             5613+*/*$T3= OY20769 HBB3310 891023 PDDW: FSI Trace SPE               @T3A*/            
                                             5614+*/*$T4= OY30874 HBB3310 890213 PDB2: SMS/JES3 ACTIVATION         @T4A*/            
                                             5615+*/*$LB= APPC1   HBB4420 890710 PDB3: DYNAMIC PPT                 @LBA*/            
                                             5616+*/*$D8= DH30153 HBB4420 901026 PDE1: JES3/TSO OUTDES indicator   @D8A*/            
                                             5617+*/*$P3= PKB1795 HBB4430 920617 PDCC: 10X Defect Elimination      @P3A*/            
                                             5618+*/*                                  SHOWHDR format complete     @P3A*/            
                                             5619+*/*$LC= PE2STALL HBB5510 921218 PDXB: Remove JESDB401            @LCA*/            
                                             5620+*/*$P4= PIG1423  HBB5510 930715 PDDZ: SHOWHDR Compliance         @P4A*/            
                                             5621+*/*$P5= PIG2452  HBB5510 930815 PDH1: Replace JESDB401           @P5A*/            
                                             5622+*/*$P6= PIG2436  HBB5510 931104 PDCC: Add JESDSNID               @P6A*/            
                                             5623+*/*$LD= SSIDP    HBB5520 941020 PDBN: Dynamic SSI                @LDA*/            
1QUERYSMS REXX FUNCTION - QUERY SMS                                                                             Page   99            
   Active Usings: ARGTABLE_ENTRY,R8  EVALBLOCK,R9  EFPL,R10  ENVBLOCK,R11  QUERYSMS,R12  DATA,R13                                    
0D-Loc    Object Code      Addr1    Addr2    Stmt  Source Statement                          HLASM R6.0  2012/02/10 10.07            
0                                            5624+*/*$LE= UCBVP    HBB5520 941020 PDEM: Comment updates            @LEA*/            
                                             5625+*/*$01= OW11157  HBB5520 950301 PDBN: SSI function request exit  @01A*/            
                                             5626+*/*$02= OA30784  HBB7760 091130 PDTY: Copy ALLOCxx SYSTEM statement  */            
                                             5627+*/*                                   flags to JESPEXT           @02A*/            
                                             5628+*/*$P7= ME18713  HBB7770 100310 PDCC: PropChk Failure            @P7A*/            
                                             5629+*/*$03= OA32843  HBB7760 100528 PDTA: VERIFY_UNCAT(LOGTRACK)     @03A*/            
                                             5630+*/*                                                                  */            
                                             5631+*/* End of Specifications ********************************************/            
                                             5632+*/* A - 000000 - 999999                                       @Y02668*/            
                                             5633+*/* A - APAR OZ15019 IS SUPPORTED BY @Z40FPPJ                @ZA15019*/            
                                             5634+*/* A - EOT RESOURCE MANAGER ADDR                            @G38AP2N*/            
                                             5635+*/* A - SUBSYSTEM DEFINITION FACILITY SUPPORT                @G385P2N*/            
                                             5636+*/* A - SUPPORT FOR ALLOCATION ADDRESS SPACE                 @G383P2J*/            
                                             5637+*/* D - JESDAECB NOT REQUIRED                                @PBB0162*/            
                                             5638+*/* A - POINTER TO CSA AREA FOR PCDPARMS                     @G382P2P*/            
                                             5639+*/* A - ADD A PAGEABLE EXTENSION TO THE JESCT AND PROVIDE        @H1A*/            
                                             5640+*/*     SUPPORT FOR JCL DEFINITION VECTOR TABLES AND THE         @H1A*/            
                                             5641+*/*     SCHEDULER JCL CONTROL ROUTINE                            @H1A*/            
                                             5642+*/* A - ADDRESS OF JOURNAL WRITE ROUTINE (JESSJRNL)              @H1A*/            
                                             5643+*/* A - ADD DSECT STATEMENT TO END OF ASSEMBLER VERSION          @H1A*/            
                                             5644+*/* A - ADDED PRIMARY SUBSYSTEM FLAG FIELD (JESJESFG)            @L1A*/            
                                             5645+*/* A - UCB POINTER LIST ADDRESS                             @G860P2P*/            
                                             5646+*/* A - JESMNTBL(ARRAY OF MOUNTABLE DEVICE TYPES)            @G860PPK*/            
                                             5647+*/* A - JESUPLER(UPL ERROR INDICATOR)                        @G860P2M*/            
                                             5648+*/* C - PRODUCE JESMNTBL DSECT ONLY IF REQUESTED             @ZMC1528*/            
                                             5649+*/* A - SUPPORT FOR ALLOCATION AND SWA MANAGER TO                @L2A*/            
                                             5650+*/*     EXTENDED STORAGE                                         @L2A*/            
                                             5651+*/* C - JESSJCNL NOW CONTAINS THE ADDRESS OF THE SJF ROUTER      @D1A*/            
                                             5652+*/*     ROUTINE                                                  @D1A*/            
                                             5653+*/* A - NEW FIELD (JESSJF) WHICH CONTAINS THE ADDRESS OF THE SJF @D1A*/            
                                             5654+*/*     CONTROL ROUTINE                                          @D1A*/            
                                             5655+*/* C - CHANGE JESRSV02 TO CONTAIN THE ADDRESS OF IEFAB445 AND   @P1A*/            
                                             5656+*/*     RENAME IT JESAB445 (ALLOCATION DEFAULTS MODULE)          @P1A*/            
                                             5657+*/* C - CHANGE JESRSV01 TO CONTAIN THE ADDRESS OF IEFIB650       @T1A*/            
                                             5658+*/*     (INITIATOR MESSAGE MODULE) AND RENAME IT JESIB650.       @T1A*/            
                                             5659+*/* A - ADDED ALLOCATION READY BIT (JESALRDY), ADDRESS OF THE    @L3A*/            
                                             5660+*/*     PPT TABLE (JESPPT) AND RESTART CODES TABLE (JESRSTRT)    @L3A*/            
                                             5661+*/*     TO THE JESCT                                             @L3A*/            
                                             5662+*/* A - ADDED JESPARSE AND TWO RESERVED FIELDS TO THE JESCT      @D2A*/            
                                             5663+*/* A - ADDED JESTIOTS AND JESMAXDD TO THE JESCT EXTENSION       @L4A*/            
                                             5664+*/* A - ADDED (JESXB603) ADDRESS OF THE RESTART COMPONENT        @R2A*/            
                                             5665+*/*     MESSAGE MODULE IEFXB603 TO THE JESCT                     @R2A*/            
                                             5666+*/* A - CHANGED RESERVED FIELD, JESRSV04, TO JESV2EDT.  THIS     @D3A*/            
                                             5667+*/*     BIT WILL BE SET BY ALLOCATION TO INDICATE VERSION 2 OR   @D3A*/            
                                             5668+*/*     LATER EDT.                                               @D3A*/            
                                             5669+*/* A - ADDED JESPQMST, JESPQDIR, AND TWO RESERVED FIELDS TO THE @L5A*/            
                                             5670+*/*     JESCT EXTENSION. ADDED ENTRY DECLARES FOR MOVE MODE SWA  @L5A*/            
                                             5671+*/*     MANAGER (MSWAMGR), AND SWA MANAGER DIAGNOSTICS ROUTINE   @L5A*/            
                                             5672+*/*     (SWADIR).                                                @L5A*/            
                                             5673+*/* A - ADDED JESGDTOK IN THE JESCT EXTENSION, AND ENTRY DECLARE @D4A*/            
                                             5674+*/*     GETDDTOK                                                 @D4A*/            
                                             5675+*/* A - ADDED JESQBSVA IN THE JESCT EXTENSION                    @D5A*/            
                                             5676+*/* A - ADDED ENTRY DECLARE OF USWAMGR FOR INVOKING THE              */            
                                             5677+*/*     UNAUTHORIZED SWA MANAGER, IEFQBSVA.                      @T2A*/            
                                             5678+*/* A - ADDED JESDACA TO THE JESCT, AND JESSMSIB AND JESMECHK    @L6A*/            
1QUERYSMS REXX FUNCTION - QUERY SMS                                                                             Page  100            
   Active Usings: ARGTABLE_ENTRY,R8  EVALBLOCK,R9  EFPL,R10  ENVBLOCK,R11  QUERYSMS,R12  DATA,R13                                    
0D-Loc    Object Code      Addr1    Addr2    Stmt  Source Statement                          HLASM R6.0  2012/02/10 10.07            
0                                            5679+*/*     TO THE JESCT EXTENSION                                   @L6A*/            
                                             5680+*/* D - DELETED ENTRY STATEMENT FOR IEFMECHK                     @D6A*/            
                                             5681+*/* A - Added declare for JESXBCHK the scheduler checkpoint      @L7A*/            
                                             5682+*/*     SWA blocks routine, enhanced comments in PLS             @L7A*/            
                                             5683+*/* A - Added field definitions for JESSJTCL and three reserved  @L8A*/            
                                             5684+*/*     fullwords at end of the JESCT extension.  Version is 6.  @L8A*/            
                                             5685+*/* A - Changed SWBTU definition to include OPTIONS(AMODE(31,*)) @L9A*/            
                                             5686+*/* A - Added declare for SJFCNL which will allow branching      @LAA*/            
                                             5687+*/*     directly to the SJF control routine in SJFREQ            @LAA*/            
                                             5688+*/* C - Changed SJFCNL entry point from AMODE(31) to AMODE(31,*) @P2A*/            
                                             5689+*/*     to allow for AMODE changes.                              @P2A*/            
                                             5690+*/* A - Added macro variable IEFJESCT to identify to other PLAS  @D7A*/            
                                             5691+*/*     macros that IEFJESCT has been included.                  @D7A*/            
                                             5692+*/* A - Added JESFSIT BIT to JESFLG                              @T3A*/            
                                             5693+*/* A - Added JESFSICB pointer.                                  @T3A*/            
                                             5694+*/* A - Added JESPPTUS, JESPPTSC fields and PPTSCAN entry for    @LBA*/            
                                             5695+*/*     dynamic PPT scan                                         @LBA*/            
                                             5696+*/* A - Added JES3ACTV bit to indicate when JES3 is active       @T4A*/            
                                             5697+*/* A - JES3OUTD bit indicating to TSO that JES3 supports        @D8A*/            
                                             5698+*/*     OUTADD/OUTDEL service                                    @D8A*/            
                                             5699+*/* A - JESDSNNO field to hold final qualifier for Temporary     @P3A*/            
                                             5700+*/*     data set names.                                          @P3A*/            
                                             5701+*/* D - Remove JESDB401 field since dynamic exits support        @LCA*/            
                                             5702+*/*     maintains that address                                   @LCA*/            
                                             5703+*/* A - Put back JESDB401 field since older JES releases format  @P5A*/            
                                             5704+*/*     the JESCT and thus reference (for formatting purposes    @P5A*/            
                                             5705+*/*     only) the JESDB401 field.                                @P5A*/            
                                             5706+*/* A - Add JESDSNID to hold a system unique identifier for      @P6A*/            
                                             5707+*/*     temporary data set names on this system.                 @P6A*/            
                                             5708+*/* A - Added JESSSIVT field containing the SSIVT token.             */            
                                             5709+*/*     Added JESSSIPC and JESVTPC fields containing the PC          */            
                                             5710+*/*     numbers for IEFSSI and IEFSSVT, respectively.                */            
                                             5711+*/*     Added JESMSGT@ containing the SSI message table              */            
                                             5712+*/*     address.                                                 @LDA*/            
                                             5713+*/* C - Updated comments for the JESAB445 field                  @LEA*/            
                                             5714+*/* C - Defined JESFRQEX flag to indicate that the support for       */            
                                             5715+*/*     the SSI function request exit is available.              @01A*/            
                                             5716+*/* A - Added bits in the JESPEXT to reflect the ALLOCxx SYSTEM      */            
                                             5717+*/*     statement settings. Add JESDEFST in JESALLOF to indicate that*/            
                                             5718+*/*     ALLOCxx SYSTEM data is now copied to these JESPEXT bits. @02A*/            
                                             5719+*/* D - Remove obsolete line from copyright                      @P7A*/            
                                             5720+*/* A - Added JESVULTR to reflect the ALLOCxx SYSTEM statement       */            
                                             5721+*/*     setting for VERIFY_UNCAT(LOGTRACK).                      @03A*/            
                                             5722+*/********************************************************************/            
                                             5723+*        %GOTO JESCTBSL;     /*                              @G385P2N              
 00000000                00000000 00000080   5724+JESCT    DSECT                                                          01-IEFJESCT
 00000000 D1C5E2E3                           5725+JESCTID  DC    C'JEST'             ACRONYM: JEST               @G383P2J 01-IEFJESCT
 00000004 00000000                           5726+JESUNITS DC    A(0)                POINTER TO SYSRES UCB       @G389P2N 01-IEFJESCT
 00000008 00000000                           5727+JESWAA   DC    A(0)                ADDRESS OF THE SWA            Y02668 01-IEFJESCT
                                             5728+*                                  MANAGER - LOCATE MODE         Y02668            
 0000000C 00000000                           5729+JESQMGR  DC    A(0)                ADDRESS OF SWA MANAGER        Y02668 01-IEFJESCT
                                             5730+*                                  MOVE MODE                     Y02668            
                                             5731+*                                                                                  
 00000010 00000000                           5732+JESRESQM DC    A(0)                ENTRY POINT USED TO INTERFACE        01-IEFJESCT
                                             5733+*                                  BETWEEN THE QMNGRIO MACRO AND                   
1QUERYSMS REXX FUNCTION - QUERY SMS                                                                             Page  101            
   Active Usings: ARGTABLE_ENTRY,R8  EVALBLOCK,R9  EFPL,R10  ENVBLOCK,R11  QUERYSMS,R12  DATA,R13                                    
0D-Loc    Object Code      Addr1    Addr2    Stmt  Source Statement                          HLASM R6.0  2012/02/10 10.07            
0                                            5734+*                                  THE RESIDENT SWA MNGR         Y02668            
 00000014 00000000                           5735+JESSSREQ DC    A(0)                ADDRESS OF THE IEFSSREQ       Y02668 01-IEFJESCT
                                             5736+*                                  ROUTINE                       Y02668            
 00000018 00000000                           5737+JESSSCT  DC    A(0)                ADDRESS OF THE FIRST          Y02668 01-IEFJESCT
                                             5738+*                                  SUBSYSTEM COMMUNICATIONS      Y02668            
                                             5739+*                                  TABLE                         Y02668            
 0000001C 00000000                           5740+JESPJESN DC    XL4'00'             NAME OF PRIMARY JOB ENTRY     Y02668 01-IEFJESCT
                                             5741+*                                  SUBSYSTEM SET AT SYSGEN       Y02668            
 00000020 00000000                           5742+JESALLOC DC    A(0)                DEVICE ALLOCATION ENTRY     @Z40FPPJ 01-IEFJESCT
                                             5743+*                                  POINT USED BY INITIATOR     @Z40FPPJ            
                                             5744+*                                                              @Z40FPPJ            
 00000024 00000000                           5745+JESUNALC DC    A(0)                DEVICE UNALLOCATION ENTRY   @Z40FPPJ 01-IEFJESCT
                                             5746+*                                  POINT USED BY INITIATOR     @Z40FPPJ            
                                             5747+*                                                              @Z40FPPJ            
 00000028 00000000                           5748+JESCATL  DC    A(0)                DEVICE ALLOCATION PRIVATE   @Z40FPPJ 01-IEFJESCT
                                             5749+*                                  CATALOG ENTRY POINT         @Z40FPPJ            
                                             5750+*                                  USED BY INITIATOR           @Z40FPPJ            
 0000002C 00000000                           5751+JESNUCBS DC    F'0'                NUMBER OF TAPE AND DA UCB'S @G383P2J 01-IEFJESCT
                                             5752+*                                  IN SYSTEM.                  @G383P2J            
                                             5753+*                                  USED BY DEVICE ALLOCATION   @Z40FPPJ            
                                             5754+*                                                              @G29ANSF            
 00000030 00000000                           5755+JESSASTA DC    A(0)                ADDRESS OF SUBSYSTEM        @G29AN2F 01-IEFJESCT
                                             5756+*                                  ALLOCATION SEQUENCE TABLE   @G29AN2F            
 00000034 00000000                           5757+JESEDT   DC    A(0)                Address of Allocation Eligible  @P3C 01-IEFJESCT
                                             5758+*                                  Device Table, valid only during @P3C            
                                             5759+*                                  NIP.                            @P3C            
 00000038 00000000                           5760+JESRECM  DC    A(0)                ADDRESS OF IEFJRECM         @G38AP2N 01-IEFJESCT
                                             5761+*                                  RESOURCE MANAGER            @G38AP2N            
 0000003C 00000000                           5762+JESRECF  DC    A(0)                ADDRESS OF IEFJRECF         @G38AP2N 01-IEFJESCT
                                             5763+*                                  RESOURCE MANAGER            @G38AP2N            
 00000040 00000000                           5764+JESHASH  DC    A(0)                ADDRESS OF SUBSYSTEM        @G385P2N 01-IEFJESCT
                                             5765+*                                  HASH TABLE                  @G385P2N            
 00000044 0000                               5766+JESNRSS  DC    H'0'                TOTAL NUMBER OF SUBSYSTEMS  @G385P2N 01-IEFJESCT
 00000046 00                                 5767+JESFLG   DC    X'00'               FLAG BYTE                   @G385P2N 01-IEFJESCT
                         00000080            5768+JESJSSNT EQU   X'80'               IEFJSSNT EXISTS             @G385P2N 01-IEFJESCT
                         00000040            5769+JESFSIT  EQU   X'40'               FSI Trace installed.            @T3C 01-IEFJESCT
                         00000020            5770+JESFRQEX EQU   X'20'               SSI function request exit           X01-IEFJESCT
                                                 +                                     installed                     @01A            
                         00000010            5771+JESRSV15 EQU   X'10'               RESERVED                    @G385P2N 01-IEFJESCT
                         00000008            5772+JESRSV16 EQU   X'08'               RESERVED                    @G385P2N 01-IEFJESCT
                         00000004            5773+JESRSV17 EQU   X'04'               RESERVED                    @G385P2N 01-IEFJESCT
                         00000002            5774+JESRSV18 EQU   X'02'               RESERVED                    @G385P2N 01-IEFJESCT
                         00000001            5775+JESRSV19 EQU   X'01'               RESERVED                    @G385P2N 01-IEFJESCT
 00000047 00                                 5776+JESJESFG DC    X'00'               PRIMARY SUBSYSTEM FLAGS        @L1C  01-IEFJESCT
                         00000080            5777+JESPSUBA EQU   X'80'               PRIMARY SUBSYSTEM ACTIVE INDICATOR   01-IEFJESCT
                                             5778+*                                                                  @L1A            
                         00000040            5779+JESPSUBI EQU   X'40'               IF JESPSUBA=1 AND THIS BIT =0 THEN   01-IEFJESCT
                                             5780+*                                  MVS CONSOLE ALTERING COMMANDS MAY BE            
                                             5781+*                                  USED BUT JES3 CONSOLE ALTERING                  
                                             5782+*                                  COMMANDS MAY NOT BE USED.   IF                  
                                             5783+*                                  JESPSUBA=1 AND THIS BIT =1 THEN                 
                                             5784+*                                  JES3 CONSOLE ALTERING COMMANDS MAY              
                                             5785+*                                  BE USED IN ADDITION TO MVS CONSOLE              
                                             5786+*                                  ALTERING COMMANDS.  IF JESPSUBA=0               
                                             5787+*                                  THEN ONLY MVS CONSOLE ALTERING                  
1QUERYSMS REXX FUNCTION - QUERY SMS                                                                             Page  102            
   Active Usings: ARGTABLE_ENTRY,R8  EVALBLOCK,R9  EFPL,R10  ENVBLOCK,R11  QUERYSMS,R12  DATA,R13                                    
0D-Loc    Object Code      Addr1    Addr2    Stmt  Source Statement                          HLASM R6.0  2012/02/10 10.07            
0                                            5788+*                                  COMMANDS MAY BE USED.           @L1A            
                         00000020            5789+JES3ACTV EQU   X'20'               JES3 SUBSYSTEM ACTIVE           @T4C 01-IEFJESCT
                         00000010            5790+JES3OUTD EQU   X'10'               JES3 support of OUTADD/OUTDEL        01-IEFJESCT
                                             5791+*                                  MVS services available          @D8C            
                         00000008            5792+JESRSV24 EQU   X'08'               RESERVED                        @L1A 01-IEFJESCT
                         00000004            5793+JESRSV25 EQU   X'04'               RESERVED                        @L1A 01-IEFJESCT
                         00000002            5794+JESRSV26 EQU   X'02'               RESERVED                        @L1A 01-IEFJESCT
                         00000001            5795+JESRSV27 EQU   X'01'               RESERVED                        @L1A 01-IEFJESCT
 00000048 00000000                           5796+JESALLOP DC    A(0)                POINTER TO ALLOCATION DESCRIPTOR     01-IEFJESCT
                                             5797+*                                  BLOCK                       @G383P2J            
 0000004C 0000                               5798+JESALLOA DC    H'0'                ASID OF ALLOCATION ADDRESS SPACE     01-IEFJESCT
                                             5799+*                                                              @G383P2J            
 0000004E 00                                 5800+JESALLOF DC    X'00'               ALLOCATION FUNCTION FLAGS   @G860P2M 01-IEFJESCT
                         00000080            5801+JESUASR  EQU   X'80'               UNIT ALLOCATION STATUS RECORDING IS  01-IEFJESCT
                                             5802+*                                  ACTIVE                      @G383P2J            
                         00000040            5803+JESUASF  EQU   X'40'               UNIT ALLOCATION STATUS RECORDING     01-IEFJESCT
                                             5804+*                                  HAS FAILED                  @G383P2J            
                         00000020            5805+JESUPLER EQU   X'20'               UPL DOES NOT MATCH THE UCBS @G860P2M 01-IEFJESCT
                         00000010            5806+JESALRDY EQU   X'10'               ALLOCATION READY                @L3C 01-IEFJESCT
                         00000008            5807+JESV2EDT EQU   X'08'               EDT VERSION 2 OR LATER INDICATOR     01-IEFJESCT
                                             5808+*                                                                  @D3A            
                         00000004            5809+JESDEFST EQU   X'04'               SET BY IEFAB4I0. WHEN ON, THIS BIT   01-IEFJESCT
                                             5810+*                                  INDICATES THAT ALLOCxx SYSTEM FLAGS             
                                             5811+*                                  ARE COPIED TO THE CORRESPONDING                 
                                             5812+*                                  JESPEXT FLAGS.                 @02C             
                         00000002            5813+JESRSV06 EQU   X'02'               RESERVED                    @G383P2J 01-IEFJESCT
                         00000001            5814+JESRSV07 EQU   X'01'               RESERVED                    @G383P2J 01-IEFJESCT
 0000004F 00                                 5815+JESRSV08 DC    X'00'               RESERVED                    @G383P2J 01-IEFJESCT
 00000050 00000000                           5816+JESPCDP  DC    A(0)                POINTER IN CSA FOR PCDPARMS @G382P2P 01-IEFJESCT
 00000054 00000000                           5817+JESAUCBS DC    F'0'                NUMBER OF ALL UCBS IN THE   @G383P2J 01-IEFJESCT
                                             5818+*                                  SYSTEM                      @G383P2J            
 00000058 00000000                           5819+JESDUECB DC    F'0'                DISPLAY ALLOCATION SDUMP    @G383P2J 01-IEFJESCT
                                             5820+*                                  ECB                         @G383P2J            
 0000005C 00000000                           5821+JESUPLP  DC    A(0)                UCB POINTER LIST ADDRESS    @G860P2P 01-IEFJESCT
 00000060 00000000                           5822+JESMNTP  DC    A(0)                POINTER TO ARRAY OF MOUNT-  @G860PPK 01-IEFJESCT
                                             5823+*                                  ABLE DEVICE TYPES           @G860PPK            
 00000064 00000000                           5824+JESCTEXT DC    A(0)                POINTER TO THE PAGEABLE JESCT        01-IEFJESCT
                                             5825+*                                  EXTENSION                       @H1C            
 00000068 00000000                           5826+JESPPT   DC    A(0)                POINTER TO THE PROGRAM PROPERTIES    01-IEFJESCT
                                             5827+*                                  TABLE                           @L3C            
 0000006C 00000000                           5828+JESRSTRT DC    A(0)                POINTER TO RESTART CODE TABLE   @L3C 01-IEFJESCT
 00000070 00000000                           5829+JESPARSE DC    A(0)                POINTER TO THE PARSER ROUTINE   @D2A 01-IEFJESCT
 00000074 00000000                           5830+JESXB603 DC    A(0)                POINTER TO RESTART COMPONENT    @R2C 01-IEFJESCT
                                             5831+*                                  MESSAGE MODULE (IEFXB603)       @R2A            
 00000078 00000000                           5832+JESDACA  DC    A(0)                POINTER TO THE DEVICE ALLOCATION     01-IEFJESCT
                                             5833+*                                  COMMUNICATION AREA              @L6C            
 0000007C 00000000                           5834+JESRSV28 DC    A(0)                RESERVED FIELD                  @L6A 01-IEFJESCT
                                             5835+*                                                                  @H1A            
                                             5836+***********************************************************************            
                                             5837+*                                                                     *            
                                             5838+*  JESPEXT IS A PAGEABLE EXTENSION OF THE JESCT POINTED TO BY     @H1A*            
                                             5839+*  JESCTEXT                                                       @H1A*            
                                             5840+*                                                                     *            
                                             5841+***********************************************************************            
 00000000                00000000 00000098   5842+JESPEXT  DSECT                                                     @H1A 01-IEFJESCT
1QUERYSMS REXX FUNCTION - QUERY SMS                                                                             Page  103            
   Active Usings: ARGTABLE_ENTRY,R8  EVALBLOCK,R9  EFPL,R10  ENVBLOCK,R11  QUERYSMS,R12  DATA,R13                                    
0D-Loc    Object Code      Addr1    Addr2    Stmt  Source Statement                          HLASM R6.0  2012/02/10 10.07            
000000000                                    5843+         DS    0F                  JESCT EXTENSION                 @H1A 01-IEFJESCT
 00000000                                    5844+JESSID   DS    CL7                 IDENTIFIER 'JESPEXT'            @H1A 01-IEFJESCT
 00000007                                    5845+JESSVERS DS    XL1                 CONTROL BLOCK VERSION NUMBER    @H1A 01-IEFJESCT
 00000008                                    5846+JESSJCNL DS    A(0)                ADDRESS OF SCHEDULER JCL        @H1A 01-IEFJESCT
                                             5847+*                                  FACILITY ROUTER ROUTINE         @D1C            
 0000000C                                    5848+JESSJDVT DS    A(0)                ADDRESS OF JCL DEFINITION       @H1A 01-IEFJESCT
                                             5849+*                                  VECTOR TABLE CHAIN              @H1A            
 00000010                                    5850+JESSJRNL DS    A(0)                ADDRESS OF JOURNAL WRITE RTNE   @H1A 01-IEFJESCT
 00000014                                    5851+JESDB401 DS    A(0)                Unused except for formatter use @P5C 01-IEFJESCT
 00000018                                    5852+JESXVNSL DS    A(0)                IEFXVNSL ENTRY POINT            @L2A 01-IEFJESCT
 0000001C                                    5853+JESGB4DC DS    A(0)                IEFGB4DC ENTRY POINT            @L2A 01-IEFJESCT
 00000020                                    5854+JESGB4UV DS    A(0)                IEFGB4UV ENTRY POINT            @L2A 01-IEFJESCT
 00000024                                    5855+JESAB445 DS    A(0)                Address of the Devcie           @LEC 01-IEFJESCT
                                             5856+*                                  Allocation Defaults Table -     @LEC            
                                             5857+*                                  Initialized by IEFAB4I0         @LEC            
 00000028                                    5858+JESGB400 DS    A(0)                ALLOCATION PUT INTERFACE RTNE.  @L2A 01-IEFJESCT
 0000002C                                    5859+JESQB551 DS    A(0)                IEFQB551 ENTRY POINT            @L2A 01-IEFJESCT
 00000030                                    5860+JESQB556 DS    A(0)                IEFQB556 ENTRY POINT            @L2A 01-IEFJESCT
 00000034                                    5861+JESXBPUT DS    A(0)                JOURNAL PUT/GET INTERFACE RTN   @L2A 01-IEFJESCT
 00000038                                    5862+JESIB650 DS    A(0)                IEFIB650 ENTRY POINT (MSG MOD)  @T1C 01-IEFJESCT
 0000003C                                    5863+JESSJF   DS    A(0)                ADDRESS OF SCHEDULER JCL        @D1A 01-IEFJESCT
                                             5864+*                                  FACILITY ROUTINE                @D1A            
 00000040                                    5865+JESTIOTS DS    F                   SIZE OF THE TASK I/O TABLE TIOT @L4A 01-IEFJESCT
 00000044                                    5866+JESMAXDD DS    F                   MAXIMUM NUMBER OF SINGLE UNIT   @L4A 01-IEFJESCT
                                             5867+*                                  DD'S ALLOWED FOR A JOB STEP     @L4A            
 00000048                                    5868+JESPQMST DS    A(0)                ADDRESS OF THE SWA MANAGER      @L5A 01-IEFJESCT
                                             5869+*                                  STORAGE TABLE (QMST)            @L5A            
 0000004C                                    5870+JESPQDIR DS    A(0)                ADDRESS OF THE SWA MANAGER      @L5A 01-IEFJESCT
                                             5871+*                                  DIAGNOSTICS ROUTINE             @L5A            
 00000050                                    5872+JESGDTOK DS    A(0)                ADDRESS OF THE ALLOCATION GET   @D4A 01-IEFJESCT
                                             5873+*                                  DD TOKEN SERVICE                @D4A            
 00000054                                    5874+JESSMSIB DS    A(0)                POINTER TO THE STORAGE MANAGEMENT    01-IEFJESCT
                                             5875+*                                  SUBSYSTEM SSIB                  @L6C            
 00000058                                    5876+JESQBSVA DS    A(0)                ADDRESS OF SWA MANAGER ROUTINE  @D5C 01-IEFJESCT
                                             5877+*                                  SUPPORTING UNAUTHORIZED, TASK   @D5C            
                                             5878+*                                  AND CROSS MEMORY MODE CALLERS   @D5C            
 0000005C                                    5879+JESMECHK DS    A(0)                ADDRESS OF THE MUTUAL EXCLUSIVITY    01-IEFJESCT
                                             5880+*                                  CHECKER ROUTINE                 @L6C            
 00000060                                    5881+JESXBCHK DS    A(0)                Address of the scheduler checkpoint X01-IEFJESCT
                                                 +                                   SWA blocks routine, used by DFP     X           
                                                 +                                   during checkpoint processing        X           
                                                 +                                   - Initialized by IEFQBINT at master X           
                                                 +                                   scheduler base initialization   @L7C            
 00000064                                    5882+JESFSICB DS    A(0)                Address of FSI trace Control         01-IEFJESCT
                                             5883+*                                  Block                           @T3C            
 00000068                                    5884+JESSJTCL DS    A(0)                Address of the SWBTU processor  @L8A 01-IEFJESCT
                                             5885+*                                  control routine IEFSJTCL:       @L8A            
                                             5886+*                                  -initialized by IEFSJLOD during @L8A            
                                             5887+*                                   master scheduler base initial. @L8A            
                                             5888+*                                  -Normally referenced through    @L8A            
                                             5889+*                                   the SWBTUREQ macro             @L8A            
 0000006C                                    5890+JESPPTUS DS    F                   PPT table concurrent use count  @LBC 01-IEFJESCT
                                             5891+*                                  -Normally referenced through    @LBA            
                                             5892+*                                   the IEFPPSCN macro             @LBA            
 00000070                                    5893+JESPPTSC DS    A(0)                PPT scan routine IEFPPTSC:      @LBC 01-IEFJESCT
1QUERYSMS REXX FUNCTION - QUERY SMS                                                                             Page  104            
   Active Usings: ARGTABLE_ENTRY,R8  EVALBLOCK,R9  EFPL,R10  ENVBLOCK,R11  QUERYSMS,R12  DATA,R13                                    
0D-Loc    Object Code      Addr1    Addr2    Stmt  Source Statement                          HLASM R6.0  2012/02/10 10.07            
0                                            5894+*                                  -initialized by IEFSJINT during @LBA            
                                             5895+*                                   master scheduler base initial. @LBA            
                                             5896+*                                  -Normally referenced through    @LBA            
                                             5897+*                                   the IEFPPSCN macro             @LBA            
 00000074                                    5898+JESDSNNO DS    F                   Counter for final qualifier of  @P3C 01-IEFJESCT
                                             5899+*                                  temporary data set name         @P3A            
 00000078                                    5900+JESDSNID DS    CL2                 ID for temporary data sets on   @P6A 01-IEFJESCT
                                             5901+*                                  this system.                    @P6A            
 0000007A                                    5902+JESRSVEA DS    H                   Reserved for future use         @P6C 01-IEFJESCT
 0000007C                                    5903+JESSSIVT DS    F                   Token for SSI vector table      @LDA 01-IEFJESCT
 00000080                                    5904+JESSSIPC DS    CL4                 PC number for IEFSSI macro      @LDA 01-IEFJESCT
 00000084                                    5905+JESVTPC  DS    CL4                 PC number for IEFSSVT macro     @LDA 01-IEFJESCT
 00000088                                    5906+JESMSGT@ DS    A(0)                SSI message table address       @LDA 01-IEFJESCT
 0000008C                                    5907+JESPALF  DS    0BL4                JESPEXT flags reflecting ALLOCxx     01-IEFJESCT
                                             5908+*                                  SYSTEM statement settings                       
                                             5909+*                                  -Set by Allocation Initialization               
                                             5910+*                                  Routine IEFAB4I0 and updated by                 
                                             5911+*                                  SETALLOC command processing     @02A            
 0000008C 00                                 5912+JESPALF1 DC    X'00'               1ST BYTE OF ALLOCXX SYSTEM FLAGS@02A 01-IEFJESCT
                         00000080            5913+JESBR14L EQU   X'80'               On when SYSTEM IEFBR14_DELMIGDS      01-IEFJESCT
                                             5914+*                                  is set to LEGACY                @02A            
                         00000040            5915+JESBR14N EQU   X'40'               On when SYSTEM IEFBR14_DELMIGDS      01-IEFJESCT
                                             5916+*                                  is set to NORECALL              @02A            
                         00000020            5917+JESTLIBE EQU   X'20'               On when SYSTEM TAPELIB_PREF is       01-IEFJESCT
                                             5918+*                                  set to EQUAL                    @02A            
                         00000010            5919+JESTLIBD EQU   X'10'               On when SYSTEM TAPELIB_PREF is       01-IEFJESCT
                                             5920+*                                  set to BYDEVICES                @02A            
                         00000008            5921+JESVUFL  EQU   X'08'               On when SYSTEM VERIFY_UNCAT is       01-IEFJESCT
                                             5922+*                                  set to FAIL                     @02A            
                         00000004            5923+JESVUTRK EQU   X'04'               On when SYSTEM VERIFY_UNCAT is       01-IEFJESCT
                                             5924+*                                  set to TRACK only               @02A            
                         00000002            5925+JESVUMTR EQU   X'02'               On when SYSTEM VERIFY_UNCAT is       01-IEFJESCT
                                             5926+*                                  set to MSGTRACK                 @02A            
                         00000001            5927+JESTDSFU EQU   X'01'               On when SYSTEM TEMPDSFORMAT is  @02A 01-IEFJESCT
                                             5928+*                                  set to UNIQUE                   @02A            
 0000008D 00                                 5929+JESPALF2 DC    X'00'               2ND BYTE OF ALLOCXX SYSTEM FLAGS@02A 01-IEFJESCT
                         00000080            5930+JESTDSFI EQU   X'80'               On when SYSTEM TEMPDSFORMAT is  @02A 01-IEFJESCT
                                             5931+*                                  set to UNIQUE                   @02A            
                         00000040            5932+JESDSEME EQU   X'40'               On when SYSTEM MEMDSENQMGMT is       01-IEFJESCT
                                             5933+*                                  set to ENABLE                   @02A            
                         00000020            5934+JESDSEMD EQU   X'20'               On when SYSTEM MEMDSENQMGMT is       01-IEFJESCT
                                             5935+*                                  set to DISABLE                  @02A            
                         00000010            5936+JESVULTR EQU   X'10'               On when SYSTEM VERIFY_UNCAT is       01-IEFJESCT
                                             5937+*                                  set to LOGTRACK                 @03A            
                                             5938+*                                  4 bits reserved for future use  @03C            
                                             5939+*                                  for ALLOCxx SYSTEM keywords     @02A            
 0000008E 00                                 5940+JESPALF3 DC    X'00'               Reserved for future use         @02A 01-IEFJESCT
                                             5941+*                                  for ALLOCxx SYSTEM keywords     @02A            
 0000008F 00                                 5942+JESPALF4 DC    X'00'               Reserved for future use         @02A 01-IEFJESCT
                                             5943+*                                  for ALLOCxx SYSTEM keywords     @02A            
 00000090                                    5944+JESRSVEC DS    F                   Reserved for future use         @P3A 01-IEFJESCT
 00000094                                    5945+JESRSVED DS    F                   Reserved for future use         @P3A 01-IEFJESCT
                                             5946+*                                                                  @L8A            
                         00000008            5947+JESSCVER EQU   8                   CURRENT VERSION LEVEL           @LDC 01-IEFJESCT
 00000080                00000000 00000080   5948+JESCT    DSECT                     RESETS PROGRAM COUNTER          @H1A 01-IEFJESCT
1QUERYSMS REXX FUNCTION - QUERY SMS                                                                             Page  105            
   Active Usings: ARGTABLE_ENTRY,R8  EVALBLOCK,R9  EFPL,R10  ENVBLOCK,R11  QUERYSMS,R12  DATA,R13                                    
0D-Loc    Object Code      Addr1    Addr2    Stmt  Source Statement                          HLASM R6.0  2012/02/10 10.07            
0                                            5949          IGDVLD                        SMS VOLUME DEFINITION MAPPING               
 00000000                00000000 000000C8   5950+IGDVLD    DSECT                                                         01-IGDVLD  
                                             5951+***********************************************************************            
                                             5952+* ASSEMBLER output generated by PLASMAP to Assembler Conversion       *            
                                             5953+*  28 Oct 1988 09:14:36                                               *            
                                             5954+***********************************************************************            
                                             5955+***********************************************************************            
                                             5956+*        VOLUME RECORD DEFINITION                                     *            
                                             5957+***********************************************************************            
 00000000                                    5958+VLD      DS    0C                       VOLUME MAPPING                  01-IGDVLD  
 00000000                                    5959+VLDP     DS    CL24                     VOLUME DEFINITION PREFIX        01-IGDVLD  
 00000018                00000018 00000000   5960+         ORG   VLD+0                                                    01-IGDVLD  
 00000000                                    5961+VLDPID   DS    CL8                      ID = 'IGDVLD'                   01-IGDVLD  
 00000008                                    5962+         DS    CL2                      Unused                          01-IGDVLD  
 0000000A                                    5963+VLDPVER  DS    H                        VERSION OF MACRO                01-IGDVLD  
 0000000C                                    5964+VLDPCNT  DS    F                        NUMBER OF VOLUMES COUNT         01-IGDVLD  
 00000010                                    5965+VLDPTYP  DS    H                        TYPE OF ITEMS IN LIST           01-IGDVLD  
 00000012                                    5966+         DS    CL2                      RESERVED                        01-IGDVLD  
 00000014                                    5967+VLDPLEN  DS    F                        Length of one def VLDEF         01-IGDVLD  
 00000018                                    5968+         DS    CL152     DIMENSION=(*)                                  01-IGDVLD  
 000000B0                000000B0 00000018   5969+         ORG   VLD+24                                                   01-IGDVLD  
 00000018                                    5970+VLDEF    DS    CL152                    ARRAY OF VOLUMES                01-IGDVLD  
 000000B0                000000B0 00000018   5971+         ORG   VLD+24                                                   01-IGDVLD  
 00000018                                    5972+         DS    CL32                     Reserved for consistency        01-IGDVLD  
 00000038                00000038 00000018   5973+         ORG   VLD+24                                                   01-IGDVLD  
 00000018                                    5974+VLDVSLEN DS    H                        Length of name should be 6      01-IGDVLD  
 0000001A                                    5975+VLDVSER  DS    CL6                      Volume serial                   01-IGDVLD  
 00000020                                    5976+         DS    CL24                     Reserved for consistency        01-IGDVLD  
 00000038                                    5977+VLDDUSER DS    CL8                      USERID OF LAST UPDATER          01-IGDVLD  
 00000040                                    5978+VLDDDATE DS    CL10                     DATE OF LAST UPDATE             01-IGDVLD  
 0000004A                                    5979+VLDTRKSZ DS    H                        Volume R1 track capacity  @02A  01-IGDVLD  
 0000004C                                    5980+         DS    CL4                      Reserved                  @02C  01-IGDVLD  
 00000050                                    5981+VLDDTIME DS    CL8                      TIME OF LAST UPDATE             01-IGDVLD  
 00000058                                    5982+VLDSG    DS    CL32                     Length and name of storgrp      01-IGDVLD  
 00000078                00000078 00000058   5983+         ORG   VLD+88                                                   01-IGDVLD  
 00000058                                    5984+VLDSGLEN DS    H                        Length of storgrp name          01-IGDVLD  
 0000005A                                    5985+VLDSTGRP DS    CL30                     STORAGE GROUP OF THIS VOLUME    01-IGDVLD  
 00000078                                    5986+VLDNSTAT DS    8CL2      DIMENSION=(8)  Old location of status by      X01-IGDVLD  
                                                 +                                        system - use VLDSSTAT      @L1C            
 00000088                00000088 00000078   5987+         ORG   VLD+120                                                  01-IGDVLD  
 00000078                                    5988+VLDSMSS  DS    AL1                      Old location of SMS status -   X01-IGDVLD  
                                                 +                                        use VLDSTSMS               @L1C            
 00000079                                    5989+VLDMVSS  DS    AL1                      Old location of MVS status -   X01-IGDVLD  
                                                 +                                        use VLDSTMVS               @L1C            
 0000007A                                    5990+         DS    CL14                                                     01-IGDVLD  
 00000088                                    5991+VLDNUCBA DS    A                        ADDRESS OF UCB IF KNOWN 0 IF   X01-IGDVLD  
                                                 +                                        NOT                                        
 0000008C                                    5992+VLDNTCPY DS    F                        TOTAL CAPACITY IN MEGABYTES    X01-IGDVLD  
                                                 +                                         (FULL VOLUME EAV/NON-EAV) @SLA            
 00000090                                    5993+VLDNFREE DS    F                        AMOUNT FREE IN MEGABYTES       X01-IGDVLD  
                                                 +                                         (FULL VOLUME EAV/NON-EAV) @SLA            
 00000094                                    5994+VLDNLEXT DS    F                        LARGEST FREE EXTENT IN         X01-IGDVLD  
                                                 +                                        MEGABYTES (FULL VOLUME     @SLCX           
                                                 +                                         EAV/NON-EAV)              @SLA            
 00000098                                    5995+VLDFLAGS DS    CL1                      Flags and reserved              01-IGDVLD  
1QUERYSMS REXX FUNCTION - QUERY SMS                                                                             Page  106            
   Active Usings: ARGTABLE_ENTRY,R8  EVALBLOCK,R9  EFPL,R10  ENVBLOCK,R11  QUERYSMS,R12  DATA,R13                                    
0D-Loc    Object Code      Addr1    Addr2    Stmt  Source Statement                          HLASM R6.0  2012/02/10 10.07            
0                        00000080            5996+VLDCONV  EQU   B'10000000'              1 = vol is in conversion        01-IGDVLD  
                         00000040            5997+VLDVSUP  EQU   B'01000000'              1 = volume varied online   @P1A 01-IGDVLD  
 00000099                                    5998+         DS    CL1                      Reserved                   @01A 01-IGDVLD  
 0000009A                                    5999+VLDN0CNT DS    H                        Volume level Reset Count   @01A 01-IGDVLD  
 0000009C                                    6000+VLDNSSI1 DS    F                        Reserved for subsystem use      01-IGDVLD  
 000000A0                                    6001+VLDNSSI2 DS    F                        Reserved for subsystem use      01-IGDVLD  
 000000A4                000000A4 000000A0   6002+         ORG   VLD+160                                                  01-IGDVLD  
 000000A0                                    6003+VLDSGST  DS    AL1                      STORGRP status on this sytem    01-IGDVLD  
 000000A1                                    6004+         DS    CL3                      Reserved                        01-IGDVLD  
 000000A4                                    6005+VLDNLEVL DS    F                        Update level for volume         01-IGDVLD  
 000000A8                                    6006+VLDCSMSS DS    8AL1      DIMENSION=(8)  Old location of confirmed SMS  X01-IGDVLD  
                                                 +                                        status - use VLDCNSMS      @L1C            
 000000B0                                    6007+VLDSYSOF DS    F                        Offset from beginning of VLDEF X01-IGDVLD  
                                                 +                                        to start of system data    @L1A            
 000000B4                                    6008+VLDSYSLN DS    F                        length of system data      @L1A 01-IGDVLD  
                                             6009+***********************************************************************            
                                             6010+*    Next three volume statistics will be equal to full           @03C*            
                                             6011+*    volume statistics if its a non_EAV volume                    @03A*            
                                             6012+***********************************************************************            
 000000B8                                    6013+VLDNTCPB DS    F                        Total capacity in Mb-below @SLA 01-IGDVLD  
 000000BC                                    6014+VLDNFREB DS    F                        Amount free spc in Mb-below@SLA 01-IGDVLD  
 000000C0                                    6015+VLDNLEXB DS    F                        Largest free extent in Mb  @SLA 01-IGDVLD  
 000000C4                                    6016+         DS    CL4                      Reserved                   @SLC 01-IGDVLD  
 000000C8                                    6017+VLDEND   DS    0D                       Round to DWORD boundary    @L1C 01-IGDVLD  
                                             6018+***********************************************************************            
                                             6019+*    System related data, one entry per system. Space is left for     *            
                                             6020+*    the architected limit of 256 systems for future expansion.       *            
                                             6021+*    The basing expression is not provided as it can be affected      *            
                                             6022+*    by use of LIKE, etc. Respecify it based on the address of        *            
                                             6023+*    your copy of VLDEF + the value in VLDSYSOF.                  @L1A*            
                                             6024+***********************************************************************            
 00000000                00000000 00000800   6025+VLDSYSDT DSECT                          System related data        @L1A 01-IGDVLD  
 00000000                                    6026+VLDSSTAT DS    256CL8                   One entry per system       @L1A 01-IGDVLD  
 00000800                00000800 00000000   6027+         ORG   VLDSYSDT+0                                               01-IGDVLD  
 00000000                                    6028+VLDSTSMS DS    AL1                      SMS system status          @L1A 01-IGDVLD  
 00000001                                    6029+VLDSTMVS DS    AL1                      MVS system status          @L1A 01-IGDVLD  
 00000002                                    6030+VLDCNSMS DS    AL1                      Confirmed SMS status       @L1A 01-IGDVLD  
 00000003                                    6031+         DS    CL5                      Reserved                   @L1A 01-IGDVLD  
 00000008                00000008 00000800   6032+         ORG                                                            01-IGDVLD  
 00000800                                    6033+VLDEND2  DS    0D                       Round to DWORD boundary    @L1A 01-IGDVLD  
                                             6034+***********************************************************************            
                                             6035+*        SMS STATUS - VLDSMSS and VLDSTSMS                        @L1C*            
                                             6036+***********************************************************************            
                         00000000            6037+VLD0     EQU   0                        No status given                 01-IGDVLD  
                         00000001            6038+VLDENBL  EQU   1                        SMS STATUS IS ENABLED           01-IGDVLD  
                         00000002            6039+VLDQUI   EQU   2                        SMS STATUS IS QUIESCED/ALL      01-IGDVLD  
                         00000003            6040+VLDQUIN  EQU   3                        SMS STATUS IS QUIESCED/NEW      01-IGDVLD  
                         00000004            6041+VLDDIS   EQU   4                        SMS STATUS IS DISABLED/ALL      01-IGDVLD  
                         00000005            6042+VLDDISN  EQU   5                        SMS STATUS IS DISABLED/NEW      01-IGDVLD  
                                             6043+***********************************************************************            
                                             6044+*        MVS STATUS - VLDMVSS and VLDSTMVS                        @L1C*            
                                             6045+***********************************************************************            
                         00000001            6046+VLDONLN  EQU   1                        MVS STATUS IS ONLINE            01-IGDVLD  
                         00000002            6047+VLDOFFLN EQU   2                        MVS STATUS IS OFFLINE           01-IGDVLD  
                         00000003            6048+VLDPOFF  EQU   3                        MVS STATUS IS PENDING OFFLINE   01-IGDVLD  
1QUERYSMS REXX FUNCTION - QUERY SMS                                                                             Page  107            
   Active Usings: ARGTABLE_ENTRY,R8  EVALBLOCK,R9  EFPL,R10  ENVBLOCK,R11  QUERYSMS,R12  DATA,R13                                    
0D-Loc    Object Code      Addr1    Addr2    Stmt  Source Statement                          HLASM R6.0  2012/02/10 10.07            
0                        00000004            6049+VLDBOXED EQU   4                        MVS STATUS IS BOXED             01-IGDVLD  
                         00000005            6050+VLDNRDY  EQU   5                        MVS STATUS IS NOT READY         01-IGDVLD  
                                             6051+***********************************************************************            
                                             6052+*        OTHER                                                        *            
                                             6053+***********************************************************************            
                         00000009            6054+VLDTYP   EQU   9                        CONSTANT LIST TYPE              01-IGDVLD  
                         00000003            6055+VLDVER   EQU   3                        CONSTANT MACRO VERSION     @L1C 01-IGDVLD  
                                             6056+*                                                                                  
                                             6057          IGDSGD                        SMS STORAGE GROUP DEFINITION MAP            
 00000000                00000000 000002C0   6058+IGDSGD    DSECT                                                         01-IGDSGD  
                                             6059+***********************************************************************            
                                             6060+* ASSEMBLER output generated by PLASMAP to Assembler Conversion       *            
                                             6061+*  28 Oct 1988 09:01:47                                               *            
                                             6062+***********************************************************************            
 00000000                                    6063+SGD      DS    0C                                                       01-IGDSGD  
                                             6064+***********************************************************************            
                                             6065+*        STORAGE GROUP HEADER FOR STORAGE GROUP SET                   *            
                                             6066+***********************************************************************            
 00000000                                    6067+SGDP     DS    CL24                     Storage Group Prefix            01-IGDSGD  
 00000018                00000018 00000000   6068+         ORG   SGD+0                                                    01-IGDSGD  
 00000000                                    6069+SGDPID   DS    CL8                      SG ID = 'IGDSGD'                01-IGDSGD  
 00000008                                    6070+         DS    CL2                      Unused                          01-IGDSGD  
 0000000A                                    6071+SGDPSVER DS    H                        Version of macro                01-IGDSGD  
 0000000C                                    6072+SGDPCNT  DS    F                        Number of SG defs count         01-IGDSGD  
 00000010                                    6073+SGDPTYP  DS    H                        Type of items in list           01-IGDSGD  
 00000012                                    6074+         DS    CL2                      Reserved                        01-IGDSGD  
 00000014                                    6075+SGDPLEN  DS    F                        Length of one SGDEF + extents   01-IGDSGD  
                                             6076+***********************************************************************            
                                             6077+*        STORAGE GROUPS                                               *            
                                             6078+***********************************************************************            
 00000018                                    6079+         DS    CL584     DIMENSION=(*)                                  01-IGDSGD  
 00000260                00000260 00000018   6080+         ORG   SGD+24                                                   01-IGDSGD  
 00000018                                    6081+SGDEF    DS    CL584                    Array of STORGRP defs           01-IGDSGD  
 00000260                00000260 00000018   6082+         ORG   SGD+24                                                   01-IGDSGD  
 00000018                                    6083+SGDNM    DS    CL32                     Space for name and length       01-IGDSGD  
 00000038                00000038 00000018   6084+         ORG   SGD+24                                                   01-IGDSGD  
 00000018                                    6085+SGDNMLEN DS    H                        Reserved (would be name len)    01-IGDSGD  
 0000001A                                    6086+SGDFNAME DS    CL30                     Storage Group Name              01-IGDSGD  
 00000038                                    6087+SGDFUSER DS    CL8                      USERID of last updater          01-IGDSGD  
 00000040                                    6088+SGDFDATE DS    CL10                     Date last updated               01-IGDSGD  
 0000004A                                    6089+         DS    CL6                      Reserved                        01-IGDSGD  
 00000050                                    6090+SGDFTIME DS    CL8                      Time last updated               01-IGDSGD  
 00000058                                    6091+SGDFDESC DS    CL120                    Description of Storage Group    01-IGDSGD  
 000000D0                                    6092+SGDSUBDF DS    0CL496                   Sub definition                  01-IGDSGD  
 000000D0                                    6093+SGDFLAGS DS    CL1                      Flags and reserved              01-IGDSGD  
                         00000080            6094+SGDFABUP EQU   B'10000000'              HSM auto backup, 1=YES,0=NO     01-IGDSGD  
                         00000040            6095+SGDFAMIG EQU   B'01000000'              Auto migration, 1=YES, 0=NO     01-IGDSGD  
                         00000020            6096+SGDFADMP EQU   B'00100000'              Auto dump, 1 = YES, 0 = NO      01-IGDSGD  
                         00000010            6097+SGDFTHRS EQU   B'00010000'              Thresholds specified? 1 = YES, X01-IGDSGD  
                                                 +                                        0 = NO                                     
                         00000008            6098+SGDFGBKU EQU   B'00001000'              Guaranteed backup freq?        X01-IGDSGD  
                                                 +                                        specified, 1=yes, 0=no                     
                         00000004            6099+SGDGBNOL EQU   B'00000100'              Guaranteed backup freq?        X01-IGDSGD  
                                                 +                                        1=NOLIMIT, 0=see SGDGBKUF                  
                         00000002            6100+SGDFIMIG EQU   B'00000010'              Int Mig, 1=Yes, 0=No   @OY43026 01-IGDSGD  
1QUERYSMS REXX FUNCTION - QUERY SMS                                                                             Page  108            
   Active Usings: ARGTABLE_ENTRY,R8  EVALBLOCK,R9  EFPL,R10  ENVBLOCK,R11  QUERYSMS,R12  DATA,R13                                    
0D-Loc    Object Code      Addr1    Addr2    Stmt  Source Statement                          HLASM R6.0  2012/02/10 10.07            
0                        00000001            6101+SGDFPSM  EQU   B'00000001'              Prim space AM 1=Yes, 0=No  @L2A 01-IGDSGD  
 000000D1                                    6102+SGDFTYPE DS    AL1                      Storage Group Type See         X01-IGDSGD  
                                                 +                                        Constants below                            
 000000D2                                    6103+SGDFLAG2 DS    CL1                      Flags 2                    @L6A 01-IGDSGD  
                         00000080            6104+SGOFLOWS EQU   B'10000000'              Overflow SG Specified      @L6A 01-IGDSGD  
                         00000040            6105+SGEXNMS  EQU   B'01000000'              EXTEND SG name Specified   @L6A 01-IGDSGD  
                         00000020            6106+SGTCNMS  EQU   B'00100000'              Target Copy SG name specif @L7A 01-IGDSGD  
                         00000010            6107+SGEAVBP  EQU   B'00010000'              BreakPointValue specified ?@L8A 01-IGDSGD  
                         00000008            6108+SGEAVTHS EQU   B'00001000'              Track Alloc threshold spec?@L8A 01-IGDSGD  
 000000D3                                    6109+SGOFLOW  DS    CL1                      Overflow SG value          @L6A 01-IGDSGD  
 000000D4                                    6110+SGDFVMAX DS    F                        VIO MAX Data set size           01-IGDSGD  
 000000D8                                    6111+SGDFVUNT DS    CL4                      VIO unit type                   01-IGDSGD  
 000000DC                                    6112+SGDFHTHR DS    AL1                      High threshold 1 TO 100%   @THC 01-IGDSGD  
 000000DD                                    6113+SGDFLTHR DS    AL1                      Low threshold 0 TO 99 %         01-IGDSGD  
 000000DE                                    6114+SGDDMPCL DS    5CL8      DIMENSION=(5)  Dump Classes for autodump       01-IGDSGD  
 00000106                                    6115+SGDFPRST DS    8CL1      DIMENSION=(8)  Old location: processor status X01-IGDSGD  
                                                 +                                        array - use SGDPSTAT       @L3C            
 0000010E                0000010E 00000106   6116+         ORG   SGD+262                                                  01-IGDSGD  
 00000106                                    6117+SGDSTAT  DS    AL1                      Old location: individual       X01-IGDSGD  
                                                 +                                        status - use SGDSYSST      @L3C            
 00000107                                    6118+         DS    CL7                                                      01-IGDSGD  
 0000010E                                    6119+SGDABSYS DS    CL8                      Auto backup system              01-IGDSGD  
 00000116                                    6120+SGDADSYS DS    CL8                      Auto dump system                01-IGDSGD  
 0000011E                                    6121+SGDAMSYS DS    CL8                      Auto migrate system             01-IGDSGD  
 00000126                                    6122+         DS    CL2                      reserved                   @L8C 01-IGDSGD  
 00000128                                    6123+SGDSSI1  DS    F                        Reserved for subsystem use #   X01-IGDSGD  
                                                 +                                        vols belonging to storgrp when X           
                                                 +                                        returned from CNS?                         
 0000012C                                    6124+SGDSSI2  DS    F                        Reserved for subsystem use      01-IGDSGD  
 00000130                                    6125+SGDCNFRM DS    8CL1      DIMENSION=(8)  Old location: confirmed status X01-IGDSGD  
                                                 +                                        array - use SGDCNFST       @L3C            
 00000138                00000138 00000130   6126+         ORG   SGD+304                                                  01-IGDSGD  
 00000130                                    6127+SGDCSMSS DS    AL1                      Old location: confirmed        X01-IGDSGD  
                                                 +                                        status - use SGDCNSMS      @L3C            
                                             6128+***********************************************************************            
                                             6129+*        SGDGBKUF is valid if SGDFGBKU='1'B & SGDGBNOL='0'B           *            
                                             6130+***********************************************************************            
 00000131                                    6131+         DS    CL7                                                      01-IGDSGD  
 00000138                                    6132+SGDGBKUF DS    F                        Guaranteed backup freq?         01-IGDSGD  
 0000013C                                    6133+SGDTBLGR DS    CL8                      OAM Table Space ID        @L5C  01-IGDSGD  
 00000144                                    6134+SGDOAMFL DS    CL2                      OAM flags                       01-IGDSGD  
                         00000080            6135+SGDFCYS  EQU   B'10000000'              OAM Cycle start/end given       01-IGDSGD  
                         00000040            6136+SGDFVLFT EQU   B'01000000'              Volume Full Threshold bit       01-IGDSGD  
                         00000020            6137+SGDFDRST EQU   B'00100000'              Drive Start Threshold bit       01-IGDSGD  
                         00000010            6138+SGDVFFER EQU   B'00010000'              Vol full write er given         01-IGDSGD  
                         00000008            6139+SGDVFERR EQU   B'00001000'              Vol full Write error bit        01-IGDSGD  
                         00000004            6140+SGDFRETP EQU   B'00000100'              OAM Retention Protection   @L9A 01-IGDSGD  
                         00000002            6141+SGDFDELP EQU   B'00000010'              OAM Deletion Protection    @L9A 01-IGDSGD  
 00000146                00000146 00000145   6142+         ORG   SGD+325                                                  01-IGDSGD  
 00000145                                    6143+         DS    CL1                      Reserved                        01-IGDSGD  
 00000146                                    6144+SGDCYLST DS    AL1                      OAM Cycle Start time (hrs)      01-IGDSGD  
 00000147                                    6145+SGDCYLED DS    AL1                      OAM Cycle End time (hrs)        01-IGDSGD  
 00000148                                    6146+SGDVOLFT DS    H                        Volume Full Threshold bit       01-IGDSGD  
 0000014A                                    6147+SGDDRVST DS    H                        Drive Start Threshold bit       01-IGDSGD  
 0000014C                                    6148+SGDOLIBS DS    8CL32     DIMENSION=(8)  Libraries(optical,tape) @L1C    01-IGDSGD  
1QUERYSMS REXX FUNCTION - QUERY SMS                                                                             Page  109            
   Active Usings: ARGTABLE_ENTRY,R8  EVALBLOCK,R9  EFPL,R10  ENVBLOCK,R11  QUERYSMS,R12  DATA,R13                                    
0D-Loc    Object Code      Addr1    Addr2    Stmt  Source Statement                          HLASM R6.0  2012/02/10 10.07            
00000024C                0000024C 0000014C   6149+         ORG   SGD+332                                                  01-IGDSGD  
 0000014C                                    6150+SGDOLBNL DS    H                        Library name len        @L1C    01-IGDSGD  
 0000014E                                    6151+SGDOLBNM DS    CL8                      Library name            @L1C    01-IGDSGD  
 00000156                                    6152+         DS    CL22                     Reserved                   @O1A 01-IGDSGD  
 0000016C                0000016C 0000024C   6153+         ORG   SGD+588                                                  01-IGDSGD  
 0000024C                                    6154+SGDSYSOF DS    F                        Offset from beginning of SGDEF X01-IGDSGD  
                                                 +                                        to start of system data    @L3A            
 00000250                                    6155+SGDSYSLN DS    F                        length of system data      @L3A 01-IGDSGD  
 00000254                                    6156+SGDOSYSN DS    CL8                      OSMC system name           @L5A 01-IGDSGD  
 0000025C                                    6157+SGEXTN   DS    0CL32                    Extend SG                  @L6A 01-IGDSGD  
 0000025C                                    6158+SGEXLEN  DS    H                         Extend SG Name Len        @L6A 01-IGDSGD  
 0000025E                                    6159+SGEXNAME DS    CL30                      Extend SG Name            @L6A 01-IGDSGD  
 0000027C                                    6160+SGTARGET DS    0CL32                    Extend SG                  @L7A 01-IGDSGD  
 0000027C                                    6161+SGTCLEN  DS    H                         Extend SG Name Len        @L7A 01-IGDSGD  
 0000027E                                    6162+SGTCNAME DS    CL30                      Extend SG Name            @L7A 01-IGDSGD  
 0000029C                                    6163+SGDBKPTV DS    F                        BreakPointValue = 0-65520  @L8C 01-IGDSGD  
 000002A0                                    6164+SGDSHTHR DS    AL1                      Track alloc high threshold @L8A 01-IGDSGD  
 000002A1                                    6165+SGDSLTHR DS    AL1                      Track alloc low threshold  @L8A 01-IGDSGD  
 000002A2                                    6166+         DS    CL30                     Reserved           @L7C@L6C@L8C 01-IGDSGD  
 000002C0                                    6167+SGDEND   DS    0D                       Round to DWORD boundary    @L3C 01-IGDSGD  
                                             6168+***********************************************************************            
                                             6169+*    System related data, one entry per system. Space is left for     *            
                                             6170+*    the architected limit of 256 systems for future expansion.       *            
                                             6171+*    The basing expression is not provided as it can be affected      *            
                                             6172+*    by use of LIKE, etc. Respecify it based on the address of        *            
                                             6173+*    your copy of SGDEF + the value in SGDSYSOF.                  @L3A*            
                                             6174+***********************************************************************            
 00000000                00000000 00000800   6175+SGDSYSDT DSECT                          System related data        @L3A 01-IGDSGD  
 00000000                                    6176+SGDSSTAT DS    256CL8                   One entry per system       @L3A 01-IGDSGD  
 00000800                00000800 00000000   6177+         ORG   SGDSYSDT+0                                               01-IGDSGD  
 00000000                                    6178+SGDSYSST DS    AL1                      Requested system status    @L3A 01-IGDSGD  
 00000001                                    6179+SGDCNSMS DS    AL1                      Confirmed SMS status       @L3A 01-IGDSGD  
 00000002                                    6180+         DS    CL6                      Reserved                   @L3A 01-IGDSGD  
 00000008                00000008 00000800   6181+         ORG   SGDSYSDT+2048                                            01-IGDSGD  
 00000800                                    6182+SGDEND2  DS    0D                       Round to DWORD boundary    @L3A 01-IGDSGD  
                         00000000            6183+SGDPOOL  EQU   0                        Storage Group type is POOL      01-IGDSGD  
                         00000001            6184+SGDVIO   EQU   1                        Storage Group type is VIO       01-IGDSGD  
                         00000002            6185+SGDDUMMY EQU   2                        Storage Group type is DUMMY     01-IGDSGD  
                         00000003            6186+SGDOBJ   EQU   3                        S?G? type is OBJECT             01-IGDSGD  
                         00000004            6187+SGDOBJBK EQU   4                        S?G? type is OBJECT BACKUP      01-IGDSGD  
                         00000005            6188+SGDTAPE  EQU   5                        S?G? type is TAPE         @L1A  01-IGDSGD  
                         00000006            6189+SGDTARGT EQU   6                        Copy Target               @L7A  01-IGDSGD  
                                             6190+***********************************************************************            
                                             6191+*        Constants for SGDSTAT and SGDSYSST                       @L3C*            
                                             6192+***********************************************************************            
                         00000000            6193+SGD0     EQU   0                        No status specified             01-IGDSGD  
                         00000001            6194+SGDENBL  EQU   1                        Storage Group is ENABLED        01-IGDSGD  
                         00000002            6195+SGDQUI   EQU   2                        Storage Group is QUIESCED/ALL   01-IGDSGD  
                         00000003            6196+SGDQUIN  EQU   3                        Storage Group is QUIESCED/NEW   01-IGDSGD  
                         00000004            6197+SGDDIS   EQU   4                        Storage Group is DISABLED/ALL   01-IGDSGD  
                         00000005            6198+SGDDISN  EQU   5                        Storage Group is DISABLED/NEW   01-IGDSGD  
                         00000005            6199+SGDTYP   EQU   5                        Constant list type              01-IGDSGD  
                         00000003            6200+SGDVER   EQU   3                        Constant macro version     @L3C 01-IGDSGD  
                                             6201+***********************************************************************            
                                             6202+*        Dimension of SGDOLIBS                                        *            
1QUERYSMS REXX FUNCTION - QUERY SMS                                                                             Page  110            
   Active Usings: ARGTABLE_ENTRY,R8  EVALBLOCK,R9  EFPL,R10  ENVBLOCK,R11  QUERYSMS,R12  DATA,R13                                    
0D-Loc    Object Code      Addr1    Addr2    Stmt  Source Statement                          HLASM R6.0  2012/02/10 10.07            
0                                            6203+***********************************************************************            
                         00000008            6204+SGDLIBX  EQU   8                        Max no of libraries per SG      01-IGDSGD  
                                             6205+***********************************************************************            
                                             6206+*        Constants for SGOFLOW                                        *            
                                             6207+***********************************************************************            
                         00000000            6208+SGOFLOWN EQU   0                        Not an Overflow SG         @L6A 01-IGDSGD  
                         00000001            6209+SGOFLOWY EQU   1                        Is an Overflow SG          @L6A 01-IGDSGD  
                                             6210+*                                                                                  
 00000000                                    6211          END   QUERYSMS                                                            
1QUERYSMS                       Ordinary Symbol and Literal Cross Reference                                     Page  111            
-Symbol   Length   Value     Id    R Type Asm  Program   Defn References                     HLASM R6.0  2012/02/10 10.07            
0$C1           6 00000222 00000001     I                  237  234B                                                                  
 $C2           6 00000240 00000001     I                  243  238B                                                                  
 $C3           6 0000025E 00000001     I                  249  244B                                                                  
 $C4           1 0000027C 00000001     U                  255  250B                                                                  
 $C9           1 00000284 00000001     U                  258  236B  242B  248B  254B  257B                                          
 $E02          2 00000180 00000001     I                  185  170B  176B  180B                                                      
 _STKDAT       4 00000060 FFFFFFFF     F  F               413  305   324M  343   360M                                                
 _STKENV       4 0000006C FFFFFFFF     F  F               416  301M  311   339M  347                                                 
 _STKFUNC      8 00000058 FFFFFFFF     C  C               412  302M  303   340M  341                                                 
 _STKLEN       4 00000064 FFFFFFFF     F  F               414  307   321M  345   361M                                                
 _STKPARM      4 00000074 FFFFFFFF     F  F               418  304M  306M  308M  310M  312M  315M  327   342M  344M  346M  348M  351M
                                                               364                                                                   
 _STKRC        4 00000068 FFFFFFFF     F  F               415  309                                                                   
 _STKRCE       4 00000070 FFFFFFFF     F  F               417  313   349                                                             
 ABE01         2 000004F0 00000001     R  A               379  167                                                                   
 ABE01M        7 00000512 00000001     X  X               380  166M                                                                  
 ABE02         2 0000053E 00000001     R  A               383  173                                                                   
 ABE02M        7 00000551 00000001     X  X               384  172M                                                                  
 AHLHEAD       1 00000000 00000000 A   T                 4372 4372                                                                   
 AHLVCCR8      1 00000000 00000000 A   T                 4895 4895                                                                   
 ARGTABLE_ARGSTRING_LENGTH                                                                                                           
               4 00000004 FFFFFFFB     F  F               714   96   106                                                             
 ARGTABLE_ARGSTRING_PTR                                                                                                              
               4 00000000 FFFFFFFB     A  A               713   93   103                                                             
 ARGTABLE_ENTRY                                                                                                                      
               1 00000000 FFFFFFFB     J                  711   86U                                                                  
 ARGTABLE_NEXT                                                                                                                       
               8 00000008 FFFFFFFB     D  D               715  102                                                                   
 ASMVT         1 00000000 00000000 A   T                 4783 4783                                                                   
 CALLSMS       1 000001AA 00000001     U                  206  148B                                                                  
 CBBRANCH      1 00000000 00000000 A   T                 4940 4940                                                                   
 CHECKP1       1 00000094 00000001     U                  113  105B                                                                  
 CHECKP2       6 000000D2 00000001     I                  127  116B  120B  123B                                                      
 COPYPAR1      6 000000E0 00000001     I                  130  101X                                                                  
 COPYPAR2      6 000000E6 00000001     I                  131  112X                                                                  
 CRBRANCH      1 00000000 00000000 A   T                 4679 4679                                                                   
 CSRTABLE      1 00000000 00000000 A   T                 4699 4699                                                                   
 CSVARMGR      1 00000000 00000000 A   T                 4748 4748                                                                   
 CSVEXIT       1 00000000 00000000 A   T                 4621 4621                                                                   
 CSVLLCB       1 00000000 00000000 A   T                 4187 4187                                                                   
 CSVLLTRM      1 00000000 00000000 A   T                 4188 4188                                                                   
 CSVMEM        1 00000000 00000000 A   T                 4418 4418                                                                   
 CSVVFGET      1 00000000 00000000 A   T                 5014 5014                                                                   
 CSVVFIND      1 00000000 00000000 A   T                 5012 5012                                                                   
 CVTBRET       2 00000052 FFFFFFEC     H  H              4212 4759  4838                                                             
 CVTJESCT      4 00000128 FFFFFFEC     V  V              4432  216                                                                   
 CVTMAP        1 00000000 FFFFFFEC     U                 4162  216                                                                   
 CVTPTR        1 00000010 FFFFFFED A   U                 4153  215   273                                                             
 CVTVSTGX      1 00000000 FFFFFFEB     J                 5270 5076                                                                   
 CVTXTNT1      1 00000000 FFFFFFEA     J                 5309 4387                                                                   
 CVTXTNT2      1 00000000 FFFFFFE9     J                 5317 4458                                                                   
 CVT4MS1       1 00000010 FFFFFFEC A   U                 4240 4248                                                                   
 CVT6DAT       1 00000002 FFFFFFEC A   U                 4244 4248                                                                   
 DATA          1 00000000 FFFFFFFF     J                  406   82U  432                                                             
 DFAIDTAB      1 00000000 00000000 A   T                 5089 5089                                                                   
1QUERYSMS                       Ordinary Symbol and Literal Cross Reference                                     Page  112            
-Symbol   Length   Value     Id    R Type Asm  Program   Defn References                     HLASM R6.0  2012/02/10 10.07            
0EFPL          1 00000000 FFFFFFFC     J                  633   84U                                                                  
 EFPLARG       4 00000010 FFFFFFFC     A  A               638   89                                                                   
 EFPLEVAL      4 00000014 FFFFFFFC     A  A               639   87                                                                   
 ENVBLOCK      1 00000000 FFFFFFFD     J                  545   83U                                                                  
 ENVBLOCK_IRXEXTE                                                                                                                    
               4 0000001C FFFFFFFD     A  A               554  299   337                                                             
 ERR01         2 000003B8 00000001     R  A               371  177                                                                   
 EVALBLOCK                                                                                                                           
               1 00000000 FFFFFFF9     J                  797   85U                                                                  
 EVALBLOCK_EVDATA                                                                                                                    
               1 00000010 FFFFFFF9     C  C               803  181M                                                                  
 EVALBLOCK_EVLEN                                                                                                                     
               4 00000008 FFFFFFF9     F  F               801  183M                                                                  
 EXITBAD1      4 0000012E 00000001     I                  165  288B                                                                  
 EXITBAD2      4 00000148 00000001     I                  171  291B                                                                  
 EXITNOK       4 00000162 00000001     I                  177   95B   99B  109B  126B  128B                                          
 EXITOK        4 00000172 00000001     I                  181  163B                                                                  
 FMBRANCH      1 00000000 00000000 A   T                 4865 4865                                                                   
 GLBRANCH      1 00000000 00000000 A   T                 4770 4770                                                                   
 GMBRANCH      1 00000000 00000000 A   T                 4867 4867                                                                   
 GVT           1 00000000 00000000 A   T                 4632 4632                                                                   
 IARMPVT       1 00000000 00000000 A   T                 4477 4477                                                                   
 IARMRRCE      1 00000000 00000000 A   T                 5053 5053                                                                   
 IARPIBR       1 00000000 00000000 A   T                 5023 5023                                                                   
 IARPSIV       1 00000000 00000000 A   T                 4846 4846                                                                   
 IARPSXM       1 00000000 00000000 A   T                 4996 4996                                                                   
 IARXKEY       1 00000000 00000000 A   T                 4954 4954                                                                   
 IARXVIO       1 00000000 00000000 A   T                 4847 4847                                                                   
 ICYMMVTC      1 00000000 00000000 A   T                 5340 5340                                                                   
 IDA121CV      1 00000000 00000000 A   T                 4785 4785                                                                   
 IEABEND       1 00000000 00000000 A   T                 4338 4338                                                                   
 IEADQIQE      1 00000000 00000000 A   T                 4765 4765                                                                   
 IEAECVT       1 00000000 00000000 A   T                 4263 4263                                                                   
 IEAGSMQ       1 00000000 00000000 A   T                 4742 4742                                                                   
 IEAIHASU      1 00000000 00000000 A   T                 4983 4983                                                                   
 IEALSMQ       1 00000000 00000000 A   T                 4744 4744                                                                   
 IEAMASCB      1 00000000 00000000 A   T                 4711 4711  4715                                                             
 IEAPATCH      1 00000000 00000000 A   T                 4346 4346                                                                   
 IEAPDSRT      1 00000000 00000000 A   T                 4640 4640                                                                   
 IEAPTRV       1 00000000 00000000 A   T                 4425 4425                                                                   
 IEAQCDSR      1 00000000 00000000 A   T                 4329 4329                                                                   
 IEAQCS01      1 00000000 00000000 A   T                 4752 4752                                                                   
 IEAQLPAQ      1 00000000 00000000 A   T                 4330 4330                                                                   
 IEAQTD00      1 00000000 00000000 A   T                 4226 4226                                                                   
 IEAQTE00      1 00000000 00000000 A   T                 4224 4224                                                                   
 IEARPOST      1 00000000 00000000 A   T                 4767 4767                                                                   
 IEASMFEX      1 00000000 00000000 A   T                 4644 4644                                                                   
 IEASMFSP      1 00000000 00000000 A   T                 4991 4991                                                                   
 IEASPOST      1 00000000 00000000 A   T                 4787 4787                                                                   
 IEASVDCB      1 00000000 00000000 A   T                 4214 4214                                                                   
 IEATCBP       1 00000000 00000000 A   T                 4164 4164                                                                   
 IEATPC        1 00000000 00000000 A   T                 4216 4216                                                                   
 IEATRSCN      1 00000000 00000000 A   T                 4608 4608                                                                   
 IEAVAR02      1 00000000 00000000 A   T                 4691 4691                                                                   
 IEAVBLDP      1 00000000 00000000 A   T                 4675 4675                                                                   
1QUERYSMS                       Ordinary Symbol and Literal Cross Reference                                     Page  113            
-Symbol   Length   Value     Id    R Type Asm  Program   Defn References                     HLASM R6.0  2012/02/10 10.07            
0IEAVDELP      1 00000000 00000000 A   T                 4678 4678                                                                   
 IEAVEAC0      1 00000000 00000000 A   T                 4769 4769                                                                   
 IEAVEADV      1 00000000 00000000 A   T                 4928 4928                                                                   
 IEAVEDR1      1 00000000 00000000 A   T                 4812 4812                                                                   
 IEAVELRM      1 00000000 00000000 A   T                 4761 4761                                                                   
 IEAVENLU      1 00000000 00000000 A   T                 5109 5109                                                                   
 IEAVENQ2      1 00000000 00000000 A   T                 4758 4758                                                                   
 IEAVEQV1      1 00000000 00000000 A   T                 4916 4916                                                                   
 IEAVEQV2      1 00000000 00000000 A   T                 4919 4919                                                                   
 IEAVEQV3      1 00000000 00000000 A   T                 4922 4922                                                                   
 IEAVERI1      1 00000000 00000000 A   T                 4814 4814                                                                   
 IEAVERP1      1 00000000 00000000 A   T                 4816 4816                                                                   
 IEAVERX1      1 00000000 00000000 A   T                 5005 5005                                                                   
 IEAVESC1      1 00000000 00000000 A   T                 4944 4944                                                                   
 IEAVESPR      1 00000000 00000000 A   T                 4873 4873                                                                   
 IEAVESTU      1 00000000 00000000 A   T                 5107 5107                                                                   
 IEAVESVT      1 00000000 00000000 A   T                 4879 4879                                                                   
 IEAVET6E      1 00000000 00000000 A   T                 4979 4979                                                                   
 IEAVEVT2      1 00000000 00000000 A   T                 4933 4933                                                                   
 IEAVEXPR      1 00000000 00000000 A   T                 4740 4740                                                                   
 IEAVEXP1      1 00000000 00000000 A   T                 4910 4910                                                                   
 IEAVFRCL      1 00000000 00000000 A   T                 4677 4677                                                                   
 IEAVGSDA      1 00000000 00000000 A   T                 4924 4924                                                                   
 IEAVGTCL      1 00000000 00000000 A   T                 4676 4676                                                                   
 IEAVGWSA      1 00000000 00000000 A   T                 4772 4772                                                                   
 IEAVLKRM      1 00000000 00000000 A   T                 4449 4449                                                                   
 IEAVMFRM      1 00000000 00000000 A   T                 4857 4857                                                                   
 IEAVMSGS      1 00000000 00000000 A   T                 4395 4395                                                                   
 IEAVNVT0      1 00000000 00000000 A   T                 5092 5092                                                                   
 IEAVRSUH      1 00000000 00000000 A   T                 4971 4971                                                                   
 IEAVRT03      1 00000000 00000000 A   T                 4581 4581                                                                   
 IEAVSPND      1 00000000 00000000 A   T                 4981 4981                                                                   
 IEAVSTAG      1 00000000 00000000 A   T                 4719 4719                                                                   
 IEAVTCTL      1 00000000 00000000 A   T                 4973 4973                                                                   
 IEAVTEST      1 00000000 00000000 A   T                 4453 4453                                                                   
 IEAVTRGR      1 00000000 00000000 A   T                 4780 4780                                                                   
 IEAVTRG1      1 00000000 00000000 A   T                 4195 4195                                                                   
 IEAVTRV3      1 00000000 00000000 A   T                 4446 4446                                                                   
 IEAVTSBP      1 00000000 00000000 A   T                 4725 4725                                                                   
 IEAVTSFR      1 00000000 00000000 A   T                 4416 4416                                                                   
 IEAVTSFV      1 00000000 00000000 A   T                 4984 4984                                                                   
 IEAVTSGL      1 00000000 00000000 A   T                 4723 4723                                                                   
 IEAVVMSR      1 00000000 00000000 A   T                 4475 4475                                                                   
 IEAVWAIT      1 00000000 00000000 A   T                 4747 4747                                                                   
 IEAVWSAC      1 00000000 00000000 A   T                 4778 4778                                                                   
 IEAVWSAG      1 00000000 00000000 A   T                 4776 4776                                                                   
 IEAVWSAL      1 00000000 00000000 A   T                 4774 4774                                                                   
 IEAVXEXT      1 00000000 00000000 A   T                 4855 4855                                                                   
 IEAVXSFT      1 00000000 00000000 A   T                 4822 4822                                                                   
 IEAVXSTN      1 00000000 00000000 A   T                 4828 4828                                                                   
 IEAVXSTS      1 00000000 00000000 A   T                 4826 4826                                                                   
 IEAVXUNN      1 00000000 00000000 A   T                 4851 4851                                                                   
 IEAVXUNS      1 00000000 00000000 A   T                 4830 4830                                                                   
 IEAWTCB       1 00000000 00000000 A   T                 4888 4888                                                                   
 IEA0DS        1 00000000 00000000 A   T                 4262 4262                                                                   
1QUERYSMS                       Ordinary Symbol and Literal Cross Reference                                     Page  114            
-Symbol   Length   Value     Id    R Type Asm  Program   Defn References                     HLASM R6.0  2012/02/10 10.07            
0IEA0EF00      1 00000000 00000000 A   T                 4165 4165                                                                   
 IEA0EF01      1 00000000 00000000 A   T                 4205 4205                                                                   
 IEA0PT0E      1 00000000 00000000 A   T                 4960 4960                                                                   
 IEA0PT01      1 00000000 00000000 A   T                 4269 4269                                                                   
 IEA0PT02      1 00000000 00000000 A   T                 4885 4885                                                                   
 IEA0PT03      1 00000000 00000000 A   T                 4962 4962                                                                   
 IEA0VL00      1 00000000 00000000 A   T                 4176 4176                                                                   
 IEA0VL01      1 00000000 00000000 A   T                 4617 4617                                                                   
 IECIXAVL      1 00000000 00000000 A   T                 4254 4254                                                                   
 IECPCNVT      1 00000000 00000000 A   T                 4179 4179                                                                   
 IECPRLTV      1 00000000 00000000 A   T                 4183 4183                                                                   
 IECVEXCL      1 00000000 00000000 A   T                 4849 4849                                                                   
 IECXAPG       1 00000000 00000000 A   T                 4174 4174                                                                   
 IECXITP       1 00000000 00000000 A   T                 4204 4204                                                                   
 IECXTLER      1 00000000 00000000 A   T                 4190 4190                                                                   
 IEC0SCR1      1 00000000 00000000 A   T                 4352 4352                                                                   
 IEECUCB       1 00000000 00000000 A   T                 4223 4223                                                                   
 IEEMSER       1 00000000 00000000 A   T                 4198 4198  4267                                                             
 IEEVEXSN      1 00000000 00000000 A   T                 4584 4584                                                                   
 IEEVSTOP      1 00000000 00000000 A   T                 4898 4898                                                                   
 IEFAQTOP      1 00000000 00000000 A   T                 4703 4703                                                                   
 IEFAUSDM      1 00000000 00000000 A   T                 4170 4170                                                                   
 IEFENFDM      1 00000000 00000000 A   T                 4332 4332                                                                   
 IEFJESCT      1 00000000 00000000 A   T                 4432 4432                                                                   
 IEFLINK       1 00000000 00000000 A   T                 4167 4167                                                                   
 IEFQMWR       1 00000000 00000000 A   T                 4283 4283                                                                   
 IEFSSSA       1 00000000 FFFFFFF4     J                 2230  225U                                                                  
 IEWFBOSV      1 00000000 00000000 A   T                 4260 4260                                                                   
 IEWMSEPT      1 00000000 00000000 A   T                 4796 4796                                                                   
 IFBDCB        1 00000000 00000000 A   T                 4249 4249                                                                   
 IFDOLT0A      1 00000000 00000000 A   T                 4642 4642                                                                   
 IFGDEBVR      1 00000000 00000000 A   T                 5335 5335                                                                   
 IGC043BR      1 00000000 00000000 A   T                 4687 4687                                                                   
 IGC044R2      1 00000000 00000000 A   T                 4798 4798                                                                   
 IGC062R1      1 00000000 00000000 A   T                 4768 4768                                                                   
 IGC07903      1 00000000 00000000 A   T                 4914 4914                                                                   
 IGC124        1 00000000 00000000 A   T                 4930 4930                                                                   
 IGFRVT        1 00000000 00000000 A   T                 4347 4347                                                                   
 IGVCPBDB      1 00000000 00000000 A   T                 5045 5045                                                                   
 IGVCPDLB      1 00000000 00000000 A   T                 5047 5047                                                                   
 IGVCPFRE      1 00000000 00000000 A   T                 5037 5037                                                                   
 IGVCPGTC      1 00000000 00000000 A   T                 5035 5035                                                                   
 IGVCPGUB      1 00000000 00000000 A   T                 5029 5029                                                                   
 IGVCPGUP      1 00000000 00000000 A   T                 5032 5032                                                                   
 IGVCPGUS      1 00000000 00000000 A   T                 5055 5055                                                                   
 IGVGCAS       1 00000000 00000000 A   T                 4681 4681                                                                   
 IGVGFAS       1 00000000 00000000 A   T                 4685 4685                                                                   
 IGVGRRGN      1 00000000 00000000 A   T                 5059 5059                                                                   
 IGVGVRGN      1 00000000 00000000 A   T                 5061 5061                                                                   
 IGVQSPET      1 00000000 00000000 A   T                 4683 4683                                                                   
 IGVSLIST      1 00000000 00000000 A   T                 5039 5039                                                                   
 IGVSLOC       1 00000000 00000000 A   T                 5043 5043                                                                   
 IGVSREGN      1 00000000 00000000 A   T                 5041 5041                                                                   
 IGVSTSKI      1 00000000 00000000 A   T                 5026 5026                                                                   
 IHB0004C      2 00000024 00000001     H  H                73   67B                                                                  
1QUERYSMS                       Ordinary Symbol and Literal Cross Reference                                     Page  115            
-Symbol   Length   Value     Id    R Type Asm  Program   Defn References                     HLASM R6.0  2012/02/10 10.07            
0IHB0004F      1 00000020 00000001     B  B                69   75                                                                   
 IHB0004L      4 0000001C 00000001     A  A                68   74                                                                   
 IHB0006C      2 000000F8 00000001     H  H               142  136B                                                                  
 IHB0006F      1 000000F4 00000001     B  B               138  144                                                                   
 IHB0006L      4 000000F0 00000001     A  A               137  143                                                                   
 IHB0008F      1 0000011C 00000001     B  B               156  161                                                                   
 IHB0010F      1 00000190 00000001     B  B               192  197                                                                   
 ILRJTERM      1 00000000 00000000 A   T                 4968 4968                                                                   
 IOSVDEVN      1 00000000 00000000 A   T                 4985 4985                                                                   
 IOSVHID       1 00000000 00000000 A   T                 4995 4995                                                                   
 IOSVSUCB      1 00000000 00000000 A   T                 4998 4998                                                                   
 IRARMCNS      1 00000000 00000000 A   T                 4738 4738                                                                   
 IRARMEPS      1 00000000 00000000 A   T                 4957 4957                                                                   
 IRARMI00      1 00000000 00000000 A   T                 4694 4694                                                                   
 IRXEXTE       1 00000000 FFFFFFF8     J                  871  300   338                                                             
 IRXSAY        4 00000050 FFFFFFF8     A  A               912  338                                                                   
 IRXSTK        4 0000002C FFFFFFF8     A  A               894  300                                                                   
 ISNBRNCH      1 00000000 00000000 A   T                 4853 4853                                                                   
 JESCT         1 00000000 FFFFFFE8     J                 5724  217   277  5948                                                       
 JESCTEXT      4 00000064 FFFFFFE8     A  A              5824  217                                                                   
 JESPEXT       1 00000000 FFFFFFE7     J                 5842  218                                                                   
 JESSMSIB      4 00000054 FFFFFFE7     A  A              5874  218                                                                   
 JESSSREQ      4 00000014 FFFFFFE8     A  A              5735  277                                                                   
 LDATA         1 0000015C FFFFFFFF A   U                  432   68   191                                                             
 MAIN          4 000000EC 00000001     I                  136  118B  125B  129B                                                      
 NEXLINE       6 0000038A 00000001     I                  356  367B                                                                  
 NEXT          4 0000032C 00000001     I                  324  330B                                                                  
 NSSI0014      1 000002B4 00000001     U                  282  279B                                                                  
 PARM1         3 00000098 FFFFFFFF     C  C               420   91M   91   115   117   119   122   124   130M  233   237   243   249 
 PARM2        30 0000009B FFFFFFFF     C  C               421   92M  127   131M  241   247   253                                     
 PARM2L        2 000000BA FFFFFFFF     H  H               422  110M  246                                                             
 PTRSSOB       4 000000C0 FFFFFFFF     F  F               424  220M  264                                                             
 QUERYSMS      1 00000000 00000001     J                   31   32    33    61U 6211                                                 
 RMBRANCH      1 00000000 00000000 A   T                 4864 4864                                                                   
 RWRITEER      4 000003B2 00000001     I                  368  358B                                                                  
 R0            1 00000000 00000001 A   U                   36   62   227M  228   325M  362M                                          
 R1            1 00000001 00000001 A   U                   37   63    79    93M   94M   94   103M  104M  104   130   131   147   150M
                                                               167M  171   173M  177M  182M  183   185M  215M  216M  216   217M  217 
                                                               218   261M  262   264M  289M  290M  290   299M  300   303M  304   305M
                                                               306   307M  308   309M  310   311M  312   313M  314M  315   327M  353 
                                                               364M                                                                  
 R10           1 0000000A 00000001 A   U                   46   63M   84U                                                            
 R11           1 0000000B 00000001 A   U                   47   62M   83U  169M  175M  179M  184M  184   199   301   325   339   362 
 R12           1 0000000C 00000001 A   U                   48   60M   61U                                                            
 R13           1 0000000D 00000001 A   U                   49   78    79M   80    81    82U  185   186M                              
 R14           1 0000000E 00000001 A   U                   50  148M  149M  168M  174M  178M  207   293M  294B  297   328M  331M  332B
                                                               335   365M  368M  369B                                                
 R15           1 0000000F 00000001 A   U                   51   60    78M   80    81   165   199M  287M  287   326M  328B  363M  365B
 R2            1 00000002 00000001 A   U                   38   96M   98   100M  101   106M  108   110   111M  112   210M  211U  219M
                                                               220   292D  317M  318U  322M  323D  324   329M  337M  338   341M  342 
                                                               343M  344   345M  346   347M  348   349M  350M  351   356M  357M  357 
                                                               361   366                                                             
 R3            1 00000003 00000001 A   U                   39  223M  224   225U  292D  319M  330M  353M  356   359M  359   360   366M
 R4            1 00000004 00000001 A   U                   40  320M  321   329                                                       
 R7            1 00000007 00000001 A   U                   43  300M  326   338M  363                                                 
1QUERYSMS                       Ordinary Symbol and Literal Cross Reference                                     Page  116            
-Symbol   Length   Value     Id    R Type Asm  Program   Defn References                     HLASM R6.0  2012/02/10 10.07            
0R8            1 00000008 00000001 A   U                   44   86U   89M  102M                                                      
 R9            1 00000009 00000001 A   U                   45   85U   87M   88M   88                                                 
 SAVEDAT       1 000002CE 00000001     U                  296  149B                                                                  
 SCALLSMS      4 0000004C FFFFFFFF     F  F               409  207M  293                                                             
 SGD           1 00000000 FFFFFFE4     C  C              6063 6068  6080  6082  6084  6116  6126  6142  6149  6153                   
 SGDSYSDT      1 00000000 FFFFFFE3     J                 6175 6177  6181                                                             
 SRTEASCI      1 00000004 FFFFFFF7 A   U                 1968 1969                                                                   
 SRTEBSTR      1 00000004 FFFFFFF7 A   U                 1967 1970                                                                   
 SSAVEDAT      4 00000048 FFFFFFFF     F  F               408  297M  331                                                             
 SSOB          1 00000000 FFFFFFF5     J                 2195  211U                                                                  
 SSOBEGIN      1 00000000 FFFFFFF5     U                 2196 2228                                                                   
 SSOBFUNC      2 00000006 FFFFFFF5     H  H              2199  214M                                                                  
 SSOBHSIZ      1 0000001C FFFFFFF5 A   U                 2228  396   426  2198                                                       
 SSOBID        4 00000000 FFFFFFF5     C  C              2197  212M                                                                  
 SSOBINDV      4 00000010 FFFFFFF5     F  F              2221  224M                                                                  
 SSOBLEN       2 00000004 FFFFFFF5     R  A              2198  213M                                                                  
 SSOBSSIB      4 00000008 FFFFFFF5     A  A              2200  218M                                                                  
 SSOBSSMS      1 00000037 FFFFFFED A   U                 3173  397                                                                   
 SSOBSSVR      1 00000001 FFFFFFED A   U                 3174  398                                                                   
 SSSA         48 00000000 FFFFFFF4     C  C              2236 2252  2254  2262  2269  2275  2299  2331  2339  2422  2470  2514  2520 
                                                              2527  2572  2632  2665  2700  2724  2821  2843  2858  2897  2977  3003 
                                                              3042                                                                   
 SSSAA        88 00000030 FFFFFFF4     C  C              2573 2578  2598  2608  2618                                                 
 SSSAACTV      1 00000001 FFFFFFED A   U                 3150  399                                                                   
 SSSAB       152 00000030 FFFFFFF4     C  C              2633 2635  2642  2651  2656                                                 
 SSSABEX2      1 00000000 FFFFFFF0     J                 3109 3112                                                                   
 SSSAC       144 00000030 FFFFFFF4     C  C              2666 2668  2673  2682  2687  2699                                           
 SSSACEX2      1 00000000 FFFFFFEE     J                 3131 3134                                                                   
 SSSAD       288 00000030 FFFFFFF4     C  C              2701 2705  2719                                                             
 SSSAE       435 00000030 FFFFFFF4     C  C              2725 2762  2776  2780  2784                                                 
 SSSAID        4 00000002 FFFFFFF4     C  C              2238  226M                                                                  
 SSSAIDPL      1 00000000 FFFFFFED     J                 3137 3139  3144                                                             
 SSSAIFLG      1 0000000C FFFFFFF4     C  C              2243  231M                                                                  
 SSSAJ       320 00000030 FFFFFFF4     C  C              2898 2900  2920  2952  2966  2973                                           
 SSSAK       224 00000030 FFFFFFF4     C  C              3004 3039                                                                   
 SSSAL       224 00000030 FFFFFFF4     C  C              3043 3077                                                                   
 SSSALEN       2 00000000 FFFFFFF4     H  H              2237  228M                                                                  
 SSSALN        1 00000030 FFFFFFED A   U                 3783  227   428                                                             
 SSSANAUT      1 00000080 FFFFFFF4 A   U                 2244  231                                                                   
 SSSARSN       4 00000028 FFFFFFF4     F  F              2272  289                                                                   
 SSSASFN       2 00000008 FFFFFFF4     H  H              2240  230M                                                                  
 SSSAVER       2 00000006 FFFFFFF4     H  H              2239  229M                                                                  
 SSSA1         1 00000030 FFFFFFF4     C  C              2276 2278  2296                                                             
 SSSA1AVL      1 00000014 FFFFFFED A   U                 3805  235                                                                   
 SSSA1CNT      4 0000004C FFFFFFF4     F  F              2292  259M                                                                  
 SSSA1LEN      4 00000040 FFFFFFF4     F  F              2289  260M                                                                  
 SSSA1LN       1 00000020 FFFFFFED A   U                 3784  227   428                                                             
 SSSA1NAM     30 00000052 FFFFFFF4     C  C              2298  241M  247M  253M                                                      
 SSSA1NML      2 00000050 FFFFFFF4     H  H              2297  240M  246M  252M                                                      
 SSSA1PTR      4 0000003C FFFFFFF4     A  A              2288  262M                                                                  
 SSSA1SGL      1 0000000C FFFFFFED A   U                 3797  256                                                                   
 SSSA1SGV      1 00000007 FFFFFFED A   U                 3792  245                                                                   
 SSSA1TYP      1 00000034 FFFFFFF4     R  A              2284  235M  239M  245M  251M  256M                                          
 SSSA1VOL      1 0000000D FFFFFFED A   U                 3798  239                                                                   
 SSSA1VSG      1 00000008 FFFFFFED A   U                 3793  251                                                                   
1QUERYSMS                       Ordinary Symbol and Literal Cross Reference                                     Page  117            
-Symbol   Length   Value     Id    R Type Asm  Program   Defn References                     HLASM R6.0  2012/02/10 10.07            
0SSSA2        48 00000030 FFFFFFF4     C  C              2300 2304  2306                                                             
 SSSA2OAM     33 00000034 FFFFFFF4     C  C              2325 2327                                                                   
 SSSA2REM     36 00000034 FFFFFFF4     C  C              2318 2320                                                                   
 SSSA2SCD     44 00000034 FFFFFFF4     C  C              2303 2317  2324                                                             
 SSSA3        40 00000030 FFFFFFF4     C  C              2332 2334                                                                   
 SSSA5       648 00000030 FFFFFFF4     C  C              2340 2342  2360  2373  2386  2392  2396  2400  2405  2410                   
 SSSA7       104 00000030 FFFFFFF4     C  C              2423 2425  2427  2432  2444  2446  2454  2459                               
 SSSA8       432 00000030 FFFFFFF4     C  C              2471 2473  2494  2501  2503  2505  2508                                     
 SSSA8EXT     48 00000030 FFFFFFF4     C  C              2521 2523  2525                                                             
 SSSA9        64 00000030 FFFFFFF4     C  C              2528 2530  2552  2563                                                       
 SSSA9EXT      1 00000000 FFFFFFF3     J                 3083 3086                                                                   
 SSSA9VLS      1 00000000 FFFFFFF2     J                 3088 3091                                                                   
 SWRITEER      4 00000050 FFFFFFFF     F  F               410  335M  368                                                             
 TYPE          1 000000BC FFFFFFFF     X  X               423  114M  121M                                                            
 UCB           1 00000000 FFFFFFF7     J                 1348 1366  1862                                                             
 UCBALOC       1 00000008 FFFFFFF7 A   U                 1458 1650                                                                   
 UCBBALB       1 00000020 FFFFFFF7 A   U                 1882 1964                                                                   
 UCBBNUL       1 00000001 FFFFFFF7 A   U                 1891 1971                                                                   
 UCBBPRV       1 00000010 FFFFFFF7 A   U                 1884 1965                                                                   
 UCBBPUB       1 00000008 FFFFFFF7 A   U                 1885 1966                                                                   
 UCBBSTR       1 00000004 FFFFFFF7 A   U                 1886 1967  1968                                                             
 UCBBSVL       1 00000080 FFFFFFF7 A   U                 1868 1963                                                                   
 UCBCHGS       1 00000040 FFFFFFF7 A   U                 1448 1647                                                                   
 UCBDADI       1 00000001 FFFFFFF7 A   U                 1477 1653                                                                   
 UCBDEV        1 00000218 FFFFFFF7     U                 1661 1863                                                                   
 UCBDMCT       1 00000223 FFFFFFF7     X  X              1900 1972                                                                   
 UCBFLA        1 00000206 FFFFFFF7     B  B              1489 1490                                                                   
 UCBFL1        1 00000206 FFFFFFF7     U                 1490 1654                                                                   
 UCBJBNR       1 00000200 FFFFFFF7     B  B              1378 1643                                                                   
 UCBMONT       1 00000001 FFFFFFF7 A   U                 1399 1644                                                                   
 UCBNRY        1 00000040 FFFFFFF7 A   U                 1494 1495                                                                   
 UCBONLI       1 00000080 FFFFFFF7 A   U                 1447 1646                                                                   
 UCBPRES       1 00000004 FFFFFFF7 A   U                 1473 1651                                                                   
 UCBPXST       1 000001F8 FFFFFFF7     U                 1353 1365                                                                   
 UCBRESV       1 00000020 FFFFFFF7 A   U                 1453 1648                                                                   
 UCBSTAB       1 00000222 FFFFFFF7     B  B              1867 1962                                                                   
 UCBSTAT       1 00000203 FFFFFFF7     B  B              1446 1645                                                                   
 UCBSYSR       1 00000002 FFFFFFF7 A   U                 1475 1652                                                                   
 UCBUNLD       1 00000010 FFFFFFF7 A   U                 1455 1649                                                                   
 UCBUSER       2 00000226 FFFFFFF7     G  F              1942 1943                                                                   
 UCBVOLI       6 0000021C FFFFFFF7     C  C              1866 1961                                                                   
 VLD           1 00000000 FFFFFFE6     C  C              5958  318U  430  5960  5969  5971  5973  5983  5987  6002                   
 VLDEF       152 00000018 FFFFFFE6     C  C              5970  322   429   430                                                       
 VLDEND        8 000000C8 FFFFFFE6     D  D              6017  429                                                                   
 VLDEND2       8 00000800 FFFFFFE5     D  D              6033  429                                                                   
 VLDLEN        8 000008B0 FFFFFFFF A   U                  429  430                                                                   
 VLDPCNT       4 0000000C FFFFFFE6     F  F              5964  319                                                                   
 VLDPLEN       4 00000014 FFFFFFE6     F  F              5967  320                                                                   
 VLDSYSDT      1 00000000 FFFFFFE5     J                 6025  429  6027                                                             
 WKTBL       152 0043DF18 FFFFFFFF A   U                  430  137   155   394                                                       
 WORKD         8 00000090 FFFFFFFF     D  D               419  165M  166   171M  172                                                 
 WORKSSOB     28 000000C8 FFFFFFFF     X  X               426  209M  209   210                                                       
 WORKSSSA    112 000000E8 FFFFFFFF     X  X               428  222M  222   223                                                       
 WORKVLD       4 00000158 FFFFFFFF     F  F               431  147M  150   261   317                                                 
 WRITEER       1 00000346 00000001     U                  334  168B  174B  178B                                                      
1QUERYSMS                       Ordinary Symbol and Literal Cross Reference                                     Page  118            
-Symbol   Length   Value     Id    R Type Asm  Program   Defn References                     HLASM R6.0  2012/02/10 10.07            
0XSSI0014      1 000002B8 00000001     U                  285  281B                                                                  
 =AL2(SSOBHSIZ)                                                                                                                      
               2 000005C2 00000001     R                  396  213                                                                   
 =AL2(SSOBSSMS)                                                                                                                      
               2 000005C4 00000001     R                  397  214                                                                   
 =AL2(SSOBSSVR)                                                                                                                      
               2 000005C6 00000001     R                  398  229                                                                   
 =AL2(SSSAACTV)                                                                                                                      
               2 000005C8 00000001     R                  399  230                                                                   
 =AL2(6)       2 000005CA 00000001     R                  400  240   252                                                             
 =AL4(WKTBL)                                                                                                                         
               4 000005A0 00000001     R                  394  260                                                                   
 =C'AVL'       3 000005CF 00000001     C                  402  117   233                                                             
 =C'SGL'       3 000005D8 00000001     C                  405  124                                                                   
 =C'SGV'       3 000005D2 00000001     C                  403  119   243                                                             
 =C'SSOB'      4 00000590 00000001     C                  390  212                                                                   
 =C'SSSA'      4 00000598 00000001     C                  392  226                                                                   
 =C'VOL'       3 000005CC 00000001     C                  401  115   237                                                             
 =C'VSG'       3 000005D5 00000001     C                  404  122   249                                                             
 =CL30' '     30 000005A4 00000001     C                  395   92   127                                                             
 =CL8'QUEUE'                                                                                                                         
               8 00000580 00000001     C                  388  302                                                                   
 =CL8'WRITEERR'                                                                                                                      
               8 00000588 00000001     C                  389  340                                                                   
 =F'1'         4 0000059C 00000001     F                  393  259                                                                   
 =X'80000000'                                                                                                                        
               4 00000594 00000001     X                  391  219   314   350                                                       
1QUERYSMS                          Unreferenced Symbols Defined in CSECTs                                       Page  119            
-  Defn  Symbol                                                                              HLASM R6.0  2012/02/10 10.07            
0   232  $C0                                                                                                                         
    293  RCALLSMS                                                                                                                    
    331  RSAVEDAT                                                                                                                    
     41  R5                                                                                                                          
     42  R6                                                                                                                          
1QUERYSMS                                  Macro and Copy Code Source Summary                                   Page  120            
- Con Source                                        Volume    Members                        HLASM R6.0  2012/02/10 10.07            
0  L3 SYS1.MACLIB                                   I17RS2    CVT      FREEMAIN GETMAIN  IEFJESCT IEFJSSOB IEFSSOBH                  
                                                              IEFSSREQ IEFUCBOB IRXARGTB IRXEFPL  IRXENVB  IRXEVALB                  
                                                              IRXEXTE  RETURN   SAVE     SYSSTATE YREGS                              
   L4 SYS1.MODGEN                                   I17RS1    IECDUCBD IEFSSSA  IGDSGD   IGDVLD   IOSDUCBC                           
1QUERYSMS                                        Dsect Cross Reference                                          Page  121            
-Dsect     Length      Id       Defn                                                         HLASM R6.0  2012/02/10 10.07            
0ARGSTRING                                                                                                                           
          00000008  FFFFFFFA     723                                                                                                 
 ARGTABLE_ENTRY                                                                                                                      
          00000008  FFFFFFFB     711                                                                                                 
 CVT      00000500  FFFFFFEC    4157                                                                                                 
 CVTVSTGX 00000050  FFFFFFEB    5270                                                                                                 
 CVTXTNT1 0000000C  FFFFFFEA    5309                                                                                                 
 CVTXTNT2 00000084  FFFFFFE9    5317                                                                                                 
 DATA     0000015C  FFFFFFFF     406                                                                                                 
 DUMMY    00000000  FFFFFFFE     434                                                                                                 
 EFPL     00000018  FFFFFFFC     633                                                                                                 
 ENVBLOCK 00000140  FFFFFFFD     545                                                                                                 
 EVALBLOCK                                                                                                                           
          00000011  FFFFFFF9     797                                                                                                 
 IEFSSSA  00000C30  FFFFFFF4    2230                                                                                                 
 IGDSGD   000002C0  FFFFFFE4    6058                                                                                                 
 IGDVLD   000000C8  FFFFFFE6    5950                                                                                                 
 IRXEXTE  0000006C  FFFFFFF8     871                                                                                                 
 JESCT    00000080  FFFFFFE8    5724                                                                                                 
 JESPEXT  00000098  FFFFFFE7    5842                                                                                                 
 SGDSYSDT 00000800  FFFFFFE3    6175                                                                                                 
 SSOB     0000001C  FFFFFFF5    2195                                                                                                 
 SSSABEX1 00000100  FFFFFFF1    3100                                                                                                 
 SSSABEX2 00000080  FFFFFFF0    3109                                                                                                 
 SSSACEX1 00000100  FFFFFFEF    3122                                                                                                 
 SSSACEX2 00000080  FFFFFFEE    3131                                                                                                 
 SSSAIDPL 000011EC  FFFFFFED    3137                                                                                                 
 SSSA9EXT 00000040  FFFFFFF3    3083                                                                                                 
 SSSA9VLS 00000008  FFFFFFF2    3088                                                                                                 
 UCB      00000238  FFFFFFF7    1348                                                                                                 
 UCBCMEXT 00000020  FFFFFFF6    1680                                                                                                 
 VLDSYSDT 00000800  FFFFFFE5    6025                                                                                                 
1QUERYSMS                                              Using Map                                                Page  122            
-                                                                                            HLASM R6.0  2012/02/10 10.07            
   Stmt  -----Location----- Action ----------------Using----------------- Reg Max     Last Label and Using Text                      
           Count      Id           Type          Value    Range     Id        Disp    Stmt                                           
0    61  00000014  00000001 USING  ORDINARY    00000000 00001000 00000001  12 005D8    367 QUERYSMS,R12                              
     82  0000003C  00000001 USING  ORDINARY    00000000 00001000 FFFFFFFF  13 00158    368 DATA,R13                                  
     83  0000003C  00000001 USING  ORDINARY    00000000 00001000 FFFFFFFD  11 0001C    337 ENVBLOCK,R11                              
     84  0000003C  00000001 USING  ORDINARY    00000000 00001000 FFFFFFFC  10 00014     89 EFPL,R10                                  
     85  0000003C  00000001 USING  ORDINARY    00000000 00001000 FFFFFFF9   9 00010    183 EVALBLOCK,R9                              
     86  0000003C  00000001 USING  ORDINARY    00000000 00001000 FFFFFFFB   8 00008    106 ARGTABLE_ENTRY,R8                         
    211  000001B8  00000001 USING  ORDINARY    00000000 00001000 FFFFFFF5   2 00010    224 SSOB,R2                                   
    225  000001F2  00000001 USING  ORDINARY    00000000 00001000 FFFFFFF4   3 00052    289 IEFSSSA,R3                                
    292  000002C8  00000001 DROP                                            2              R2                                        
    292  000002C8  00000001 DROP                                            3              R3                                        
    318  0000031C  00000001 USING  ORDINARY    00000000 00001000 FFFFFFE6   2 00018    322 VLD,R2                                    
    323  0000032C  00000001 DROP                                            2              R2                                        
1                                   General Purpose Register Cross Reference                                    Page  123            
- Register  References (M=modified, B=branch, U=USING, D=DROP, N=index)                      HLASM R6.0  2012/02/10 10.07            
0    0(0)      59    62    74M  143M  160M  196M  203M  227M  228   325M  362M                                                       
     1(1)      59    63    76M   76    79    93M   94M   94   103M  104M  104   130   131   145M  145   147   150M  167M  171   173M 
              177M  182M  183   185M  203M  215M  216M  216   217M  217   218   261M  262   264M  289M  290M  290   299M  300   303M 
              304   305M  306   307M  308   309M  310   311M  312   313M  314M  315   327M  353   364M                               
     2(2)      59    96M   98   100M  101   106M  108   110   111M  112   203M  210M  211U  219M  220   292D  317M  318U  322M  323D 
              324   329M  337M  338   341M  342   343M  344   345M  346   347M  348   349M  350M  351   356M  357M  357   361   366  
     3(3)      59   203M  223M  224   225U  292D  319M  330M  353M  356   359M  359   360   366M                                     
     4(4)      59   203M  320M  321   329                                                                                            
     5(5)      59   203M                                                                                                             
     6(6)      59   203M                                                                                                             
     7(7)      59   203M  300M  326   338M  363                                                                                      
     8(8)      59    86U   89M  102M  203M                                                                                           
     9(9)      59    85U   87M   88M   88   203M                                                                                     
    10(A)      59    63M   84U  203M                                                                                                 
    11(B)      59    62M   83U  169M  175M  179M  184M  184   199   203M  301   325   339   362  4606B 4607B                         
    12(C)      59    60M   61U  203M                                                                                                 
    13(D)      59    78    79M   80    81    82U  185   186M  186   202   203                                                        
    14(E)      59   148M  149M  168M  174M  178M  202M  204B  207   280M  293M  294B  297   328M  331M  332B  335   365M  368M  369B 
    15(F)      56    59    60    75M   78M   80    81N  144M  161M  165   197M  199M  273M  275M  275   277M  277   278M  278   280B 
              283M  287M  287   326M  328B  363M  365B 5069M 5069                                                                    
1QUERYSMS                          Diagnostic Cross Reference and Assembler Summary                             Page  124            
-                                                                                            HLASM R6.0  2012/02/10 10.07            
0     No Statements Flagged in this Assembly                                                                                         
 HIGH LEVEL ASSEMBLER, 5696-234, RELEASE 6.0, PTF UK67595                                                                            
0SYSTEM: z/OS 01.12.00              JOBNAME: TSH0094     STEPNAME: STEP1      PROCSTEP: (NOPROC)                                     
0Data Sets Allocated for this Assembly                                                                                               
  Con DDname   Data Set Name                                Volume  Member                                                           
   P1 SYSIN    /home/tsh009/utilities-1/querysms.s                                                                                   
   L1 SYSLIB   /home/tsh009/maclib                                                                                                   
   L2          CEE.SCEEMAC                                  I17RS3                                                                   
   L3          SYS1.MACLIB                                  I17RS2                                                                   
   L4          SYS1.MODGEN                                  I17RS1                                                                   
      SYSADATA /home/tsh009/utilities-1/querysms.ad                                                                                  
      SYSLIN   /home/tsh009/utilities-1/querysms.o                                                                                   
      SYSPRINT /home/tsh009/utilities-1/querysms.listing                                                                             
      SYSTERM  /dev/fd2                                                                                                              
                                                                                                                                     
 1890504K allocated to Buffer Pool       Storage required    2960K                                                                   
     335 Primary Input Records Read        17912 Library Records Read                  0 Work File Reads                             
       0 ASMAOPT Records Read               6686 Primary Print Records Written         0 Work File Writes                            
      30 Object Records Written            11989 ADATA Records Written                                                               
0Assembly Start Time: 10.07.15 Stop Time: 10.07.16 Processor Time: 00.00.00.3223                                                     
 Return Code 000                                                                                                                     
