1                                         High Level Assembler Option Summary                   (PTF UK67595)   Page    1            
-                                                                                            HLASM R6.0  2012/02/09 11.03            
0  No Overriding ASMAOPT Parameters                                                                                                  
   Overriding Parameters-  OBJECT,LIST(MAX),TERM,ASA,ADATA,ADATA                                                                     
   Process Statements-     ALIGN,NOCOMPAT,DXREF,FLAG(ALIGN,CONT,RECORD)                                                              
                           NOFOLD,NOINFO,PC(ON,DATA,GEN,MCALL),RENT,                                                                 
                           RA2,NORLD,MXREF(FULL),RXREF,USING(MAP,WARN(13))                                                           
                           TYPECHECK(NOMAGNITUDE,REGISTER),XREF(FULL)                                                                
                                                                                                                                     
                                                                                                                                     
   Options for this Assembly                                                                                                         
03   ADATA                                                                                                                           
 5   ALIGN                                                                                                                           
 3   ASA                                                                                                                             
     BATCH                                                                                                                           
     CODEPAGE(047C)                                                                                                                  
 5 NOCOMPAT                                                                                                                          
   NODBCS                                                                                                                            
   NODECK                                                                                                                            
 5   DXREF                                                                                                                           
     ESD                                                                                                                             
   NOEXIT                                                                                                                            
 5   FLAG(0,ALIGN,CONT,EXLITW,NOIMPLEN,NOPAGE0,PUSH,RECORD,NOSUBSTR,USING0)                                                          
 5 NOFOLD                                                                                                                            
   NOGOFF                                                                                                                            
 5 NOINFO                                                                                                                            
     LANGUAGE(EN)                                                                                                                    
   NOLIBMAC                                                                                                                          
     LINECOUNT(60)                                                                                                                   
 3   LIST(MAX)                                                                                                                       
     MACHINE(,NOLIST)                                                                                                                
 5   MXREF(FULL)                                                                                                                     
 3   OBJECT                                                                                                                          
     OPTABLE(UNI,NOLIST)                                                                                                             
 5   PCONTROL(DATA,GEN,MCALL,ON)                                                                                                     
   NOPESTOP                                                                                                                          
   NOPROFILE                                                                                                                         
 5   RA2                                                                                                                             
 5   RENT                                                                                                                            
 5 NORLD                                                                                                                             
 5   RXREF                                                                                                                           
     SECTALGN(8)                                                                                                                     
     SIZE(MAX)                                                                                                                       
   NOSUPRWARN                                                                                                                        
     SYSPARM()                                                                                                                       
 3   TERM(WIDE)                                                                                                                      
   NOTEST                                                                                                                            
     THREAD                                                                                                                          
   NOTRANSLATE                                                                                                                       
 5   TYPECHECK(NOMAGNITUDE,REGISTER)                                                                                                 
 5   USING(NOLIMIT,MAP,WARN(13))                                                                                                     
   NOWORKFILE                                                                                                                        
 5   XREF(FULL)                                                                                                                      
                                                                                                                                     
   Standard   DD Names- SYSLIN   SYSLIB   SYSIN    SYSPRINT SYSPUNCH SYSUT1   SYSTERM  SYSADATA ASMAOPT                              
   Overriding DD Names- SYS00014 SYS00004 SYS00012 SYS00013                   SYS00011 SYS00015                                      
1                                              External Symbol Dictionary                                       Page    2            
-Symbol   Type   Id     Address  Length   Owner Id Flags Alias-of                            HLASM R6.0  2012/02/09 11.03            
0STORGRUP  SD 00000001 00000000 0000013C             07                                                                              
 CEEINT    ER 00000002                                                                                                               
 CEEMAIN   SD 00000003 00000140 00000008             07                                                                              
 CEETREC   ER 00000004                                                                                                               
 CEESTART  ER 00000005                                                                                                               
 CEEBETBL  ER 00000006                                                                                                               
1                                                                                                               Page    3            
   Active Usings: None                                                                                                               
0  Loc    Object Code      Addr1    Addr2    Stmt  Source Statement                          HLASM R6.0  2012/02/09 11.03            
0                                               1 *PROCESS ALIGN,NOCOMPAT,DXREF,FLAG(ALIGN,CONT,RECORD)                              
                                                2 *PROCESS NOFOLD,NOINFO,PC(ON,DATA,GEN,MCALL),RENT,                                 
                                                3 *PROCESS RA2,NORLD,MXREF(FULL),RXREF,USING(MAP,WARN(13))                           
                                                4 *PROCESS TYPECHECK(NOMAGNITUDE,REGISTER),XREF(FULL)                                
                                                5 *WARNING - THIS PROGRAM REQUIRES THE HIGH-LEVEL ASSEMBLER                          
                                                6 *          AS WELL AS LE/370                                                       
                                                7 *          THIS PROGRAM IS RE-ENTRANT.                                             
                                                8          PUSH  PRINT                                                               
                                                9          PRINT NOGEN                                                               
                                               10 &NL      SETC  BYTE(21)                                                            
                                               11 &TAB     SETC  BYTE(05)                                                            
                                               12          IEABRCX DEFINE                                                            
                                               13+         PUSH  PRINT,NOPRINT                                            01-IEABRCX 
                                               14+         PRINT OFF,NOPRINT                                              01-IEABRCX 
                                               15+***********************************************************************            
                                               16+*                                                                     *            
                                               17+*01* MACRO-NAME = IEABRC                                              *            
                                               18+*                                                                     *            
                                               19+*01* DESCRIPTIVE-NAME = RELATIVE BRANCH MACROS                        *            
                                               20+*                                                                     *            
                                               21+*01*  COPYRIGHT =                                                     *            
                                               22+*       LICENSED MATERIALS - PROPERTY OF IBM                          *            
                                               23+*       5694-A01 COPYRIGHT IBM CORP. 2000, 2008                       *            
                                               24+*                                                                     *            
                                               25+*01* STATUS = HBB7750                                                 *            
                                               26+*                                                                     *            
                                               27+*01* EXTERNAL CLASSIFICATION: PI                                      *            
                                               28+*01* END OF EXTERNAL CLASSIFICATION:                                  *            
                                               29+*                                                                     *            
                                               30+*01* FUNCTION = Allow use of OS/390 macros within an assembler        *            
                                               31+*       routine that uses relative branching                          *            
                                               32+*       It defines macros to intercept and change various             *            
                                               33+*       base-displacement branch instructions to their                *            
                                               34+*       relative branch equivalents.                                  *            
                                               35+*                                                                     *            
                                               36+*       Specify SYSSTATE ARCHLVL=x where x is a supported value       *            
                                               37+*       other than 0, when using IEABRC. This lets macro expansions   *            
                                               38+*       take advantage of the knowledge of the availability of        *            
                                               39+*       relative branching.                                           *            
                                               40+*                                                                     *            
                                               41+*02* METHOD OF INVOCATION                                             *            
                                               42+*       COPY  IEABRC                                                  *            
                                               43+*       placed prior to any base/displacement branch that needs       *            
                                               44+*       to be converted to a relative branch.                         *            
                                               45+*                                                                     *            
                                               46+*       This will automatically "enable" the conversion.              *            
                                               47+*                                                                     *            
                                               48+*       It is now recommended that instead of this approach you       *            
                                               49+*       invoke IEABRCX DEFINE as that will allow you to take          *            
                                               50+*       better advantage of the IEABRCX DISABLE | ENABLE functions.   *            
                                               51+*                                                                     *            
                                               52+*02* NOTES:                                                           *            
                                               53+*       Branch condition instructions are converted to                *            
                                               54+*       relative branch condition instructions except when:           *            
                                               55+*       - The branch target ends with ")" and                         *            
1                                                                                                               Page    4            
   Active Usings: None                                                                                                               
0  Loc    Object Code      Addr1    Addr2    Stmt  Source Statement                          HLASM R6.0  2012/02/09 11.03            
0                                              56+*         a "(" in 2nd or subsequent characters of the branch         *            
                                               57+*         target is not preceded by "+" or "-".                       *            
                                               58+*       For example,                                                  *            
                                               59+*         B   X(15)          -- remains base/displacement branch      *            
                                               60+*         B   X+(15)         -- converted to relative branch          *            
                                               61+*         B   X+Y            -- converted to relative branch          *            
                                               62+*                                                                     *            
                                               63+*01* MODULE-TYPE = MACRO                                              *            
                                               64+*                                                                     *            
                                               65+*02* PROCESSOR = HLASM                                                *            
                                               66+*                                                                     *            
                                               67+*01* MACROS = NONE                                                    *            
                                               68+*                                                                     *            
                                               69+*01* PARAMETERS:                                                      *            
                                               70+*        Same as used within assembler instructions                   *            
                                               71+*                                                                     *            
                                               72+*01* CHANGE-ACTIVITY =                                                *            
                                               73+*                                                                     *            
                                               74+*   $L0=64BITSUP HBB7703  980106  PD00XB: 64-BIT ROUTINES             *            
                                               75+*   $L1=ME10226  HBB7750  070501  PD00XB: Enable/Disable              *            
                                               76+*                                                                     *            
                                               77+*01* MNOTES = NONE                                                    *            
                                               78+*                                                                     *            
                                               79+*01* COMPONENT = SC1C5 (SUPERVISOR CONTROL)                           *            
                                               80+*                                                                     *            
                                               81+*01*  DISTRIBUTION-LIBRARY = AMACLIB                                  *            
                                               82+*                                                                     *            
                                               83+***********************************************************************            
                                               84+B_       OPSYN B                                                        01-IEABRCX 
                                               85+BAL_     OPSYN BAL                                                      01-IEABRCX 
                                               86+BAS_     OPSYN BAS                                                      01-IEABRCX 
                                               87+BC_      OPSYN BC                                                       01-IEABRCX 
                                               88+BCT_     OPSYN BCT                                                      01-IEABRCX 
                                               89+BE_      OPSYN BE                                                       01-IEABRCX 
                                               90+BH_      OPSYN BH                                                       01-IEABRCX 
                                               91+BL_      OPSYN BL                                                       01-IEABRCX 
                                               92+BM_      OPSYN BM                                                       01-IEABRCX 
                                               93+BNE_     OPSYN BNE                                                      01-IEABRCX 
                                               94+BNH_     OPSYN BNH                                                      01-IEABRCX 
                                               95+BNL_     OPSYN BNL                                                      01-IEABRCX 
                                               96+BNM_     OPSYN BNM                                                      01-IEABRCX 
                                               97+BNO_     OPSYN BNO                                                      01-IEABRCX 
                                               98+BNP_     OPSYN BNP                                                      01-IEABRCX 
                                               99+BNZ_     OPSYN BNZ                                                      01-IEABRCX 
                                              100+BO_      OPSYN BO                                                       01-IEABRCX 
                                              101+BP_      OPSYN BP                                                       01-IEABRCX 
                                              102+BXH_     OPSYN BXH                                                      01-IEABRCX 
                                              103+BXLE_    OPSYN BXLE                                                     01-IEABRCX 
                                              104+BZ_      OPSYN BZ                                                       01-IEABRCX 
                                              105+*                                                                                  
                                              106          MACRO                                                          02350000   
                                              107 &NAME    B     &WHERE                                                   02400000   
                                              108 &NAME    BC    15,&WHERE                                                02450000   
                                              109          MEND                                                           02500000   
                                              110          MACRO                                                          02550000   
1                                                                                                               Page    5            
   Active Usings: None                                                                                                               
0  Loc    Object Code      Addr1    Addr2    Stmt  Source Statement                          HLASM R6.0  2012/02/09 11.03            
0                                             111 &NAME    BE    &WHERE                                                   02600000   
                                              112 &NAME    BC    8,&WHERE                                                 02650000   
                                              113          MEND                                                           02700000   
                                              114          MACRO                                                          02750000   
                                              115 &NAME    BL    &WHERE                                                   02800000   
                                              116 &NAME    BC    4,&WHERE                                                 02850000   
                                              117          MEND                                                           02900000   
                                              118          MACRO                                                          02950000   
                                              119 &NAME    BH    &WHERE                                                   03000000   
                                              120 &NAME    BC    2,&WHERE                                                 03050000   
                                              121          MEND                                                           03100000   
                                              122          MACRO                                                          03150000   
                                              123 &NAME    BM    &WHERE                                                   03200000   
                                              124 &NAME    BC    4,&WHERE                                                 03250000   
                                              125          MEND                                                           03300000   
                                              126          MACRO                                                          03350000   
                                              127 &NAME    BNE   &WHERE                                                   03400000   
                                              128 &NAME    BC    7,&WHERE                                                 03450000   
                                              129          MEND                                                           03500000   
                                              130          MACRO                                                          03550000   
                                              131 &NAME    BNH   &WHERE                                                   03600000   
                                              132 &NAME    BC    13,&WHERE                                                03650000   
                                              133          MEND                                                           03700000   
                                              134          MACRO                                                          03750000   
                                              135 &NAME    BNL   &WHERE                                                   03800000   
                                              136 &NAME    BC    11,&WHERE                                                03850000   
                                              137          MEND                                                           03900000   
                                              138          MACRO                                                          03950000   
                                              139 &NAME    BNM   &WHERE                                                   04000000   
                                              140 &NAME    BC    11,&WHERE                                                04050000   
                                              141          MEND                                                           04100000   
                                              142          MACRO                                                          04150000   
                                              143 &NAME    BNO   &WHERE                                                   04200000   
                                              144 &NAME    BC    14,&WHERE                                                04250000   
                                              145          MEND                                                           04300000   
                                              146          MACRO                                                          04350000   
                                              147 &NAME    BNP   &WHERE                                                   04400000   
                                              148 &NAME    BC    13,&WHERE                                                04450000   
                                              149          MEND                                                           04500000   
                                              150          MACRO                                                          04550000   
                                              151 &NAME    BNZ   &WHERE                                                   04600000   
                                              152 &NAME    BC    7,&WHERE                                                 04650000   
                                              153          MEND                                                           04700000   
                                              154          MACRO                                                          04750000   
                                              155 &NAME    BO    &WHERE                                                   04800000   
                                              156 &NAME    BC    1,&WHERE                                                 04850000   
                                              157          MEND                                                           04900000   
                                              158          MACRO                                                          04950000   
                                              159 &NAME    BP    &WHERE                                                   05000000   
                                              160 &NAME    BC    2,&WHERE                                                 05050000   
                                              161          MEND                                                           05100000   
                                              162          MACRO                                                          05150000   
                                              163 &NAME    BZ    &WHERE                                                   05200000   
                                              164 &NAME    BC    8,&WHERE                                                 05250000   
                                              165          MEND                                                           05300000   
1                                                                                                               Page    6            
   Active Usings: None                                                                                                               
0  Loc    Object Code      Addr1    Addr2    Stmt  Source Statement                          HLASM R6.0  2012/02/09 11.03            
0                                             166          MACRO                                                          05350000   
                                              167 &NAME    BC    &COND,&WHERE                                             05400000   
                                              168          LCLA  &I,&X                                                    05450000   
                                              169          LCLC  &C                                                       05500000   
                                              170 &I       SETA  2                                                        05550000   
                                              171 &X       SETA  K'&WHERE                                                 05600000   
                                              172 &C       SETC  '&WHERE'(&X,1)                                           05650000   
                                              173          AIF   ('&C.' NE ')').NEW                                       05700000   
                                              174 .LOOP    ANOP                                                           05750000   
                                              175          AIF   (&I GE &X).NEW                                           05800000   
                                              176          AIF   ('&WHERE'(&I,1) NE '(').NEXT                             05850000   
                                              177          AIF   ('&WHERE'(&I-1,1) EQ '+').NEXT                           05900000   
                                              178          AIF   ('&WHERE'(&I-1,1) NE '-').OLD                            05950000   
                                              179 .NEXT    ANOP                                                           06000000   
                                              180 &I       SETA  &I+1                                                     06050000   
                                              181          AGO   .LOOP                                                    06100000   
                                              182 .NEW     ANOP                                                           06150000   
                                              183 &C       SETC  '  (&SYSMAC(1))'                                         06166600   
                                              184          AIF   ('&C' NE '  (OPEN CODE)').OC                             06183200   
                                              185 &C       SETC  ' '                                                      06199800   
                                              186 .OC      ANOP                                                           06216400   
                                              187 &NAME    BRC   &COND,&WHERE&C                                           06233000   
                                              188          MEXIT                                                          06250000   
                                              189 .OLD     ANOP                                                           06300000   
                                              190 &NAME    BC_   &COND,&WHERE                                             06350000   
                                              191          MEND                                                           06400000   
                                              192+*                                                                                  
                                              193          MACRO                                                          06500000   
                                              194 &NAME    BCT   &REG,&WHERE                                              06550000   
                                              195          LCLA  &I,&X                                                    06600000   
                                              196          LCLC  &C                                                       06650000   
                                              197 &I       SETA  2                                                        06700000   
                                              198 &X       SETA  K'&WHERE                                                 06750000   
                                              199 &C       SETC  '&WHERE'(&X,1)                                           06800000   
                                              200          AIF   ('&C.' NE ')').NEW                                       06850000   
                                              201 .LOOP    ANOP                                                           06900000   
                                              202          AIF   (&I GE &X).NEW                                           06950000   
                                              203          AIF   ('&WHERE'(&I,1) NE '(').NEXT                             07000000   
                                              204          AIF   ('&WHERE'(&I-1,1) EQ '+').NEXT                           07050000   
                                              205          AIF   ('&WHERE'(&I-1,1) NE '-').OLD                            07100000   
                                              206 .NEXT    ANOP                                                           07150000   
                                              207 &I       SETA  &I+1                                                     07200000   
                                              208          AGO   .LOOP                                                    07250000   
                                              209 .NEW     ANOP                                                           07300000   
                                              210 &C       SETC  '  (&SYSMAC(1))'                                         07316600   
                                              211          AIF   ('&C' NE '  (OPEN CODE)').OC                             07333200   
                                              212 &C       SETC  ' '                                                      07349800   
                                              213 .OC      ANOP                                                           07366400   
                                              214 &NAME    BRCT  &REG,&WHERE&C                                            07383000   
                                              215          MEXIT                                                          07400000   
                                              216 .OLD     ANOP                                                           07450000   
                                              217 &NAME    BCT_  &REG,&WHERE                                              07500000   
                                              218          MEND                                                           07550000   
                                              219+*                                                                                  
                                              220          MACRO                                                          07650000   
1                                                                                                               Page    7            
   Active Usings: None                                                                                                               
0  Loc    Object Code      Addr1    Addr2    Stmt  Source Statement                          HLASM R6.0  2012/02/09 11.03            
0                                             221 &NAME    BXLE  &REG,&REG2,&WHERE                                        07700000   
                                              222          LCLA  &I,&X                                                    07750000   
                                              223          LCLC  &C                                                       07800000   
                                              224 &I       SETA  2                                                        07850000   
                                              225 &X       SETA  K'&WHERE                                                 07900000   
                                              226 &C       SETC  '&WHERE'(&X,1)                                           07950000   
                                              227          AIF   ('&C.' NE ')').NEW                                       08000000   
                                              228 .LOOP    ANOP                                                           08050000   
                                              229          AIF   (&I GE &X).NEW                                           08100000   
                                              230          AIF   ('&WHERE'(&I,1) NE '(').NEXT                             08150000   
                                              231          AIF   ('&WHERE'(&I-1,1) EQ '+').NEXT                           08200000   
                                              232          AIF   ('&WHERE'(&I-1,1) NE '-').OLD                            08250000   
                                              233 .NEXT    ANOP                                                           08300000   
                                              234 &I       SETA  &I+1                                                     08350000   
                                              235          AGO   .LOOP                                                    08400000   
                                              236 .NEW     ANOP                                                           08450000   
                                              237 &C       SETC  '  (&SYSMAC(1))'                                         08466600   
                                              238          AIF   ('&C' NE '  (OPEN CODE)').OC                             08483200   
                                              239 &C       SETC  ' '                                                      08499800   
                                              240 .OC      ANOP                                                           08516400   
                                              241 &NAME    BRXLE &REG,&REG2,&WHERE&C                                      08533000   
                                              242          MEXIT                                                          08550000   
                                              243 .OLD     ANOP                                                           08600000   
                                              244 &NAME    BXLE_ &REG,&REG2,&WHERE                                        08650000   
                                              245          MEND                                                           08700000   
                                              246+*                                                                                  
                                              247          MACRO                                                          08800000   
                                              248 &NAME    BXH   &REG,&REG2,&WHERE                                        08850000   
                                              249          LCLA  &I,&X                                                    08900000   
                                              250          LCLC  &C                                                       08950000   
                                              251 &I       SETA  2                                                        09000000   
                                              252 &X       SETA  K'&WHERE                                                 09050000   
                                              253 &C       SETC  '&WHERE'(&X,1)                                           09100000   
                                              254          AIF   ('&C.' NE ')').NEW                                       09150000   
                                              255 .LOOP    ANOP                                                           09200000   
                                              256          AIF   (&I GE &X).NEW                                           09250000   
                                              257          AIF   ('&WHERE'(&I,1) NE '(').NEXT                             09300000   
                                              258          AIF   ('&WHERE'(&I-1,1) EQ '+').NEXT                           09350000   
                                              259          AIF   ('&WHERE'(&I-1,1) NE '-').OLD                            09400000   
                                              260 .NEXT    ANOP                                                           09450000   
                                              261 &I       SETA  &I+1                                                     09500000   
                                              262          AGO   .LOOP                                                    09550000   
                                              263 .NEW     ANOP                                                           09600000   
                                              264 &C       SETC  '  (&SYSMAC(1))'                                         09616600   
                                              265          AIF   ('&C' NE '  (OPEN CODE)').OC                             09633200   
                                              266 &C       SETC  ' '                                                      09649800   
                                              267 .OC      ANOP                                                           09666400   
                                              268 &NAME    BRXH  &REG,&REG2,&WHERE&C                                      09683000   
                                              269          MEXIT                                                          09700000   
                                              270 .OLD     ANOP                                                           09750000   
                                              271 &NAME    BXH_  &REG,&REG2,&WHERE                                        09800000   
                                              272          MEND                                                           09850000   
                                              273+*                                                                                  
                                              274          MACRO                                                          09950000   
                                              275 &NAME    BAL   &REG,&WHERE                                              10000000   
1                                                                                                               Page    8            
   Active Usings: None                                                                                                               
0  Loc    Object Code      Addr1    Addr2    Stmt  Source Statement                          HLASM R6.0  2012/02/09 11.03            
0                                             276          LCLA  &I,&X                                                    10050000   
                                              277          LCLC  &C                                                       10100000   
                                              278 &I       SETA  2                                                        10150000   
                                              279 &X       SETA  K'&WHERE                                                 10200000   
                                              280 &C       SETC  '&WHERE'(&X,1)                                           10250000   
                                              281          AIF   ('&C.' NE ')').NEW                                       10300000   
                                              282 .LOOP    ANOP                                                           10350000   
                                              283          AIF   (&I GE &X).NEW                                           10400000   
                                              284          AIF   ('&WHERE'(&I,1) NE '(').NEXT                             10450000   
                                              285          AIF   ('&WHERE'(&I-1,1) EQ '+').NEXT                           10500000   
                                              286          AIF   ('&WHERE'(&I-1,1) NE '-').OLD                            10550000   
                                              287 .NEXT    ANOP                                                           10600000   
                                              288 &I       SETA  &I+1                                                     10650000   
                                              289          AGO   .LOOP                                                    10700000   
                                              290 .NEW     ANOP                                                           10750000   
                                              291 &C       SETC  '  (&SYSMAC(1))'                                         10766600   
                                              292          AIF   ('&C' NE '  (OPEN CODE)').OC                             10783200   
                                              293 &C       SETC  ' '                                                      10799800   
                                              294 .OC      ANOP                                                           10816400   
                                              295 &NAME    BRAS  &REG,&WHERE&C                                            10833000   
                                              296          MEXIT                                                          10850000   
                                              297 .OLD     ANOP                                                           10900000   
                                              298 &NAME    BAL_  &REG,&WHERE                                              10950000   
                                              299          MEND                                                           11000000   
                                              300+*                                                                                  
                                              301          MACRO                                                          11100000   
                                              302 &NAME    BAS   &REG,&WHERE                                              11150000   
                                              303          LCLA  &I,&X                                                    11200000   
                                              304          LCLC  &C                                                       11250000   
                                              305 &I       SETA  2                                                        11300000   
                                              306 &X       SETA  K'&WHERE                                                 11350000   
                                              307 &C       SETC  '&WHERE'(&X,1)                                           11400000   
                                              308          AIF   ('&C.' NE ')').NEW                                       11450000   
                                              309 .LOOP    ANOP                                                           11500000   
                                              310          AIF   (&I GE &X).NEW                                           11550000   
                                              311          AIF   ('&WHERE'(&I,1) NE '(').NEXT                             11600000   
                                              312          AIF   ('&WHERE'(&I-1,1) EQ '+').NEXT                           11650000   
                                              313          AIF   ('&WHERE'(&I-1,1) NE '-').OLD                            11700000   
                                              314 .NEXT    ANOP                                                           11750000   
                                              315 &I       SETA  &I+1                                                     11800000   
                                              316          AGO   .LOOP                                                    11850000   
                                              317 .NEW     ANOP                                                           11900000   
                                              318 &C       SETC  '  (&SYSMAC(1))'                                         11916600   
                                              319          AIF   ('&C' NE '  (OPEN CODE)').OC                             11933200   
                                              320 &C       SETC  ' '                                                      11949800   
                                              321 .OC      ANOP                                                           11966400   
                                              322 &NAME    BRAS  &REG,&WHERE&C                                            11983000   
                                              323          MEXIT                                                          12000000   
                                              324 .OLD     ANOP                                                           12050000   
                                              325 &NAME    BAS_  &REG,&WHERE                                              12100000   
                                              326          MEND                                                           12150000   
                                              327+_B_      OPSYN B                                                        01-IEABRCX 
                                              328+_BAL_    OPSYN BAL                                                      01-IEABRCX 
                                              329+_BAS_    OPSYN BAS                                                      01-IEABRCX 
                                              330+_BC_     OPSYN BC                                                       01-IEABRCX 
1                                                                                                               Page    9            
   Active Usings: None                                                                                                               
0  Loc    Object Code      Addr1    Addr2    Stmt  Source Statement                          HLASM R6.0  2012/02/09 11.03            
0                                             331+_BCT_    OPSYN BCT                                                      01-IEABRCX 
                                              332+_BE_     OPSYN BE                                                       01-IEABRCX 
                                              333+_BH_     OPSYN BH                                                       01-IEABRCX 
                                              334+_BL_     OPSYN BL                                                       01-IEABRCX 
                                              335+_BM_     OPSYN BM                                                       01-IEABRCX 
                                              336+_BNE_    OPSYN BNE                                                      01-IEABRCX 
                                              337+_BNH_    OPSYN BNH                                                      01-IEABRCX 
                                              338+_BNL_    OPSYN BNL                                                      01-IEABRCX 
                                              339+_BNM_    OPSYN BNM                                                      01-IEABRCX 
                                              340+_BNO_    OPSYN BNO                                                      01-IEABRCX 
                                              341+_BNP_    OPSYN BNP                                                      01-IEABRCX 
                                              342+_BNZ_    OPSYN BNZ                                                      01-IEABRCX 
                                              343+_BO_     OPSYN BO                                                       01-IEABRCX 
                                              344+_BP_     OPSYN BP                                                       01-IEABRCX 
                                              345+_BXH_    OPSYN BXH                                                      01-IEABRCX 
                                              346+_BXLE_   OPSYN BXLE                                                     01-IEABRCX 
                                              347+_BZ_     OPSYN BZ                                                       01-IEABRCX 
                                              348+         POP   PRINT,NOPRINT                                            01-IEABRCX 
                                              349 *        IEABRCX DISABLE                                                           
                                              350          IEABRCX ENABLE                                                            
                                              351+         PUSH  PRINT,NOPRINT                                            01-IEABRCX 
                                              352+         PRINT OFF,NOPRINT                                              01-IEABRCX 
                                              353+B        OPSYN _B_                                                      01-IEABRCX 
                                              354+BAL      OPSYN _BAL_                                                    01-IEABRCX 
                                              355+BAS      OPSYN _BAS_                                                    01-IEABRCX 
                                              356+BC       OPSYN _BC_                                                     01-IEABRCX 
                                              357+BCT      OPSYN _BCT_                                                    01-IEABRCX 
                                              358+BE       OPSYN _BE_                                                     01-IEABRCX 
                                              359+BH       OPSYN _BH_                                                     01-IEABRCX 
                                              360+BL       OPSYN _BL_                                                     01-IEABRCX 
                                              361+BM       OPSYN _BM_                                                     01-IEABRCX 
                                              362+BNE      OPSYN _BNE_                                                    01-IEABRCX 
                                              363+BNH      OPSYN _BNH_                                                    01-IEABRCX 
                                              364+BNL      OPSYN _BNL_                                                    01-IEABRCX 
                                              365+BNM      OPSYN _BNM_                                                    01-IEABRCX 
                                              366+BNO      OPSYN _BNO_                                                    01-IEABRCX 
                                              367+BNP      OPSYN _BNP_                                                    01-IEABRCX 
                                              368+BNZ      OPSYN _BNZ_                                                    01-IEABRCX 
                                              369+BO       OPSYN _BO_                                                     01-IEABRCX 
                                              370+BP       OPSYN _BP_                                                     01-IEABRCX 
                                              371+BXH      OPSYN _BXH_                                                    01-IEABRCX 
                                              372+BXLE     OPSYN _BXLE_                                                   01-IEABRCX 
                                              373+BZ       OPSYN _BZ_                                                     01-IEABRCX 
                                              374+         POP   PRINT,NOPRINT                                            01-IEABRCX 
                                              375 _BALR    OPSYN BALR                                                                
                                              376 BALR     OPSYN BASR                                                                
                                              377          POP   PRINT                                                               
                                              378 STORGRUP CEEENTRY PPA=STORGRUP_PPA,                                    X           
                                                                 MAIN=YES,                                               X           
                                                                 AUTO=DSASIZE,                                           X           
                                                                 BASE=R11_32                                                         
 00000000                00000000 0000013C    379+STORGRUP CSECT                                                         X01-CEEENTRY
                                                 +               ,                                                                   
                                              380+STORGRUP RMODE ANY                                                @D2A  01-CEEENTRY
                                              381+STORGRUP AMODE ANY                                                @D2A  01-CEEENTRY
1                                                                                                               Page   10            
   Active Usings: None                                                                                                               
0  Loc    Object Code      Addr1    Addr2    Stmt  Source Statement                          HLASM R6.0  2012/02/09 11.03            
0                                             382+           ENTRY STORGRUP                                               01-CEEENTRY
                                              383+         PUSH  USING                                                    01-CEEENTRY
                                              384+         DROP  ,                                                  @02A  01-CEEENTRY
                     R:F 00000000             385+         USING *,15                                                     01-CEEENTRY
                                              386+         B     CEEZ0003                                                 01-CEEENTRY
                                              387+         BC    15,CEEZ0003                                              02-00000108
 00000000 A7F4 000A               00000014    388+         BRC   15,CEEZ0003  (B)                                         03-00000187
 00000004 00C3C5C5                            389+         DC    X'00C3C5C5'                                              01-CEEENTRY
                         00000098             390+CEEY0003    EQU ((DSASIZE+7)/8)*8 . Size of automatic storage.    @P1A  01-CEEENTRY
 00000008 00000098                            391+         DC    A(CEEY0003)        . Size of automatic storage.    @P1C  01-CEEENTRY
 0000000C 000000C8                            392+         DC    A(STORGRUP_PPA-STORGRUP)                                X01-CEEENTRY
                                                 +                                  . Address of PPA for this program                
                                              393+         B     1(,15)                                                   01-CEEENTRY
                                              394+         BC    15,1(,15)                                                02-00000108
 00000010 47F0 F001               00000001    395+         BC_   15,1(,15)                                                03-00000190
                         00000014             396+CEEZ0003    EQU *                                                       01-CEEENTRY
 00000014 90EC D00C               0000000C    397+         STM   14,12,CEEDSAR14-CEEDSA(13)                               01-CEEENTRY
 00000018 5820 F050               00000050    398+         L     2,CEEINPL0003        R2=addr(CEEINPL)        5@01D @01C  01-CEEENTRY
 0000001C 58F0 F054               00000054    399+         L     15,CEEINT0003        R15=addr(CEEINT)              @01C  01-CEEENTRY
                                              400+         DROP  15                                                 @01A  01-CEEENTRY
 00000020 0DEF                                401+         BALR  14,15                Call CEEINT to init LE              01-CEEENTRY
 00000022 1821                                402+         LR    2,1                  Save input R1 value temporarily     01-CEEENTRY
 00000024 58E0 C2F0               000002F0    403+         L     14,752(,12)          Get EDB address                     01-CEEENTRY
 00000028 9680 E008      00000008             404+         OI    8(14),X'80'          Turn CEEEDBMAINI flag ON            01-CEEENTRY
 0000002C 5810 D04C               0000004C    405+         L     1,CEEDSANAB-CEEDSA(,13)  Get the current NAB             01-CEEENTRY
 00000030 A502 0000               00000000    406+         IILH  0,CEEY0003/65536        Load high half of AUTO size@P1A  01-CEEENTRY
 00000034 A503 0098               00000098    407+         IILL  0,CEEY0003-(CEEY0003/65536*65536)       and low    @P1A  01-CEEENTRY
 00000038 1E01                                408+         ALR   0,1                     Compute new value.               01-CEEENTRY
 0000003A 5500 C00C               0000000C    409+         CL    0,CEECAAEOS-CEECAA(,12)  Compare with EOS.               01-CEEENTRY
 0000003E A7D4 000D               00000058    410+         JNH   CEEX0003                                           @P1C  01-CEEENTRY
 00000042 58F0 C2BC               000002BC    411+         L     15,CEECAAGETS-CEECAA(,12) Get address overflow routine   01-CEEENTRY
 00000046 0DEF                                412+         BALR  14,15                   Get another stack segment.       01-CEEENTRY
 00000048 181F                                413+         LR    1,15                                                     01-CEEENTRY
 0000004A A7F4 0007               00000058    414+         J     CEEX0003                Branch around statics      @P1C  01-CEEENTRY
 0000004E 0000                                   +                                                                                   
 00000050 000000F0                            415+CEEINPL0003    DC    A(CEEINPL)                                   @01A  01-CEEENTRY
 00000054 00000000                            416+CEEINT0003     DC    V(CEEINT)                                    @01A  01-CEEENTRY
                         00000058             417+CEEX0003    EQU *                                                       01-CEEENTRY
 00000058 50D0 1004               00000004    418+         ST    13,CEEDSABKC-CEEDSA(,1)  Set back chain.                 01-CEEENTRY
 0000005C 5000 104C               0000004C    419+         ST    0,CEEDSANAB-CEEDSA(,1)   Set new NAB value               01-CEEENTRY
 00000060 D701 1000 1000 00000000 00000000    420+         XC    CEEDSAFLAGS-CEEDSA(,1),CEEDSAFLAGS-CEEDSA(1) . Clear     01-CEEENTRY
 00000066 5010 D008               00000008    421+         ST    1,CEEDSAFWC-CEEDSA(,13)  Set forward chain.              01-CEEENTRY
 0000006A 18D1                                422+         LR    13,1                    Set save area address            01-CEEENTRY
                                              423+         POP   USING                   Clear any temporary usings @P1M  01-CEEENTRY
                     R:D 00000000             424+         USING CEEDSA,13               Addresability to SF     V1R2M0   01-CEEENTRY
 0000006C D203 D048 C280 00000048 00000280    425+         MVC   CEEDSALWS,CEECAALWS-CEECAA(12) Get LWS addr     V1R2M0   01-CEEENTRY
 00000072 1812                                426+         LR    1,2                     Move input r1 value to PARMREG   01-CEEENTRY
 00000074 C0B0 FFFF FFC6          00000000    427+         LARL  R11_32,STORGRUP          Load EP into 1st base reg @P1C  01-CEEENTRY
                     R:B 00000000             428+         USING STORGRUP,R11_32                                    @P1M  01-CEEENTRY
                     R:C 00000000             429          USING CEECAA,R12_32                                                       
                     R:D 00000000             430          USING CEEDSA,R13_32                                                       
 0000007A A7F4 0017               000000A8    431          J     GO                                                                  
 0000007E                                     432 GOBACK   DS    0H                                                                  
                                              433          CEETERM RC=RETURN_CODE,                                       X           
                                                                 MF=(E,CEETERM_BLOCK)                                                
1                                                                                                               Page   11            
   Active Usings: STORGRUP,R11  CEECAA,R12  CEEDSA,R13                                                                               
0  Loc    Object Code      Addr1    Addr2    Stmt  Source Statement                          HLASM R6.0  2012/02/09 11.03            
00000007E D203 D088 B0C0 00000088 000000C0    434+         MVC  CEETERM_BLOCK+8,=A(0)  move Modifier to 3rd word of plist 01-CEETERM 
 00000084 D203 D08C D090 0000008C 00000090    435+         MVC  CEETERM_BLOCK+12,RETURN_CODE                             X01-CEETERM 
                                                 +                               move RC to 4th word of plist                        
 0000008A 4110 D088               00000088    436+         LA   1,CEETERM_BLOCK+8                                         01-CEETERM 
 0000008E 5010 D080               00000080    437+         ST   1,CEETERM_BLOCK                                           01-CEETERM 
 00000092 4110 1004               00000004    438+         LA   1,4(,1)                                                   01-CEETERM 
 00000096 5010 D084               00000084    439+         ST   1,CEETERM_BLOCK+4                                         01-CEETERM 
 0000009A 9680 D084      00000084             440+         OI   CEETERM_BLOCK+4,X'80'                                    X01-CEETERM 
                                                 +                                  turn on high order bit                           
 0000009E 4110 D080               00000080    441+         LA   1,CEETERM_BLOCK                                          X01-CEETERM 
                                                 +                        get address of termination list                            
 000000A2 58F0 B0C4               000000C4    442+         L    15,=V(CEETREC)       Get address of termination rtn       01-CEETERM 
 000000A6 0DEF                                443+         BALR 14,15                Call termination routine.            01-CEETERM 
 00000140                00000140 00000008    444+CEEMAIN  CSECT                                                          01-CEETERM 
                                              445+CEEMAIN  RMODE ANY                                                      01-CEETERM 
                                              446+CEEMAIN  AMODE ANY                                                      01-CEETERM 
 00000140 00000000                            447+         DC    A(STORGRUP)                                        @04A  01-CEETERM 
 00000144 00000000                            448+         DC    F'0'                                                     01-CEETERM 
 000000A8                00000000 0000013C    449+STORGRUP   CSECT                                                        01-CEETERM 
 000000A8                                     450 GO       DS    0H                                                                  
                                              451 *                                                                                  
 000000A8 9845 1000               00000000    452          LM    R4_32,R5_32,0(R1_32)                                                
                                              453 * R4_32 Points to the 6 character volser                                           
                                              454 * R5_32 Points to the 8 byte area to receive the SMS storage group                 
 000000AC                                     455 RET0     DS    0H                                                                  
 000000AC D703 D090 D090 00000090 00000090    456          XC    RETURN_CODE,RETURN_CODE                                             
 000000B2 D703 D094 D094 00000094 00000094    457          XC    MODIFIER,MODIFIER                                                   
 000000B8 A7F4 FFE3               0000007E    458          J     GOBACK                                                              
 000000C0                                     459          LTORG *                                                                   
 000000C0 00000000                            460                =A(0)                                                               
 000000C4 00000000                            461                =V(CEETREC)                                                         
                                              462 STORGRUP_PPA CEEPPA LIBRARY=NO,                                        X           
                                                                 PPA2=YES,                                               X           
                                                                 EXTPROC=YES,                                            X           
                                                                 TSTAMP=YES,                                             X           
                                                                 PEP=YES,                                                X           
                                                                 INSTOP=NO,                                              X           
                                                                 EXITDSA=NO,                                             X           
                                                                 OWNEXM=YES,                                             X           
                                                                 EPNAME=STORGRUP,                                        X           
                                                                 VER=1,                                                  X           
                                                                 REL=1,                                                  X           
                                                                 MOD=0,                                                  X           
                                                                 DSA=YES                                                             
                                              463+*/******************************************************************/              
                                              464+*/*                                                                */              
                                              465+*/* Licensed Materials - Property of IBM                           */              
                                              466+*/*                                                                */              
                                              467+*/* 5694-A01 5688-198                                              */              
                                              468+*/*                                                                */              
                                              469+*/* Copyright IBM Corp. 1991, 2009                                 */              
                                              470+*/*                                                                */              
                                              471+*/* Status = HLE7760                                               */              
                                              472+*/*                                                                */              
                                              473+*/******************************************************************/              
1                                                                                                               Page   12            
   Active Usings: STORGRUP,R11  CEECAA,R12  CEEDSA,R13                                                                               
0  Loc    Object Code      Addr1    Addr2    Stmt  Source Statement                          HLASM R6.0  2012/02/09 11.03            
0                                             474+*                                                                                  
                                              475+**********************************************************************             
                                              476+*        P R O G R A M  P R O L O G  A R E A 1   ( P P A 1)          *             
                                              477+**********************************************************************             
                                              478+*                                                                                  
 000000C8                                     479+PPA10009    DS    0F                                                    01-CEEPPA  
 000000C8                                     480+STORGRUP_PPA DS 0F                                                      01-CEEPPA  
 000000C8 1E                                  481+         DC    AL1(PPANL0009-*) Offset to the entry name length         01-CEEPPA  
 000000C9 CE                                  482+         DC    X'CE'            LE/370  Indicator.                      01-CEEPPA  
 000000CA A0                                  483+         DC    B'10100000'                             . PPA flags      01-CEEPPA  
                                              484+*                     Bit 0   0 = Internal Procedure                               
                                              485+*                             1 = External Procedure                               
                                              486+*                     Bit 1   0 = Primary Entry Point                              
                                              487+*                             1 = Secondary Entry Point                            
                                              488+*                     Bit 2   0 = Block doesn't have a DSA                         
                                              489+*                             1 = Block has a DSA                                  
                                              490+*                     Bit 3   0 = compiled object                                  
                                              491+*                             1 = library object                                   
                                              492+*                     Bit 4   0 = sampling interrupts to library                   
                                              493+*                             1 = sampling interrupts to code                      
                                              494+*                     Bit 5   0 = not an exit DSA                                  
                                              495+*                             1 = Exit DSA                                         
                                              496+*                     Bit 6   0 = own exception model                              
                                              497+*                             1 = inherited (callers) exception model              
                                              498+*                     Bit 7       Reserved                                         
 000000CB 00                                  499+         DC    X'00'            Member flags                            01-CEEPPA  
 000000CC 00000114                            500+         DC    A(PPA20009)      Addr of Compile Unit Block (PPA2)       01-CEEPPA  
 000000D0 00000000                            501+         DC    A(0)             Blk Debug Info                          01-CEEPPA  
 000000D4 00000000                            502+         DC    A(0)             Data Descriptors for this entry point   01-CEEPPA  
 000000D8 00000000                            503+         DC    A(0)             GPR save bit mask      X'10'      @D2A  01-CEEPPA  
 000000DC 00000000                            504+         DC    A(0)             Member PPA1 word       X'14'      @D2A  01-CEEPPA  
 000000E0 00000000                            505+         DC    A(0)                             Offset X'18'      @D2A  01-CEEPPA  
                                              506+* Language Environment flags (16bits)           Offset X'1C'      @D2A             
 000000E4 00                                  507+         DC    B'00000000'                                        @D2A  01-CEEPPA  
                                              508+*                 Bit 0-1 00 = Old code entry performs full save  @D2A             
                                              509+*                         01 = Old code performs partial save     @D2A             
                                              510+*                         10 = Old code performs partial save+R12 @D2A             
                                              511+*                 Bit 2   0  = Allow asynchronous exceptions      @D2A             
                                              512+*                         1  = Defer asynchronous exceptions      @D2A             
                                              513+*                 Bit 3   0  = Word 0 of SA not initialized       @D2A             
                                              514+*                         1  = Word 0 of SA initialized           @D2A             
                                              515+*                 Bit 4   0  = Code is nonexternal glue           @D2A             
                                              516+*                         1  = Code is external glue              @D2A             
                                              517+*                 Bit 5   0  = Real return addr saved in SA at    @D2A             
                                              518+*                              offset '0C'X                       @D2A             
                                              519+*                         1  = Real return addr saved in linkage  @D2A             
                                              520+*                              area                               @D2A             
                                              521+*                 Bit 6   0  = Storage argument area start        @D2A             
                                              522+*                              indeterminate                      @D2A             
                                              523+*                         1  = Storage argument area start valid  @D2A             
                                              524+*                 Bit 7   0  = R12 must contain CAA address upon  @D2A             
                                              525+*                              old code entry                     @D2A             
                                              526+*                         1  = R12 not defined upon old code entry@D2A             
 000000E5 00                                  527+         DC    B'00000000'                                        @D2A  01-CEEPPA  
                                              528+*                 Bit 8   0  = Not vararg routine                 @D2A             
1                                                                                                               Page   13            
   Active Usings: STORGRUP,R11  CEECAA,R12  CEEDSA,R13                                                                               
0  Loc    Object Code      Addr1    Addr2    Stmt  Source Statement                          HLASM R6.0  2012/02/09 11.03            
0                                             529+*                         1  = Vararg routine                     @D2A             
                                              530+*                 Bit 9   0  = Asynchronous interrupts unsupported@D2A             
                                              531+*                         1  = Asynchronous interrupts supported  @D2A             
                                              532+*                 Bit 10  0  = No module service level            @D2A             
                                              533+*                         1  = Module service level applied       @D2A             
                                              534+*                 Bit 11-15  = Reserved                           @D2A             
 000000E6                                     535+         DS    0H                                                       01-CEEPPA  
 000000E6 0008                                536+PPANL0009 DC   AL2(8)        .  Length of Entry Point Name              01-CEEPPA  
 000000E8 E2E3D6D9C7D9E4D7                    537+         DC    CL8'STORGRUP' .  Entry Point Name                        01-CEEPPA  
 000000F0                                     538+CEEINPL  DS    0D                                                       01-CEEPPA  
 000000F0 00000124                            539+         DC    A(PPA2M0009)                                             01-CEEPPA  
 000000F4 00000008                            540+         DC    A(CEEINPLSTST-CEEINPL)                                   01-CEEPPA  
 000000F8                                     541+CEEINPLSTST DS 0F                                                       01-CEEPPA  
 000000F8 00                                  542+         DC    X'00'            Control Level                     @01A  01-CEEPPA  
 000000F9 00                                  543+         DC    X'00'            ENCLAVE=NO                        @01A  01-CEEPPA  
 000000FA 00                                  544+         DC    X'00'                                              @01A  01-CEEPPA  
 000000FB 07                                  545+         DC    X'07'            Number of items.                  @01C  01-CEEPPA  
 000000FC 00000124                            546+         DC    A(PPA2M0009)   . A of A(first entry point in comp unit)  01-CEEPPA  
 00000100 00000000                            547+         DC    V(CEESTART)   . A(Address of CEESTART)                   01-CEEPPA  
 00000104 00000000                            548+         DC    V(CEEBETBL)                                              01-CEEPPA  
 00000108 0000000F                            549+         DC    A(15)         . Memeber id                               01-CEEPPA  
 0000010C 00000000                            550+         DC    A(0)                                                     01-CEEPPA  
 00000110 00020000                            551+         DC    XL4'00020000'          . EXECOPS(ON), PLIST              01-CEEPPA  
 00000114                                     552+         DS    0H                                                       01-CEEPPA  
                                              553+*                                                                                  
                                              554+**********************************************************************             
                                              555+*        P R O G R A M  P R O L O G  A R E A 2   ( P P A 2)          *             
                                              556+**********************************************************************             
                                              557+*                                                                                  
                                              558+         EXTRN CEESTART                                                 01-CEEPPA  
 00000114                                     559+PPA20009    DS    0F                                                    01-CEEPPA  
 00000114 0F                                  560+         DC    AL1(15)          Member ID                               01-CEEPPA  
 00000115 00                                  561+         DC    AL1(0)           Sub ID                                  01-CEEPPA  
 00000116 00                                  562+         DC    AL1(0)           Member defined                          01-CEEPPA  
 00000117 01                                  563+         DC    AL1(1)           Level of PPAx control blocks            01-CEEPPA  
 00000118 00000000                            564+PPA2S0009   DC    A(CEESTART)      A(CEESTART for this load module)     01-CEEPPA  
 0000011C 00000000                            565+         DC    A(0)             A(Compile Debug Information (CDI) )     01-CEEPPA  
 00000120 00000014                            566+         DC    A(CEETIMES-PPA20009)   A(Offset to time stamp)           01-CEEPPA  
 00000124 00000000                            567+PPA2M0009   DC    A(STORGRUP)    . A(first entry point in comp. unit)   01-CEEPPA  
                                              568+*                                                                                  
                                              569+**********************************************************************             
                                              570+*                 T I M E    S T A M P                               *             
                                              571+**********************************************************************             
                                              572+*                                                                                  
                                              573+*        Time Stamp                                                                
                                              574+*,Time Stamp = 2012/02/09 11:03:00                                      01-CEEPPA  
                                              575+*,Version 1 Release 1 Modification 0                                    01-CEEPPA  
 00000128                                     576+CEETIMES DS    0F                                                       01-CEEPPA  
 00000128 F2F0F1F2                            577+         DC    CL4'2012'          Year                                  01-CEEPPA  
 0000012C F0F2                                578+         DC    CL2'02'            Month                                 01-CEEPPA  
 0000012E F0F9                                579+         DC    CL2'09'            Day                                   01-CEEPPA  
 00000130 F1F1                                580+         DC    CL2'11'            Hours                                 01-CEEPPA  
 00000132 F0F3                                581+         DC    CL2'03'            Minutes                               01-CEEPPA  
 00000134 F0F0                                582+         DC    CL2'00'            Seconds                               01-CEEPPA  
 00000136 F140                                583+         DC    CL2'1'             Version                               01-CEEPPA  
1                                                                                                               Page   14            
   Active Usings: STORGRUP,R11  CEECAA,R12  CEEDSA,R13                                                                               
0  Loc    Object Code      Addr1    Addr2    Stmt  Source Statement                          HLASM R6.0  2012/02/09 11.03            
000000138 F140                                584+         DC    CL2'1'             Release                               01-CEEPPA  
 0000013A F040                                585+         DC    CL2'0'             Modification                          01-CEEPPA  
                                              586          CEEDSA                                                                    
                                              587+*                                                                                  
                                              588+**********************************************************************             
                                              589+*   D Y N A M I C   S T O R A G E   A R E A    ( D S A )             *             
                                              590+**********************************************************************             
                                              591+*                                                                                  
 00000000                00000000 00000098    592+CEEDSA   DSECT 0D         Default DSECT NAME for SECTYPE=ALL            01-CEEDSA  
                                              593+*                                                                                  
 00000000                                     594+CEEDSAFLAGS DS XL2                  DSA flags                           01-CEEDSA  
                         00001000             595+CEEDSALNGC EQU X'1000'                C library DSA                     01-CEEDSA  
                         00000800             596+CEEDSALNGP EQU X'0800'                PL/I library DSA                  01-CEEDSA  
                         00000008             597+CEEDSAEXIT EQU X'0008'                An Exit DSA                       01-CEEDSA  
 00000002                                     598+CEEDSAMEMD DS  XL2                  Member defined                      01-CEEDSA  
 00000004                                     599+CEEDSABKC DS   A                    Addr of DSA of caller               01-CEEDSA  
 00000008                                     600+CEEDSAFWC DS   A                    Addr of DSA of last called rtn      01-CEEDSA  
 0000000C                                     601+CEEDSAR14 DS   F                    Save area for register 14           01-CEEDSA  
 00000010                                     602+CEEDSAR15 DS   F                    Save area for register 15           01-CEEDSA  
 00000014                                     603+CEEDSAR0 DS    F                    Save area for register 0            01-CEEDSA  
 00000018                                     604+CEEDSAR1 DS    F                    Save area for register 1            01-CEEDSA  
 0000001C                                     605+CEEDSAR2 DS    F                    Save area for register 2            01-CEEDSA  
 00000020                                     606+CEEDSAR3 DS    F                    Save area for register 3            01-CEEDSA  
 00000024                                     607+CEEDSAR4 DS    F                    Save area for register 4            01-CEEDSA  
 00000028                                     608+CEEDSAR5 DS    F                    Save area for register 5            01-CEEDSA  
 0000002C                                     609+CEEDSAR6 DS    F                    Save area for register 6            01-CEEDSA  
 00000030                                     610+CEEDSAR7 DS    F                    Save area for register 7            01-CEEDSA  
 00000034                                     611+CEEDSAR8 DS    F                    Save area for register 8            01-CEEDSA  
 00000038                                     612+CEEDSAR9 DS    F                    Save area for register 9            01-CEEDSA  
 0000003C                                     613+CEEDSAR10 DS   F                    Save area for register 10           01-CEEDSA  
 00000040                                     614+CEEDSAR11 DS   F                    Save area for register 11           01-CEEDSA  
 00000044                                     615+CEEDSAR12 DS   F                    Save area for register 12           01-CEEDSA  
 00000048                                     616+CEEDSALWS DS   A                    Addr of PL/I Language Working Space 01-CEEDSA  
 0000004C                                     617+CEEDSANAB DS   A                    Addr of next available byte         01-CEEDSA  
 00000050                                     618+CEEDSAPNAB DS  A                    Addr of end-of-prolog NAB           01-CEEDSA  
 00000054                                     619+           DS  4F                                                       01-CEEDSA  
 00000064                                     620+CEEDSATRAN DS  0A                   HPL TxArea or                       01-CEEDSA  
 00000064                                     621+CEEDSARENT DS  A                    Program reentry address-IPAT        01-CEEDSA  
 00000068                                     622+CEEDSACILC DS  A                    C to Fortran ILC save area          01-CEEDSA  
 0000006C                                     623+CEEDSAMODE DS  A                    Return address of module that       01-CEEDSA  
                                              624+*                                   caused the last mode switch                    
 00000070                                     625+           DS  2F                                                       01-CEEDSA  
 00000078                                     626+CEEDSARMR  DS  A                    Addr of language specific           01-CEEDSA  
                                              627+*                                   exception handler                              
                                              628+*                                                                                  
 0000007C                                     629+           DS  F                    Reserved                            01-CEEDSA  
 00000080                                     630+CEEDSAAUTO DS  0D                   Automatic storage starts here       01-CEEDSA  
 00000080                                     631+CEEDSAEND  DS  0D                   End of DSA                          01-CEEDSA  
                         00000080             632+CEEDSASZ EQU   CEEDSAEND-CEEDSA     Size of DSA                         01-CEEDSA  
                         00000000             633+CEEDSA_STDCEEDSA  EQU   X'0000'     flag values of standard CEE DSA     01-CEEDSA  
                                              634+*                                                                                  
                                              635+*                                                                                  
                                              636+*                                                                                  
                                              637+*                                                                                  
                                              638+**********************************************************************             
1                                                                                                               Page   15            
   Active Usings: STORGRUP,R11  CEECAA,R12  CEEDSA,R13                                                                               
0D-Loc    Object Code      Addr1    Addr2    Stmt  Source Statement                          HLASM R6.0  2012/02/09 11.03            
0                                             639+*   X P L I N K   D Y N A M I C   S T O R A G E   A R E A            *             
                                              640+**********************************************************************             
                                              641+*                                                                                  
 00000000                00000000 00000840    642+CEEDSAHP DSECT 0D         Default DSECT NAME for SECTYPE=ALL            01-CEEDSA  
                                              643+         CEEDNUT          Set the global values                         01-CEEDSA  
                                              644+***********************************************************************            
                                              645+***********************************************************************            
                         00000004             646+LEPTRLEN EQU    4                                                       02-CEEDNUT 
                                              647+*                                                                                  
 00000000                                     648+CEEDSAHP_BIAS  DS XL2048             BIAS -- DO NOT USE                 01-CEEDSA  
                         00000800             649+CEEDSAHPBIASSZ EQU *-CEEDSAHP_BIAS   Size of Down Stack Bias            01-CEEDSA  
 00000800                                     650+CEEDSAHP_FIXED DS 0X                 Start of fixed part                01-CEEDSA  
 00000800                                     651+CEEDSAHP4TO15 DS 12F                 Save area for regs 4-15            01-CEEDSA  
 00000830                00000830 00000800    652+            ORG CEEDSAHP_FIXED                                          01-CEEDSA  
 00000800                                     653+CEEDSAHP4TO7  DS 4F                  Save area for regs 4-7             01-CEEDSA  
 00000810                00000810 00000800    654+            ORG CEEDSAHP_FIXED                                          01-CEEDSA  
 00000800                                     655+CEEDSAHPR4  DS F                     Save area for register 4           01-CEEDSA  
 00000804                                     656+CEEDSAHPR5  DS F                     Save area for register 5           01-CEEDSA  
 00000808                                     657+CEEDSAHPR6  DS F                     Save area for register 6           01-CEEDSA  
 0000080C                                     658+CEEDSAHPR7  DS F                     Save area for register 7           01-CEEDSA  
 00000810                                     659+CEEDSAHP8TO15 DS 8F                  Save area for regs 8-15            01-CEEDSA  
 00000830                00000830 00000810    660+            ORG CEEDSAHP8TO15                                           01-CEEDSA  
 00000810                                     661+CEEDSAHPR8  DS F                     Save area for register 8           01-CEEDSA  
 00000814                                     662+CEEDSAHPR9  DS F                     Save area for register 9           01-CEEDSA  
 00000818                                     663+CEEDSAHPR10 DS F                     Save area for register 10          01-CEEDSA  
 0000081C                                     664+CEEDSAHPR11 DS F                     Save area for register 11          01-CEEDSA  
 00000820                                     665+CEEDSAHPR12 DS F                     Save area for register 12          01-CEEDSA  
 00000824                                     666+CEEDSAHPR13 DS F                     Save area for register 13          01-CEEDSA  
 00000828                                     667+CEEDSAHPR14 DS F                     Save area for register 14          01-CEEDSA  
 0000082C                                     668+CEEDSAHPR15 DS F                     Save area for register 15          01-CEEDSA  
 00000830                                     669+            DS F                     Reserved for LE use                01-CEEDSA  
 00000834                                     670+CEEDSAHPMBRUSE DS F                  Reserved for LE Member use         01-CEEDSA  
 00000838                                     671+CEEDSAHPTRAN DS A                    Addr of transition area            01-CEEDSA  
 0000083C                                     672+CEEDSAHP_ARG_PRE DS 0A               Argument prefix area               01-CEEDSA  
 0000083C                                     673+CEEDSAHPRENT     DS A                or Program reentry addr-IPAT       01-CEEDSA  
                         00000040             674+CEEDSAHPSZ  EQU *-CEEDSAHP_FIXED     Size of fixed DSA                  01-CEEDSA  
 00000840                                     675+CEEDSAHP_ARGLIST DS 0X               Start of Vary length arg list      01-CEEDSA  
                                              676+*                                                                                  
                                              677+*                                                                                  
 00000080                00000000 00000098    678+CEEDSA   DSECT  ,                                                       01-CEEDSA  
                                              679 * DYNAMIC AREA IS DEFINED HERE.                                                    
                                              680 * THIS IS WITHIN A DSECT, SO NO DATA IS REALLY INITIALIZED                         
 00000080                                     681          DS    0D                 FORCE DOUBLEWORD                                 
                                              682 CEETERM_BLOCK CEETERM MF=L                                                         
 00000080                                     683+CEETERM_BLOCK DS 4F                                                     01-CEETERM 
 00000090                                     684 RETURN_CODE DS F                                                                   
 00000094                                     685 MODIFIER DS    F                                                                   
                         00000098             686 DSASIZE  EQU   *-CEEDSA                                                            
                                              687          CEECAA                                                                    
                                              688+***********************************************************************            
                                              689+*  C O M M O N   A N C H O R   A R E A   ( C A A )                    *            
                                              690+***********************************************************************            
                                              691+*                                                                                  
                                              692+         CEEDNUT  ,                                                     01-CEECAA  
                                              693+***********************************************************************            
1                                                                                                               Page   16            
   Active Usings: STORGRUP,R11  CEECAA,R12  CEEDSA,R13                                                                               
0D-Loc    Object Code      Addr1    Addr2    Stmt  Source Statement                          HLASM R6.0  2012/02/09 11.03            
0                                             694+***********************************************************************            
                                              695+*                                                                                  
 00000000                00000000 000003F8    696+CEECAA   DSECT    ,                 CAA mapping                         01-CEECAA  
 00000000                                     697+CEECAAFLAG0 DS    X                 CAA Flags                           01-CEECAA  
                         00000002             698+CEECAAXHDL  EQU   X'02'              Bypass exception handling          01-CEECAA  
                                              699+*           EQU   X'FD'              Reserved                                      
 00000001                                     700+            DS    X                 Reserved                            01-CEECAA  
                         00000020             701+CEECAADBGINIT EQU X'20'              Debugger is initialized            01-CEECAA  
 00000002                                     702+CEECAALANGP DS    X                 PL/I compatibility flags            01-CEECAA  
                         00000008             703+CEECAATHFN  EQU   X'08'              If set, NO PL/I FINISH             01-CEECAA  
                                              704+*                                    on-unit active                                
                                              705+*           EQU   X'F7'               Reserved                                     
 00000003                                     706+            DS    XL5               Reserved                            01-CEECAA  
 00000008                                     707+CEECAABOS   DS    A                 Start of current storage segment    01-CEECAA  
 0000000C                                     708+CEECAAEOS   DS    A                 End of current storage segment      01-CEECAA  
 00000010                                     709+            DS    XL52              Reserved                            01-CEECAA  
 00000044                                     710+CEECAATORC  DS    F                 Thread level return code            01-CEECAA  
 00000048                                     711+            DS    XL44              Reserved                 @CM0419C   01-CEECAA  
 00000074                                     712+CEECAATOVF  DS    A                 Stack overflow routine   @CM0419A   01-CEECAA  
 00000078                                     713+            DS    XL168             Reserved                 @CM0419A   01-CEECAA  
 00000120                                     714+CEECAAATTN  DS    A                 Addr of LE/370 attention handler    01-CEECAA  
                                              715+*                                                                                  
 00000124                                     716+            DS    XL56              Reserved                            01-CEECAA  
 0000015C                                     717+CEECAAHLLEXIT DS  A                 Set by CEEBINT for user hook exit   01-CEECAA  
 00000160                                     718+            DS    XL56              Reserved                            01-CEECAA  
 00000198                                     719+CEECAAHOOK  DS    XL12              Code to pass control                01-CEECAA  
 000001A4                                     720+CEECAADIMA  DS    A                 A(debugger entry)                   01-CEECAA  
                                              721+*                                                                                  
 000001A8                                     722+CEECAAHOOKS DS    0CL68             Hook control words for debugger@G3C 01-CEECAA  
 000001A8                                     723+CEECAAALLOC DS    XL4               ALLOCATE descr. built               01-CEECAA  
 000001AC                                     724+CEECAASTATE DS    XL4               New statement begins                01-CEECAA  
 000001B0                                     725+CEECAAENTRY DS    XL4               Block entry                         01-CEECAA  
 000001B4                                     726+CEECAAEXIT  DS    XL4               Block exit                          01-CEECAA  
 000001B8                                     727+CEECAAMEXIT DS    XL4               Multiple block exit                 01-CEECAA  
 000001BC                                     728+CEECAAPATHS DS    0CL32             PATH hooks                          01-CEECAA  
 000001BC                                     729+CEECAALABEL DS    XL4               At a label constant                 01-CEECAA  
 000001C0                                     730+CEECAABCALL DS    XL4               Before CALL                         01-CEECAA  
 000001C4                                     731+CEECAAACALL DS    XL4               After CALL                          01-CEECAA  
 000001C8                                     732+CEECAADO    DS    XL4               DO block starting                   01-CEECAA  
 000001CC                                     733+CEECAAIFTRUE  DS   XL4              True part of IF                     01-CEECAA  
 000001D0                                     734+CEECAAIFFALSE DS   XL4              False part of IF                    01-CEECAA  
 000001D4                                     735+CEECAAWHEN    DS   XL4              WHEN group starting                 01-CEECAA  
 000001D8                                     736+CEECAAOTHER   DS   XL4              OTHERWISE group                     01-CEECAA  
 000001DC                                     737+CEECAACGOTO   DS   XL4              GOTO hook for C                     01-CEECAA  
 000001E0                                     738+CEECAARSVDH1  DS   XL4              Reserved hook                       01-CEECAA  
 000001E4                                     739+CEECAARSVDH2  DS   XL4              Reserved hook                       01-CEECAA  
 000001E8                                     740+CEECAAMULTEVT DS   XL4              Multiple Event Hook            @G3C 01-CEECAA  
                                              741+*                                                                                  
 000001EC                                     742+CEECAAMEVMASK DS   XL4              Multiple Event Hook Mask       @G3A 01-CEECAA  
 000001F0                                     743+CEECAACGENE DS    A                 Reserved                            01-CEECAA  
 000001F4                                     744+CEECAACRENT DS    A                 C/370 writable static               01-CEECAA  
 000001F8                                     745+CEECAACFLTINIT DS XL8               Used to covert fixed to float       01-CEECAA  
 00000200                                     746+CEECAACPRMS DS    A                 Parms passed to IBMLIIA             01-CEECAA  
 00000204                                     747+CEECAAC_RTL          DS   0F        Combination of 24 unique C/370 @DJC 01-CEECAA  
                                              748+*                                   trc types & 8 common trc types                 
1                                                                                                               Page   17            
   Active Usings: STORGRUP,R11  CEECAA,R12  CEEDSA,R13                                                                               
0D-Loc    Object Code      Addr1    Addr2    Stmt  Source Statement                          HLASM R6.0  2012/02/09 11.03            
000000204                                     749+CEECAAC_RTL_1        DS    X        C/370 RTL unique trace options @DJA 01-CEECAA  
                                              750+*                                                                  @DJA            
 00000205                                     751+CEECAAC_RTL_2        DS    X        C/370 RTL unique trace options @DJA 01-CEECAA  
                                              752+*                                                                  @DJA            
 00000206                                     753+CEECAAC_RTL_3        DS    X        C/370 RTL unique trace options @DJA 01-CEECAA  
                                              754+*                    EQU   X'80'    Reserved                       @DJA            
                         00000040             755+CEECAA_SIGNALS_L     EQU   X'40'    Low-level signals              @DJA 01-CEECAA  
                         00000020             756+CEECAA_LOW_IO        EQU   X'20'    Low-level I/O                  @DJA 01-CEECAA  
                         00000010             757+CEECAA_INITTERM_L    EQU   X'10'    Low-level init/term            @DJA 01-CEECAA  
                                              758+*                    EQU   X'08'    Reserved                       @DJA            
                         00000004             759+CEECAA_SIGNALS_H     EQU   X'04'    High-level signals             @DJA 01-CEECAA  
                         00000002             760+CEECAA_HIGH_IO       EQU   X'02'    High-level I/O                 @DJA 01-CEECAA  
                         00000001             761+CEECAA_INITTERM_H    EQU   X'01'    High-level init/term           @DJA 01-CEECAA  
                                              762+*                                                                  @DJA            
 00000207                                     763+CEECAAC_COMTRACE     DS    X        Common RTL trace options       @DJA 01-CEECAA  
                                              764+*                    EQU   X'80'    Reserved                       @DJA            
                                              765+*                    EQU   X'40'    Reserved                       @DJA            
                         00000020             766+CEECAA_RTLXPLI       EQU   X'20'    RTL XPLINK trace               @DJA 01-CEECAA  
                         00000010             767+CEECAA_RTLCICS       EQU   X'10'    RTL CICS   trace               @DJA 01-CEECAA  
                         00000008             768+CEECAA_RTLALLOC      EQU   X'08'    RTL Alloc  trace               @DJA 01-CEECAA  
                         00000004             769+CEECAA_RTLCOUNT      EQU   X'04'    RTL Function counting          @DJA 01-CEECAA  
                         00000002             770+CEECAA_RTLLOCKS      EQU   X'02'    RTL or user locking            @DJA 01-CEECAA  
                         00000001             771+CEECAA_RTLFUNC       EQU   X'01'    RTL function entry/exit        @DJA 01-CEECAA  
                                              772+*                                                                                  
 00000208                                     773+CEECAACTHD  DS    A                                                     01-CEECAA  
 0000020C                                     774+CEECAACURRFECB DS A                                                     01-CEECAA  
 00000210                                     775+CEECAAEDCV  DS    A                 C/370 vector table                  01-CEECAA  
 00000214                                     776+CEECAACPCB  DS    A                                                     01-CEECAA  
 00000218                                     777+CEECAACEDB  DS    A                 C/370 CEDB                          01-CEECAA  
 0000021C                                     778+            DS    XL3                                                   01-CEECAA  
 0000021F                                     779+CEECAASPCFLAG3 DS X                                                     01-CEECAA  
 00000220                                     780+CEECAACIO   DS    A                 Address oc cio                      01-CEECAA  
 00000224                                     781+CEECAAFDSETFD DS  F                 Used by FD_* macros                 01-CEECAA  
 00000228                                     782+CEECAAFCBMUTEXOK DS XL2                                                 01-CEECAA  
 0000022A                                     783+            DS    XL2                                                   01-CEECAA  
 0000022C                                     784+CEECAATC16  DS    F                                                     01-CEECAA  
 00000230                                     785+CEECAATC17  DS    F                                                     01-CEECAA  
 00000234                                     786+CEECAAEDCOV DS    A                 C/370 Open Libvec                   01-CEECAA  
 00000238                                     787+CEECAACTOFSV DS   F                                                     01-CEECAA  
 0000023C                                     788+CEECAATRTSPACE DS A                 C/370 Open Libvec                   01-CEECAA  
 00000240                                     789+            DS    XL24                                                  01-CEECAA  
 00000258                                     790+CEECAA_TCASRV DS  0CL36             TCA Service Rtn Vector              01-CEECAA  
 00000258                                     791+CEECAA_TCASRV_USERWORD  DS A                                            01-CEECAA  
 0000025C                                     792+CEECAA_TCASRV_WORKAREA  DS A                                            01-CEECAA  
 00000260                                     793+CEECAA_TCASRV_GETMAIN   DS A                                            01-CEECAA  
 00000264                                     794+CEECAA_TCASRV_FREEMAIN  DS A                                            01-CEECAA  
 00000268                                     795+CEECAA_TCASRV_LOAD      DS A                                            01-CEECAA  
 0000026C                                     796+CEECAA_TCASRV_DELETE    DS A                                            01-CEECAA  
 00000270                                     797+CEECAA_TCASRV_EXCEPTION DS A                                            01-CEECAA  
 00000274                                     798+CEECAA_TCASRV_ATTENTION DS A                                            01-CEECAA  
 00000278                                     799+CEECAA_TCASRV_MESSAGE   DS A                                            01-CEECAA  
 0000027C                                     800+            DS    XL4               Reserved                            01-CEECAA  
 00000280                                     801+CEECAALWS   DS    A                 Addr of PL/I Language Working Space 01-CEECAA  
 00000284                                     802+CEECAASAVR  DS    A                 Register save            @CM0419A   01-CEECAA  
 00000288                                     803+            DS    XL36              Reserved                       @P6C 01-CEECAA  
1                                                                                                               Page   18            
   Active Usings: STORGRUP,R11  CEECAA,R12  CEEDSA,R13                                                                               
0D-Loc    Object Code      Addr1    Addr2    Stmt  Source Statement                          HLASM R6.0  2012/02/09 11.03            
0                                             804+*                                                                                  
 000002AC                                     805+CEECAASYSTM DS    X                 Underlying Operating System@MF0072A 01-CEECAA  
                         00000000             806+CEECAASYUND EQU   X'00'               undefined                @MF0072A 01-CEECAA  
                         00000001             807+CEECAASYUNS EQU   X'01'               unsupported              @MF0072A 01-CEECAA  
                         00000002             808+CEECAASYVM  EQU   X'02'               VM                       @MF0072A 01-CEECAA  
                         00000003             809+CEECAASYMVS EQU   X'03'               MVS                      @MF0072A 01-CEECAA  
 000002AD                                     810+CEECAAHRDWR DS    X                 Underlying Hardware        @MF0072A 01-CEECAA  
                         00000000             811+CEECAAHWUND EQU   X'00'               undefined                @MF0072A 01-CEECAA  
                         00000001             812+CEECAAHWUNS EQU   X'01'               unsupported              @MF0072A 01-CEECAA  
                         00000002             813+CEECAAHW370 EQU   X'02'               System / 370 non-XA      @MF0072A 01-CEECAA  
                         00000003             814+CEECAAHWXA  EQU   X'03'               System / 370 XA          @MF0072A 01-CEECAA  
                         00000004             815+CEECAAHWESA EQU   X'04'               System / 370 ESA         @MF0072A 01-CEECAA  
 000002AE                                     816+CEECAASBSYS DS    X                 Underlying Subsystem       @MF0072A 01-CEECAA  
                         00000000             817+CEECAASSUND EQU   X'00'               undefined                @MF0072A 01-CEECAA  
                         00000001             818+CEECAASSUNS EQU   X'01'               unsupported              @MF0072A 01-CEECAA  
                         00000002             819+CEECAASSNON EQU   X'02'               no subsystem             @MF0072A 01-CEECAA  
                         00000003             820+CEECAASSTSO EQU   X'03'               TSO                      @MF0072A 01-CEECAA  
                         00000005             821+CEECAASSCIC EQU   X'05'               CICS                     @MF0072A 01-CEECAA  
 000002AF                                     822+CEECAAFLAG2 DS    X                                            @MF0072A 01-CEECAA  
                         00000080             823+CEECAABIMODAL EQU X'80'             Bimodal addressing         @MF0072A 01-CEECAA  
                         00000040             824+CEECAA_VECTOR EQU X'40'             vector hardware available  @MF0072A 01-CEECAA  
                         00000020             825+CEECAATIP     EQU X'20'             Thread termination in progress      01-CEECAA  
                         00000010             826+CEECAA_THREAD_INITIAL EQU X'10'     if on, indicates this is the IPT    01-CEECAA  
                         00000008             827+CEECAA_TRACE_ACTIVE   EQU X'08'     If on, library trace is active      01-CEECAA  
                                              828+*                                    (TRACE runtime option was set)                
                         00000004             829+CEECAA_ALTSTK_ACTIVE  EQU X'04'     If on, alt stack active    @KCG0034 01-CEECAA  
                         00000002             830+CEECAA_ENQ_WAIT_INTERRUPTABLE EQU X'02' PL/I doing Exclusive   KN80230  01-CEECAA  
                                              831+*                                       file in Multitasking   KN80230             
                         00000001             832+CEECAA_USRSTK_ACTIVE  EQU X'01'     If on, context switching user stack 01-CEECAA  
                                              833+*                                       is active              PQ04250             
                                              834+*                                                                                  
 000002B0                                     835+CEECAALEVEL DS    X                 LE/370 level identifier             01-CEECAA  
                         00000018             836+CEL_LEVEL_IDENTIFIER EQU X'18'                                     @DRC 01-CEECAA  
 000002B1                                     837+CEECAA_PM   DS    X                 PROGRAM MASK               @NX0166C 01-CEECAA  
 000002B2                                     838+CEECAA_INVAR DS   XL2               At same offset in 31 & 64 mode @G3C 01-CEECAA  
 000002B4                                     839+CEECAAGETLS DS    A                 ADDR OF LE/370 LIBRARY STACK MGR    01-CEECAA  
 000002B8                                     840+CEECAACELV  DS    A                 Addr of LE/370 LIBVEC               01-CEECAA  
 000002BC                                     841+CEECAAGETS  DS    A                 Addr of LE/370 get stack stg rtn    01-CEECAA  
 000002C0                                     842+CEECAALBOS  DS    A                 Start of library stack stg seg      01-CEECAA  
 000002C4                                     843+CEECAALEOS  DS    A                 End of library stack stg seg        01-CEECAA  
 000002C8                                     844+CEECAALNAB  DS    A                 Next available byte of lib stg      01-CEECAA  
 000002CC                                     845+CEECAADMC   DS    A                 Addr of ESPIE Devil-May-Care rtn    01-CEECAA  
 000002D0                                     846+CEECAAABCODE DS   0F                Most recent ABEND completion CDE    01-CEECAA  
 000002D0                                     847+CEECAACD    DS    XL4               Most recent CAASHAB abend code      01-CEECAA  
 000002D4                                     848+CEECAARSNCODE DS  0F                Most recent ABEDN reason Code       01-CEECAA  
 000002D4                                     849+CEECAARS    DS    XL4               Most recent CAASHAB reason code     01-CEECAA  
 000002D8                                     850+CEECAAERR   DS    A                 Addr of the current CIB             01-CEECAA  
 000002DC                                     851+CEECAAGETSX DS    A                 Addr of LE/370 stack stg extender   01-CEECAA  
 000002E0                                     852+CEECAADDSA  DS    A                 Addr of the dummy DSA               01-CEECAA  
 000002E4                                     853+CEECAASECTSIZ DS  F                 Vector Section Size                 01-CEECAA  
 000002E8                                     854+CEECAAPARTSUM DS  F                 Vector Partial Sum Number           01-CEECAA  
 000002EC                                     855+CEECAASSEXPNT DS  F                 Log of Vector Section Size          01-CEECAA  
 000002F0                                     856+CEECAAEDB   DS    A                 address of the EDB                  01-CEECAA  
 000002F4                                     857+CEECAAPCB   DS    A                 address of the PCB                  01-CEECAA  
                                              858+* ---------------------------------------------------------------------            
1                                                                                                               Page   19            
   Active Usings: STORGRUP,R11  CEECAA,R12  CEEDSA,R13                                                                               
0D-Loc    Object Code      Addr1    Addr2    Stmt  Source Statement                          HLASM R6.0  2012/02/09 11.03            
0                                             859+* - THE FOLLOWING TWO FIELDS ARE USED FOR VALIDATION OF THE CAA.      -            
                                              860+* ---------------------------------------------------------------------            
 000002F8                                     861+CEECAAEYEPTR DS   A                 addr of CAA eyecatcher              01-CEECAA  
 000002FC                                     862+CEECAAPTR   DS    A                 addr of this CAA                    01-CEECAA  
 00000300                                     863+CEECAAGETS1 DS    A                 DSA alloc - R13 not DSA addr        01-CEECAA  
 00000304                                     864+CEECAASHAB  DS    A                 ABEND shunt routine address         01-CEECAA  
 00000308                                     865+CEECAAPRGCK DS    A                 pgm interrupt code for CAADMC       01-CEECAA  
 0000030C                                     866+CEECAAFLAG1 DS    X                 CAA Flag 1                          01-CEECAA  
                         00000080             867+CEECAASORT  EQU   B'10000000'       Call to DFSORT is active            01-CEECAA  
                         00000040             868+CEECAA_USE_OLD_STK  EQU  B'01000000'  use old stack               @P5A  01-CEECAA  
                         00000020             869+CEECAA_CICS_EXT_REG EQU  B'00100000'  CICS extended regs active   @DQA  01-CEECAA  
 0000030D                                     870+            DS    CL3               reserved                            01-CEECAA  
 00000310                                     871+CEECAAURC   DS    F                 Thread level return code.           01-CEECAA  
 00000314                                     872+CEECAARSRV1 DS    4A                                                    01-CEECAA  
                                              873+* ---------------------------------------------------------------------            
                                              874+* - THE FOLLOWING FIELD CONTAINS THE PRE-INIT COMPATABILITY           -            
                                              875+* - CONTROL BLOCK ADDRESS.                                            -            
                                              876+* ---------------------------------------------------------------------            
 00000324                                     877+CEECAAPICICB DS   A                 Addr of pre-init compatability cb   01-CEECAA  
 00000328                                     878+CEECAARSRV2  DS   A                                                     01-CEECAA  
                                              879+* ---------------------------------------------------------------------            
 0000032C                                     880+CEECAAGOSMR  DS   H                 Go Some More. used TRAV multiple    01-CEECAA  
 0000032E                                     881+             DS   H                 skip.                               01-CEECAA  
                                              882+* ---------------------------------------------------------------------            
 00000330                                     883+CEECAALEOV   DS   A                 Addr of LE/OpenMVS LIBVEC           01-CEECAA  
 00000334                                     884+CEECAA_SIGSCTR        DS  F         SIGSAFE Counter            @C54544  01-CEECAA  
                                              885+*                                                                                  
 00000338                                     886+CEECAA_SIGSFLG        DS  XL4       SIGSAFE Flags              @C54544  01-CEECAA  
                                              887+*                                                                                  
                                              888+*                     First byte                                   @P4A            
                                              889+*                                                                                  
                         00000080             890+CEECAA_SIGPUTBACK     EQU X'80'     Signal Putback                      01-CEECAA  
                         00000040             891+CEECAA_SA_RESTART     EQU X'40'     SA_Restart processing needed        01-CEECAA  
                                              892+*                     EQU X'20'     <unused>                                       
                         00000010             893+CEECAA_SIGSAFE        EQU X'10'     Indicates that synchronous          01-CEECAA  
                                              894+*                                    signals are safe to be delivered              
                                              895+*                                    regardless of where the interrupt             
                                              896+*                                    occurred                                      
                         00000008             897+CEECAA_CANCELSAFE     EQU X'08'     Indicates that synchronous @CM0565A 01-CEECAA  
                                              898+*                                    cancels are safe to be    @CM0565A            
                                              899+*                                    delivered regardless of   @CM0565A            
                                              900+*                                    where the interrupt       @CM0565A            
                                              901+*                                    occurred                  @CM0565A            
                         00000004             902+CEECAA_SIGRESYNCH     EQU X'04'     One or more synchronous signals     01-CEECAA  
                                              903+*                                    may have been recently put back               
                                              904+*                                    last time a signal was resolicited            
                                              905+*                                    when returning to non-XPLINK                  
                                              906+*                                    user code                                     
                         00000002             907+CEECAA_FRZ_UNSAFE     EQU X'02'     This thread is in an unsafe state   01-CEECAA  
                                              908+*                                   to be frozen (set by members)                  
                         00000001             909+CEECAA_NOAPPREGS      EQU X'01'     User Application registers may      01-CEECAA  
                                              910+*                                   be saved in a nonstandard place                
                                              911+*                                                                  @DFA            
                                              912+*                     Second byte                                  @P4A            
                                              913+*                                                                                  
1                                                                                                               Page   20            
   Active Usings: STORGRUP,R11  CEECAA,R12  CEEDSA,R13                                                                               
0D-Loc    Object Code      Addr1    Addr2    Stmt  Source Statement                          HLASM R6.0  2012/02/09 11.03            
0                        00000080             914+CEECAA_EINTR_RSOL     EQU   X'80'   Secondary signal resolicit          01-CEECAA  
                                              915+*                                   in progress after EINTR                        
                                              916+*                                   from inner function            @P4A            
                         00000040             917+CEECAA_EINTR_PUTB     EQU   X'40'   Secondary resolicited signal        01-CEECAA  
                                              918+*                                   has been put back              @P4A            
                         00000020             919+CEECAA_EINTR_REST     EQU   X'20'   User catcher returned after         01-CEECAA  
                                              920+*                                   catching secondary                             
                                              921+*                                   resolicited signal with                        
                                              922+*                                   SA_RESTART in effect           @P4A            
                         00000010             923+CEECAA_EINTR_SIGG     EQU   X'10'   "Stray" signal interrupted          01-CEECAA  
                                              924+*                                   CEEOSIGG while secondary                       
                                              925+*                                   signal resolicitation                          
                                              926+*                                   was in progress                @P4A            
                                              927+*                     EQU   X'08'   Reserved                       @P4A            
                                              928+*                     EQU   X'04'   Reserved                       @P4A            
                                              929+*                     EQU   X'02'   Reserved                       @P4A            
                                              930+*                     EQU   X'01'   Reserved                       @P4A            
                                              931+*                                                                                  
                                              932+*                     (16 unused bits)                             @P4C            
                                              933+*                                                                                  
 0000033C                                     934+CEECAATHDID           DS  CL8       Posix thread id                     01-CEECAA  
 00000344                                     935+CEECAA_DCRENT         DS  A         CRENT anchor for DCE                01-CEECAA  
 00000348                                     936+CEECAA_DANCHOR        DS  A         DCE anchor per thread               01-CEECAA  
 0000034C                                     937+CEECAA_CTOC           DS  A         TOC anchor for CRENT                01-CEECAA  
 00000350                                     938+CEECAARCB             DS  A         A(RCB)                              01-CEECAA  
 00000354                                     939+CEECAACICSRSN         DS  A         CICS reason code from member        01-CEECAA  
                                              940+*                                   language                                       
 00000358                                     941+CEECAAMEMBR           DS  A         Addr of thread-level member list    01-CEECAA  
 0000035C                                     942+CEECAA_SIGNAL_STATUS  DS  A         Signal stat for terminating thd     01-CEECAA  
 00000360                                     943+CEECAA_HCOM_REG7      DS 0A         Saved Reg7  from HCOM               01-CEECAA  
 00000360                                     944+CEECAA_HCOM_REG14     DS  A         Saved Reg14 from HCOM   @CH0092A    01-CEECAA  
 00000364                                     945+CEECAA_STACKFLOOR     DS  A         Lowest usable addr in HP stack      01-CEECAA  
 00000368                                     946+CEECAAHPGETS          DS  A         HP stack extension rtn              01-CEECAA  
 0000036C                                     947+CEECAAEDCHPXV         DS  A         C/C++ XPLINK libvec                 01-CEECAA  
 00000370                                     948+CEECAAFOR1            DS  A         Reserved for FORTRAN                01-CEECAA  
 00000374                                     949+CEECAAFOR2            DS  A         Reserved for FORTRAN                01-CEECAA  
 00000378                                     950+CEECAATHREADHEAPID    DS  A         Thread heapid         @NX0093A      01-CEECAA  
 0000037C                                     951+CEECAA_SYS_RTNCODE    DS  F         Sys (kernel) return code @CM1752    01-CEECAA  
 00000380                                     952+CEECAA_SYS_RSNCODE    DS  F         Sys (kernel) reason code @CM1752    01-CEECAA  
 00000384                                     953+CEECAAGETFN           DS  A         Address of WSA swap routine         01-CEECAA  
 00000388                                     954+CEECAA_LER4           DS  CL8       Reserved for expansion LE 1.4       01-CEECAA  
                                              955+********************************************************************               
                                              956+*    LE V1R5M0 EXTERNAL CONTROL BLOCK SECTION                      *               
                                              957+*      - any external control block fields should be added         *               
                                              958+*        in this section.  Extra reserved space was added          *               
                                              959+*        with the intention of at end of project the excess        *               
                                              960+*        reserved space will be removed and all external fields    *               
                                              961+*        will be shifted.                                          *               
                                              962+********************************************************************               
 00000390                                     963+CEECAASIGNGPTR        DS  A         Pointer to 'signam' external        01-CEECAA  
                                              964+*                                   variable in a C application                    
 00000394                                     965+CEECAASIGNG           DS  F         value of sign of lgamma()           01-CEECAA  
                                              966+*                                    -1 - negative sign                            
                                              967+*                                     0 - zero                                     
                                              968+*                                    +1 - positive sign                            
1                                                                                                               Page   21            
   Active Usings: STORGRUP,R11  CEECAA,R12  CEEDSA,R13                                                                               
0D-Loc    Object Code      Addr1    Addr2    Stmt  Source Statement                          HLASM R6.0  2012/02/09 11.03            
000000398                                     969+CEECAA_FORDBG         DS  A         Ptr to AFHDBHIM -        @N80095A   01-CEECAA  
                                              970+*                                   FORTRAN hook interface   @N80095A              
 0000039C                                     971+CEECAAAB_STATUS       DS  X         validity flags           KN80120    01-CEECAA  
                         00000080             972+CEECAAAB_GR0_VALID    EQU X'80'     CEECAAAB_GR0 is valid    KN80120    01-CEECAA  
                         00000040             973+CEECAAAB_ICD1_VALID   EQU X'40'     CEECAAAB_ICD1 is valid   KN80120    01-CEECAA  
                         00000020             974+CEECAAAB_ABCC_VALID   EQU X'20'     CEECAAAB_ABCC is valid   KN80120    01-CEECAA  
                         00000010             975+CEECAAAB_CRC_VALID    EQU X'10'     CEECAAAB_CRC is valid    KN80120    01-CEECAA  
                         00000008             976+CEECAAAB_GR15_VALID   EQU X'08'     CEECAAAB_GR15 is valid   KN80120    01-CEECAA  
 0000039D                                     977+CEECAA_STACKDIRECTION DS  X         Stack Direction                     01-CEECAA  
                         00000000             978+CEECAASTACK_UP        EQU X'00'     Up                                  01-CEECAA  
                         00000001             979+CEECAASTACK_DOWN      EQU X'01'     Down (XPLINK)                       01-CEECAA  
 0000039E                                     980+                      DS  XL2       RESERVED                 KN80120    01-CEECAA  
 000003A0                                     981+CEECAAAB_GR0          DS  A         Reg 0                    KN80120    01-CEECAA  
 000003A4                                     982+CEECAAAB_ICD1         DS  A         SDWAICD1                 KN80120    01-CEECAA  
 000003A8                                     983+CEECAAAB_ABCC         DS  A         SDWAABCC                 KN80120    01-CEECAA  
 000003AC                                     984+CEECAAAB_CRC          DS  A         SDWACRC                  KN80120    01-CEECAA  
                         000002D4             985+CEECAAAB_GR15         EQU CEECAARS  reg 15                   KN80120    01-CEECAA  
 000003B0                                     986+CEECAAAGTS            DS  A         C compiler stk inc       KN00102    01-CEECAA  
 000003B4                                     987+CEECAA_LER5N1         DS  CL4       reserved for expansion   KCG0088    01-CEECAA  
 000003B8                                     988+CEECAAHERP            DS  A         A(CEEHERP)               KCG0061    01-CEECAA  
 000003BC                                     989+CEECAAUSTKBOS         DS  A         Start of user stack seg  PQ04250    01-CEECAA  
 000003C0                                     990+CEECAAUSTKEOS         DS  A         End of user stack seg    PQ04250    01-CEECAA  
 000003C4                                     991+CEECAAUSERRTN@        DS  A         A(UserRtn) for pthread     @01A     01-CEECAA  
 000003C8                                     992+CEECAAUDHOOK          DS  XL8       hook swapping xplink       @DBA     01-CEECAA  
                                              993+*                     DS  BL8       reserved                   @DBA                
                                              994+*CEECAAUDHOOKSW        DS  BL4       hook switch                @DBA               
                                              995+*                      DS  BL4       reserved                   @DBA               
                                              996+*                      DS  XL6       reserved                   @DBA               
 000003D0                                     997+CEECAACEL_HPXV_B      DS  A         Address of XPLink compat   @DCC     01-CEECAA  
                                              998+*                                    vector for Base library   @DCA                
 000003D4                                     999+CEECAACEL_HPXV_M      DS  A         Address of XPLink compat   @DCA     01-CEECAA  
                                             1000+*                                    vector for Math library   @DCA                
 000003D8                                    1001+CEECAACEL_HPXV_L      DS  A         Address of XPLink          @DCC     01-CEECAA  
                                             1002+*                                    compat vector for         @DCA                
                                             1003+*                                    Locale library            @DCA                
 000003DC                                    1004+CEECAACEL_HPXV_O      DS  A         Address of XPLink          @DDA     01-CEECAA  
                                             1005+*                                    compat vector for         @DDA                
                                             1006+*                                    Open library              @DDA                
 000003E0                                    1007+CEECAACEL4VEC3        DS  A         Address of Vec3 LibVec     @DHA     01-CEECAA  
 000003E4                                    1008+CEECAA_CEEDLLF          DS A        Addr of newest CEEDLLF.  Not   @P6M 01-CEECAA  
                                             1009+*                                   same offset as in 64bit.       @P6M            
 000003E8                                    1010+CEECAA_SAVSTACK       DS  A         Saved Stack pointer used for   @DPA 01-CEECAA  
                                             1011+*                                     OS_NOSTACK linkage           @DPA            
 000003EC                                    1012+                      DS  XL4       Reserved                       @DSC 01-CEECAA  
 000003F0                                    1013+                      DS  F         Reserved                       @DTC 01-CEECAA  
 000003F4                                    1014+CEECAA_SAVSTACK_ASYNC DS  A         Zero or address of 4-byte field@DPA 01-CEECAA  
                                             1015+*                                   where the stack pointer can be @DPA            
                                             1016+*                                   saved. When the stack pointer  @DPA            
                                             1017+*                                   is saved here, asynchronous    @DPA            
                                             1018+*                                   signals will be accepted.      @DPA            
                         00000094            1019+CEECELVGTUN EQU  148                Offset to Get user nab service.     01-CEECAA  
                                             1020          regs                                                                      
                         00000000            1021+R0       EQU   0,,,,GR                                                  01-REGS    
                         00000001            1022+R1       EQU   1,,,,GR                                                  01-REGS    
                         00000002            1023+R2       EQU   2,,,,GR                                                  01-REGS    
1                                                                                                               Page   22            
   Active Usings: STORGRUP,R11  CEECAA,R12  CEEDSA,R13                                                                               
0D-Loc    Object Code      Addr1    Addr2    Stmt  Source Statement                          HLASM R6.0  2012/02/09 11.03            
0                        00000003            1024+R3       EQU   3,,,,GR                                                  01-REGS    
                         00000004            1025+R4       EQU   4,,,,GR                                                  01-REGS    
                         00000005            1026+R5       EQU   5,,,,GR                                                  01-REGS    
                         00000006            1027+R6       EQU   6,,,,GR                                                  01-REGS    
                         00000007            1028+R7       EQU   7,,,,GR                                                  01-REGS    
                         00000008            1029+R8       EQU   8,,,,GR                                                  01-REGS    
                         00000009            1030+R9       EQU   9,,,,GR                                                  01-REGS    
                         0000000A            1031+R10      EQU   10,,,,GR                                                 01-REGS    
                         0000000B            1032+R11      EQU   11,,,,GR                                                 01-REGS    
                         0000000C            1033+R12      EQU   12,,,,GR                                                 01-REGS    
                         0000000D            1034+R13      EQU   13,,,,GR                                                 01-REGS    
                         0000000E            1035+R14      EQU   14,,,,GR                                                 01-REGS    
                         0000000F            1036+R15      EQU   15,,,,GR                                                 01-REGS    
                         00000000            1037+R0_64    EQU   0,,,,GR64                                                01-REGS    
                         00000001            1038+R1_64    EQU   1,,,,GR64                                                01-REGS    
                         00000002            1039+R2_64    EQU   2,,,,GR64                                                01-REGS    
                         00000003            1040+R3_64    EQU   3,,,,GR64                                                01-REGS    
                         00000004            1041+R4_64    EQU   4,,,,GR64                                                01-REGS    
                         00000005            1042+R5_64    EQU   5,,,,GR64                                                01-REGS    
                         00000006            1043+R6_64    EQU   6,,,,GR64                                                01-REGS    
                         00000007            1044+R7_64    EQU   7,,,,GR64                                                01-REGS    
                         00000008            1045+R8_64    EQU   8,,,,GR64                                                01-REGS    
                         00000009            1046+R9_64    EQU   9,,,,GR64                                                01-REGS    
                         0000000A            1047+R10_64   EQU   10,,,,GR64                                               01-REGS    
                         0000000B            1048+R11_64   EQU   11,,,,GR64                                               01-REGS    
                         0000000C            1049+R12_64   EQU   12,,,,GR64                                               01-REGS    
                         0000000D            1050+R13_64   EQU   13,,,,GR64                                               01-REGS    
                         0000000E            1051+R14_64   EQU   14,,,,GR64                                               01-REGS    
                         0000000F            1052+R15_64   EQU   15,,,,GR64                                               01-REGS    
                         00000000            1053+R0_32    EQU   0,,,,GR32                                                01-REGS    
                         00000001            1054+R1_32    EQU   1,,,,GR32                                                01-REGS    
                         00000002            1055+R2_32    EQU   2,,,,GR32                                                01-REGS    
                         00000003            1056+R3_32    EQU   3,,,,GR32                                                01-REGS    
                         00000004            1057+R4_32    EQU   4,,,,GR32                                                01-REGS    
                         00000005            1058+R5_32    EQU   5,,,,GR32                                                01-REGS    
                         00000006            1059+R6_32    EQU   6,,,,GR32                                                01-REGS    
                         00000007            1060+R7_32    EQU   7,,,,GR32                                                01-REGS    
                         00000008            1061+R8_32    EQU   8,,,,GR32                                                01-REGS    
                         00000009            1062+R9_32    EQU   9,,,,GR32                                                01-REGS    
                         0000000A            1063+R10_32   EQU   10,,,,GR32                                               01-REGS    
                         0000000B            1064+R11_32   EQU   11,,,,GR32                                               01-REGS    
                         0000000C            1065+R12_32   EQU   12,,,,GR32                                               01-REGS    
                         0000000D            1066+R13_32   EQU   13,,,,GR32                                               01-REGS    
                         0000000E            1067+R14_32   EQU   14,,,,GR32                                               01-REGS    
                         0000000F            1068+R15_32   EQU   15,,,,GR32                                               01-REGS    
                         00000000            1069+AR0      EQU   0,,,,AR                                                  01-REGS    
                         00000001            1070+AR1      EQU   1,,,,AR                                                  01-REGS    
                         00000002            1071+AR2      EQU   2,,,,AR                                                  01-REGS    
                         00000003            1072+AR3      EQU   3,,,,AR                                                  01-REGS    
                         00000004            1073+AR4      EQU   4,,,,AR                                                  01-REGS    
                         00000005            1074+AR5      EQU   5,,,,AR                                                  01-REGS    
                         00000006            1075+AR6      EQU   6,,,,AR                                                  01-REGS    
                         00000007            1076+AR7      EQU   7,,,,AR                                                  01-REGS    
                         00000008            1077+AR8      EQU   8,,,,AR                                                  01-REGS    
                         00000009            1078+AR9      EQU   9,,,,AR                                                  01-REGS    
1                                                                                                               Page   23            
   Active Usings: STORGRUP,R11  CEECAA,R12  CEEDSA,R13                                                                               
0D-Loc    Object Code      Addr1    Addr2    Stmt  Source Statement                          HLASM R6.0  2012/02/09 11.03            
0                        0000000A            1079+AR10     EQU   10,,,,AR                                                 01-REGS    
                         0000000B            1080+AR11     EQU   11,,,,AR                                                 01-REGS    
                         0000000C            1081+AR12     EQU   12,,,,AR                                                 01-REGS    
                         0000000D            1082+AR13     EQU   13,,,,AR                                                 01-REGS    
                         0000000E            1083+AR14     EQU   14,,,,AR                                                 01-REGS    
                         0000000F            1084+AR15     EQU   15,,,,AR                                                 01-REGS    
 00000000                                    1085          END   STORGRUP                                                            
1                               Ordinary Symbol and Literal Cross Reference                                     Page   24            
-Symbol   Length   Value     Id    R Type Asm  Program   Defn References                     HLASM R6.0  2012/02/09 11.03            
0AR0           1 00000000 FFFFFFFD A   U  AR             1069                                                                        
 AR1           1 00000001 FFFFFFFD A   U  AR             1070                                                                        
 AR10          1 0000000A FFFFFFFD A   U  AR             1079                                                                        
 AR11          1 0000000B FFFFFFFD A   U  AR             1080                                                                        
 AR12          1 0000000C FFFFFFFD A   U  AR             1081                                                                        
 AR13          1 0000000D FFFFFFFD A   U  AR             1082                                                                        
 AR14          1 0000000E FFFFFFFD A   U  AR             1083                                                                        
 AR15          1 0000000F FFFFFFFD A   U  AR             1084                                                                        
 AR2           1 00000002 FFFFFFFD A   U  AR             1071                                                                        
 AR3           1 00000003 FFFFFFFD A   U  AR             1072                                                                        
 AR4           1 00000004 FFFFFFFD A   U  AR             1073                                                                        
 AR5           1 00000005 FFFFFFFD A   U  AR             1074                                                                        
 AR6           1 00000006 FFFFFFFD A   U  AR             1075                                                                        
 AR7           1 00000007 FFFFFFFD A   U  AR             1076                                                                        
 AR8           1 00000008 FFFFFFFD A   U  AR             1077                                                                        
 AR9           1 00000009 FFFFFFFD A   U  AR             1078                                                                        
 CEEBETBL      1 00000000 00000006     T                  548  548                                                                   
 CEECAA        1 00000000 FFFFFFFD     J                  696  409   411   425   429U                                                
 CEECAA_ALTSTK_ACTIVE                                                                                                                
               1 00000004 FFFFFFFD A   U                  829                                                                        
 CEECAA_CANCELSAFE                                                                                                                   
               1 00000008 FFFFFFFD A   U                  897                                                                        
 CEECAA_CEEDLLF                                                                                                                      
               4 000003E4 FFFFFFFD     A  A              1008                                                                        
 CEECAA_CICS_EXT_REG                                                                                                                 
               1 00000020 FFFFFFFD A   U                  869                                                                        
 CEECAA_CTOC                                                                                                                         
               4 0000034C FFFFFFFD     A  A               937                                                                        
 CEECAA_DANCHOR                                                                                                                      
               4 00000348 FFFFFFFD     A  A               936                                                                        
 CEECAA_DCRENT                                                                                                                       
               4 00000344 FFFFFFFD     A  A               935                                                                        
 CEECAA_EINTR_PUTB                                                                                                                   
               1 00000040 FFFFFFFD A   U                  917                                                                        
 CEECAA_EINTR_REST                                                                                                                   
               1 00000020 FFFFFFFD A   U                  919                                                                        
 CEECAA_EINTR_RSOL                                                                                                                   
               1 00000080 FFFFFFFD A   U                  914                                                                        
 CEECAA_EINTR_SIGG                                                                                                                   
               1 00000010 FFFFFFFD A   U                  923                                                                        
 CEECAA_ENQ_WAIT_INTERRUPTABLE                                                                                                       
               1 00000002 FFFFFFFD A   U                  830                                                                        
 CEECAA_FORDBG                                                                                                                       
               4 00000398 FFFFFFFD     A  A               969                                                                        
 CEECAA_FRZ_UNSAFE                                                                                                                   
               1 00000002 FFFFFFFD A   U                  907                                                                        
 CEECAA_HCOM_REG14                                                                                                                   
               4 00000360 FFFFFFFD     A  A               944                                                                        
 CEECAA_HCOM_REG7                                                                                                                    
               4 00000360 FFFFFFFD     A  A               943                                                                        
 CEECAA_HIGH_IO                                                                                                                      
               1 00000002 FFFFFFFD A   U                  760                                                                        
 CEECAA_INITTERM_H                                                                                                                   
               1 00000001 FFFFFFFD A   U                  761                                                                        
 CEECAA_INITTERM_L                                                                                                                   
1                               Ordinary Symbol and Literal Cross Reference                                     Page   25            
-Symbol   Length   Value     Id    R Type Asm  Program   Defn References                     HLASM R6.0  2012/02/09 11.03            
0              1 00000010 FFFFFFFD A   U                  757                                                                        
 CEECAA_INVAR                                                                                                                        
               2 000002B2 FFFFFFFD     X  X               838                                                                        
 CEECAA_LER4                                                                                                                         
               8 00000388 FFFFFFFD     C  C               954                                                                        
 CEECAA_LER5N1                                                                                                                       
               4 000003B4 FFFFFFFD     C  C               987                                                                        
 CEECAA_LOW_IO                                                                                                                       
               1 00000020 FFFFFFFD A   U                  756                                                                        
 CEECAA_NOAPPREGS                                                                                                                    
               1 00000001 FFFFFFFD A   U                  909                                                                        
 CEECAA_PM                                                                                                                           
               1 000002B1 FFFFFFFD     X  X               837                                                                        
 CEECAA_RTLALLOC                                                                                                                     
               1 00000008 FFFFFFFD A   U                  768                                                                        
 CEECAA_RTLCICS                                                                                                                      
               1 00000010 FFFFFFFD A   U                  767                                                                        
 CEECAA_RTLCOUNT                                                                                                                     
               1 00000004 FFFFFFFD A   U                  769                                                                        
 CEECAA_RTLFUNC                                                                                                                      
               1 00000001 FFFFFFFD A   U                  771                                                                        
 CEECAA_RTLLOCKS                                                                                                                     
               1 00000002 FFFFFFFD A   U                  770                                                                        
 CEECAA_RTLXPLI                                                                                                                      
               1 00000020 FFFFFFFD A   U                  766                                                                        
 CEECAA_SA_RESTART                                                                                                                   
               1 00000040 FFFFFFFD A   U                  891                                                                        
 CEECAA_SAVSTACK                                                                                                                     
               4 000003E8 FFFFFFFD     A  A              1010                                                                        
 CEECAA_SAVSTACK_ASYNC                                                                                                               
               4 000003F4 FFFFFFFD     A  A              1014                                                                        
 CEECAA_SIGNAL_STATUS                                                                                                                
               4 0000035C FFFFFFFD     A  A               942                                                                        
 CEECAA_SIGNALS_H                                                                                                                    
               1 00000004 FFFFFFFD A   U                  759                                                                        
 CEECAA_SIGNALS_L                                                                                                                    
               1 00000040 FFFFFFFD A   U                  755                                                                        
 CEECAA_SIGPUTBACK                                                                                                                   
               1 00000080 FFFFFFFD A   U                  890                                                                        
 CEECAA_SIGRESYNCH                                                                                                                   
               1 00000004 FFFFFFFD A   U                  902                                                                        
 CEECAA_SIGSAFE                                                                                                                      
               1 00000010 FFFFFFFD A   U                  893                                                                        
 CEECAA_SIGSCTR                                                                                                                      
               4 00000334 FFFFFFFD     F  F               884                                                                        
 CEECAA_SIGSFLG                                                                                                                      
               4 00000338 FFFFFFFD     X  X               886                                                                        
 CEECAA_STACKDIRECTION                                                                                                               
               1 0000039D FFFFFFFD     X  X               977                                                                        
 CEECAA_STACKFLOOR                                                                                                                   
               4 00000364 FFFFFFFD     A  A               945                                                                        
 CEECAA_SYS_RSNCODE                                                                                                                  
               4 00000380 FFFFFFFD     F  F               952                                                                        
 CEECAA_SYS_RTNCODE                                                                                                                  
               4 0000037C FFFFFFFD     F  F               951                                                                        
1                               Ordinary Symbol and Literal Cross Reference                                     Page   26            
-Symbol   Length   Value     Id    R Type Asm  Program   Defn References                     HLASM R6.0  2012/02/09 11.03            
0CEECAA_TCASRV                                                                                                                       
              36 00000258 FFFFFFFD     C  C               790                                                                        
 CEECAA_TCASRV_ATTENTION                                                                                                             
               4 00000274 FFFFFFFD     A  A               798                                                                        
 CEECAA_TCASRV_DELETE                                                                                                                
               4 0000026C FFFFFFFD     A  A               796                                                                        
 CEECAA_TCASRV_EXCEPTION                                                                                                             
               4 00000270 FFFFFFFD     A  A               797                                                                        
 CEECAA_TCASRV_FREEMAIN                                                                                                              
               4 00000264 FFFFFFFD     A  A               794                                                                        
 CEECAA_TCASRV_GETMAIN                                                                                                               
               4 00000260 FFFFFFFD     A  A               793                                                                        
 CEECAA_TCASRV_LOAD                                                                                                                  
               4 00000268 FFFFFFFD     A  A               795                                                                        
 CEECAA_TCASRV_MESSAGE                                                                                                               
               4 00000278 FFFFFFFD     A  A               799                                                                        
 CEECAA_TCASRV_USERWORD                                                                                                              
               4 00000258 FFFFFFFD     A  A               791                                                                        
 CEECAA_TCASRV_WORKAREA                                                                                                              
               4 0000025C FFFFFFFD     A  A               792                                                                        
 CEECAA_THREAD_INITIAL                                                                                                               
               1 00000010 FFFFFFFD A   U                  826                                                                        
 CEECAA_TRACE_ACTIVE                                                                                                                 
               1 00000008 FFFFFFFD A   U                  827                                                                        
 CEECAA_USE_OLD_STK                                                                                                                  
               1 00000040 FFFFFFFD A   U                  868                                                                        
 CEECAA_USRSTK_ACTIVE                                                                                                                
               1 00000001 FFFFFFFD A   U                  832                                                                        
 CEECAA_VECTOR                                                                                                                       
               1 00000040 FFFFFFFD A   U                  824                                                                        
 CEECAAAB_ABCC                                                                                                                       
               4 000003A8 FFFFFFFD     A  A               983                                                                        
 CEECAAAB_ABCC_VALID                                                                                                                 
               1 00000020 FFFFFFFD A   U                  974                                                                        
 CEECAAAB_CRC                                                                                                                        
               4 000003AC FFFFFFFD     A  A               984                                                                        
 CEECAAAB_CRC_VALID                                                                                                                  
               1 00000010 FFFFFFFD A   U                  975                                                                        
 CEECAAAB_GR0                                                                                                                        
               4 000003A0 FFFFFFFD     A  A               981                                                                        
 CEECAAAB_GR0_VALID                                                                                                                  
               1 00000080 FFFFFFFD A   U                  972                                                                        
 CEECAAAB_GR15                                                                                                                       
               4 000002D4 FFFFFFFD     U                  985                                                                        
 CEECAAAB_GR15_VALID                                                                                                                 
               1 00000008 FFFFFFFD A   U                  976                                                                        
 CEECAAAB_ICD1                                                                                                                       
               4 000003A4 FFFFFFFD     A  A               982                                                                        
 CEECAAAB_ICD1_VALID                                                                                                                 
               1 00000040 FFFFFFFD A   U                  973                                                                        
 CEECAAAB_STATUS                                                                                                                     
               1 0000039C FFFFFFFD     X  X               971                                                                        
 CEECAAABCODE                                                                                                                        
               4 000002D0 FFFFFFFD     F  F               846                                                                        
 CEECAAACALL                                                                                                                         
1                               Ordinary Symbol and Literal Cross Reference                                     Page   27            
-Symbol   Length   Value     Id    R Type Asm  Program   Defn References                     HLASM R6.0  2012/02/09 11.03            
0              4 000001C4 FFFFFFFD     X  X               731                                                                        
 CEECAAAGTS                                                                                                                          
               4 000003B0 FFFFFFFD     A  A               986                                                                        
 CEECAAALLOC                                                                                                                         
               4 000001A8 FFFFFFFD     X  X               723                                                                        
 CEECAAATTN                                                                                                                          
               4 00000120 FFFFFFFD     A  A               714                                                                        
 CEECAABCALL                                                                                                                         
               4 000001C0 FFFFFFFD     X  X               730                                                                        
 CEECAABIMODAL                                                                                                                       
               1 00000080 FFFFFFFD A   U                  823                                                                        
 CEECAABOS                                                                                                                           
               4 00000008 FFFFFFFD     A  A               707                                                                        
 CEECAAC_COMTRACE                                                                                                                    
               1 00000207 FFFFFFFD     X  X               763                                                                        
 CEECAAC_RTL                                                                                                                         
               4 00000204 FFFFFFFD     F  F               747                                                                        
 CEECAAC_RTL_1                                                                                                                       
               1 00000204 FFFFFFFD     X  X               749                                                                        
 CEECAAC_RTL_2                                                                                                                       
               1 00000205 FFFFFFFD     X  X               751                                                                        
 CEECAAC_RTL_3                                                                                                                       
               1 00000206 FFFFFFFD     X  X               753                                                                        
 CEECAACD      4 000002D0 FFFFFFFD     X  X               847                                                                        
 CEECAACEDB                                                                                                                          
               4 00000218 FFFFFFFD     A  A               777                                                                        
 CEECAACEL_HPXV_B                                                                                                                    
               4 000003D0 FFFFFFFD     A  A               997                                                                        
 CEECAACEL_HPXV_L                                                                                                                    
               4 000003D8 FFFFFFFD     A  A              1001                                                                        
 CEECAACEL_HPXV_M                                                                                                                    
               4 000003D4 FFFFFFFD     A  A               999                                                                        
 CEECAACEL_HPXV_O                                                                                                                    
               4 000003DC FFFFFFFD     A  A              1004                                                                        
 CEECAACELV                                                                                                                          
               4 000002B8 FFFFFFFD     A  A               840                                                                        
 CEECAACEL4VEC3                                                                                                                      
               4 000003E0 FFFFFFFD     A  A              1007                                                                        
 CEECAACFLTINIT                                                                                                                      
               8 000001F8 FFFFFFFD     X  X               745                                                                        
 CEECAACGENE                                                                                                                         
               4 000001F0 FFFFFFFD     A  A               743                                                                        
 CEECAACGOTO                                                                                                                         
               4 000001DC FFFFFFFD     X  X               737                                                                        
 CEECAACICSRSN                                                                                                                       
               4 00000354 FFFFFFFD     A  A               939                                                                        
 CEECAACIO                                                                                                                           
               4 00000220 FFFFFFFD     A  A               780                                                                        
 CEECAACPCB                                                                                                                          
               4 00000214 FFFFFFFD     A  A               776                                                                        
 CEECAACPRMS                                                                                                                         
               4 00000200 FFFFFFFD     A  A               746                                                                        
 CEECAACRENT                                                                                                                         
               4 000001F4 FFFFFFFD     A  A               744                                                                        
 CEECAACTHD                                                                                                                          
1                               Ordinary Symbol and Literal Cross Reference                                     Page   28            
-Symbol   Length   Value     Id    R Type Asm  Program   Defn References                     HLASM R6.0  2012/02/09 11.03            
0              4 00000208 FFFFFFFD     A  A               773                                                                        
 CEECAACTOFSV                                                                                                                        
               4 00000238 FFFFFFFD     F  F               787                                                                        
 CEECAACURRFECB                                                                                                                      
               4 0000020C FFFFFFFD     A  A               774                                                                        
 CEECAADBGINIT                                                                                                                       
               1 00000020 FFFFFFFD A   U                  701                                                                        
 CEECAADDSA                                                                                                                          
               4 000002E0 FFFFFFFD     A  A               852                                                                        
 CEECAADIMA                                                                                                                          
               4 000001A4 FFFFFFFD     A  A               720                                                                        
 CEECAADMC                                                                                                                           
               4 000002CC FFFFFFFD     A  A               845                                                                        
 CEECAADO      4 000001C8 FFFFFFFD     X  X               732                                                                        
 CEECAAEDB                                                                                                                           
               4 000002F0 FFFFFFFD     A  A               856                                                                        
 CEECAAEDCHPXV                                                                                                                       
               4 0000036C FFFFFFFD     A  A               947                                                                        
 CEECAAEDCOV                                                                                                                         
               4 00000234 FFFFFFFD     A  A               786                                                                        
 CEECAAEDCV                                                                                                                          
               4 00000210 FFFFFFFD     A  A               775                                                                        
 CEECAAENTRY                                                                                                                         
               4 000001B0 FFFFFFFD     X  X               725                                                                        
 CEECAAEOS                                                                                                                           
               4 0000000C FFFFFFFD     A  A               708  409                                                                   
 CEECAAERR                                                                                                                           
               4 000002D8 FFFFFFFD     A  A               850                                                                        
 CEECAAEXIT                                                                                                                          
               4 000001B4 FFFFFFFD     X  X               726                                                                        
 CEECAAEYEPTR                                                                                                                        
               4 000002F8 FFFFFFFD     A  A               861                                                                        
 CEECAAFCBMUTEXOK                                                                                                                    
               2 00000228 FFFFFFFD     X  X               782                                                                        
 CEECAAFDSETFD                                                                                                                       
               4 00000224 FFFFFFFD     F  F               781                                                                        
 CEECAAFLAG0                                                                                                                         
               1 00000000 FFFFFFFD     X  X               697                                                                        
 CEECAAFLAG1                                                                                                                         
               1 0000030C FFFFFFFD     X  X               866                                                                        
 CEECAAFLAG2                                                                                                                         
               1 000002AF FFFFFFFD     X  X               822                                                                        
 CEECAAFOR1                                                                                                                          
               4 00000370 FFFFFFFD     A  A               948                                                                        
 CEECAAFOR2                                                                                                                          
               4 00000374 FFFFFFFD     A  A               949                                                                        
 CEECAAGETFN                                                                                                                         
               4 00000384 FFFFFFFD     A  A               953                                                                        
 CEECAAGETLS                                                                                                                         
               4 000002B4 FFFFFFFD     A  A               839                                                                        
 CEECAAGETS                                                                                                                          
               4 000002BC FFFFFFFD     A  A               841  411                                                                   
 CEECAAGETSX                                                                                                                         
               4 000002DC FFFFFFFD     A  A               851                                                                        
 CEECAAGETS1                                                                                                                         
1                               Ordinary Symbol and Literal Cross Reference                                     Page   29            
-Symbol   Length   Value     Id    R Type Asm  Program   Defn References                     HLASM R6.0  2012/02/09 11.03            
0              4 00000300 FFFFFFFD     A  A               863                                                                        
 CEECAAGOSMR                                                                                                                         
               2 0000032C FFFFFFFD     H  H               880                                                                        
 CEECAAHERP                                                                                                                          
               4 000003B8 FFFFFFFD     A  A               988                                                                        
 CEECAAHLLEXIT                                                                                                                       
               4 0000015C FFFFFFFD     A  A               717                                                                        
 CEECAAHOOK                                                                                                                          
              12 00000198 FFFFFFFD     X  X               719                                                                        
 CEECAAHOOKS                                                                                                                         
              68 000001A8 FFFFFFFD     C  C               722                                                                        
 CEECAAHPGETS                                                                                                                        
               4 00000368 FFFFFFFD     A  A               946                                                                        
 CEECAAHRDWR                                                                                                                         
               1 000002AD FFFFFFFD     X  X               810                                                                        
 CEECAAHWESA                                                                                                                         
               1 00000004 FFFFFFFD A   U                  815                                                                        
 CEECAAHWUND                                                                                                                         
               1 00000000 FFFFFFFD A   U                  811                                                                        
 CEECAAHWUNS                                                                                                                         
               1 00000001 FFFFFFFD A   U                  812                                                                        
 CEECAAHWXA                                                                                                                          
               1 00000003 FFFFFFFD A   U                  814                                                                        
 CEECAAHW370                                                                                                                         
               1 00000002 FFFFFFFD A   U                  813                                                                        
 CEECAAIFFALSE                                                                                                                       
               4 000001D0 FFFFFFFD     X  X               734                                                                        
 CEECAAIFTRUE                                                                                                                        
               4 000001CC FFFFFFFD     X  X               733                                                                        
 CEECAALABEL                                                                                                                         
               4 000001BC FFFFFFFD     X  X               729                                                                        
 CEECAALANGP                                                                                                                         
               1 00000002 FFFFFFFD     X  X               702                                                                        
 CEECAALBOS                                                                                                                          
               4 000002C0 FFFFFFFD     A  A               842                                                                        
 CEECAALEOS                                                                                                                          
               4 000002C4 FFFFFFFD     A  A               843                                                                        
 CEECAALEOV                                                                                                                          
               4 00000330 FFFFFFFD     A  A               883                                                                        
 CEECAALEVEL                                                                                                                         
               1 000002B0 FFFFFFFD     X  X               835                                                                        
 CEECAALNAB                                                                                                                          
               4 000002C8 FFFFFFFD     A  A               844                                                                        
 CEECAALWS                                                                                                                           
               4 00000280 FFFFFFFD     A  A               801  425                                                                   
 CEECAAMEMBR                                                                                                                         
               4 00000358 FFFFFFFD     A  A               941                                                                        
 CEECAAMEVMASK                                                                                                                       
               4 000001EC FFFFFFFD     X  X               742                                                                        
 CEECAAMEXIT                                                                                                                         
               4 000001B8 FFFFFFFD     X  X               727                                                                        
 CEECAAMULTEVT                                                                                                                       
               4 000001E8 FFFFFFFD     X  X               740                                                                        
 CEECAAOTHER                                                                                                                         
               4 000001D8 FFFFFFFD     X  X               736                                                                        
1                               Ordinary Symbol and Literal Cross Reference                                     Page   30            
-Symbol   Length   Value     Id    R Type Asm  Program   Defn References                     HLASM R6.0  2012/02/09 11.03            
0CEECAAPARTSUM                                                                                                                       
               4 000002E8 FFFFFFFD     F  F               854                                                                        
 CEECAAPATHS                                                                                                                         
              32 000001BC FFFFFFFD     C  C               728                                                                        
 CEECAAPCB                                                                                                                           
               4 000002F4 FFFFFFFD     A  A               857                                                                        
 CEECAAPICICB                                                                                                                        
               4 00000324 FFFFFFFD     A  A               877                                                                        
 CEECAAPRGCK                                                                                                                         
               4 00000308 FFFFFFFD     A  A               865                                                                        
 CEECAAPTR                                                                                                                           
               4 000002FC FFFFFFFD     A  A               862                                                                        
 CEECAARCB                                                                                                                           
               4 00000350 FFFFFFFD     A  A               938                                                                        
 CEECAARS      4 000002D4 FFFFFFFD     X  X               849  985                                                                   
 CEECAARSNCODE                                                                                                                       
               4 000002D4 FFFFFFFD     F  F               848                                                                        
 CEECAARSRV1                                                                                                                         
               4 00000314 FFFFFFFD     A  A               872                                                                        
 CEECAARSRV2                                                                                                                         
               4 00000328 FFFFFFFD     A  A               878                                                                        
 CEECAARSVDH1                                                                                                                        
               4 000001E0 FFFFFFFD     X  X               738                                                                        
 CEECAARSVDH2                                                                                                                        
               4 000001E4 FFFFFFFD     X  X               739                                                                        
 CEECAASAVR                                                                                                                          
               4 00000284 FFFFFFFD     A  A               802                                                                        
 CEECAASBSYS                                                                                                                         
               1 000002AE FFFFFFFD     X  X               816                                                                        
 CEECAASECTSIZ                                                                                                                       
               4 000002E4 FFFFFFFD     F  F               853                                                                        
 CEECAASHAB                                                                                                                          
               4 00000304 FFFFFFFD     A  A               864                                                                        
 CEECAASIGNG                                                                                                                         
               4 00000394 FFFFFFFD     F  F               965                                                                        
 CEECAASIGNGPTR                                                                                                                      
               4 00000390 FFFFFFFD     A  A               963                                                                        
 CEECAASORT                                                                                                                          
               1 00000080 FFFFFFFD A   U                  867                                                                        
 CEECAASPCFLAG3                                                                                                                      
               1 0000021F FFFFFFFD     X  X               779                                                                        
 CEECAASSCIC                                                                                                                         
               1 00000005 FFFFFFFD A   U                  821                                                                        
 CEECAASSEXPNT                                                                                                                       
               4 000002EC FFFFFFFD     F  F               855                                                                        
 CEECAASSNON                                                                                                                         
               1 00000002 FFFFFFFD A   U                  819                                                                        
 CEECAASSTSO                                                                                                                         
               1 00000003 FFFFFFFD A   U                  820                                                                        
 CEECAASSUND                                                                                                                         
               1 00000000 FFFFFFFD A   U                  817                                                                        
 CEECAASSUNS                                                                                                                         
               1 00000001 FFFFFFFD A   U                  818                                                                        
 CEECAASTACK_DOWN                                                                                                                    
               1 00000001 FFFFFFFD A   U                  979                                                                        
1                               Ordinary Symbol and Literal Cross Reference                                     Page   31            
-Symbol   Length   Value     Id    R Type Asm  Program   Defn References                     HLASM R6.0  2012/02/09 11.03            
0CEECAASTACK_UP                                                                                                                      
               1 00000000 FFFFFFFD A   U                  978                                                                        
 CEECAASTATE                                                                                                                         
               4 000001AC FFFFFFFD     X  X               724                                                                        
 CEECAASYMVS                                                                                                                         
               1 00000003 FFFFFFFD A   U                  809                                                                        
 CEECAASYSTM                                                                                                                         
               1 000002AC FFFFFFFD     X  X               805                                                                        
 CEECAASYUND                                                                                                                         
               1 00000000 FFFFFFFD A   U                  806                                                                        
 CEECAASYUNS                                                                                                                         
               1 00000001 FFFFFFFD A   U                  807                                                                        
 CEECAASYVM                                                                                                                          
               1 00000002 FFFFFFFD A   U                  808                                                                        
 CEECAATC16                                                                                                                          
               4 0000022C FFFFFFFD     F  F               784                                                                        
 CEECAATC17                                                                                                                          
               4 00000230 FFFFFFFD     F  F               785                                                                        
 CEECAATHDID                                                                                                                         
               8 0000033C FFFFFFFD     C  C               934                                                                        
 CEECAATHFN                                                                                                                          
               1 00000008 FFFFFFFD A   U                  703                                                                        
 CEECAATHREADHEAPID                                                                                                                  
               4 00000378 FFFFFFFD     A  A               950                                                                        
 CEECAATIP                                                                                                                           
               1 00000020 FFFFFFFD A   U                  825                                                                        
 CEECAATORC                                                                                                                          
               4 00000044 FFFFFFFD     F  F               710                                                                        
 CEECAATOVF                                                                                                                          
               4 00000074 FFFFFFFD     A  A               712                                                                        
 CEECAATRTSPACE                                                                                                                      
               4 0000023C FFFFFFFD     A  A               788                                                                        
 CEECAAUDHOOK                                                                                                                        
               8 000003C8 FFFFFFFD     X  X               992                                                                        
 CEECAAURC                                                                                                                           
               4 00000310 FFFFFFFD     F  F               871                                                                        
 CEECAAUSERRTN@                                                                                                                      
               4 000003C4 FFFFFFFD     A  A               991                                                                        
 CEECAAUSTKBOS                                                                                                                       
               4 000003BC FFFFFFFD     A  A               989                                                                        
 CEECAAUSTKEOS                                                                                                                       
               4 000003C0 FFFFFFFD     A  A               990                                                                        
 CEECAAWHEN                                                                                                                          
               4 000001D4 FFFFFFFD     X  X               735                                                                        
 CEECAAXHDL                                                                                                                          
               1 00000002 FFFFFFFD A   U                  698                                                                        
 CEECELVGTUN                                                                                                                         
               1 00000094 FFFFFFFD A   U                 1019                                                                        
 CEEDSA        1 00000000 FFFFFFFF     J                  592  397M  405   418M  419M  420M  420   421M  424U  430U  632   678   686 
 CEEDSA_STDCEEDSA                                                                                                                    
               1 00000000 FFFFFFFF A   U                  633                                                                        
 CEEDSAAUTO                                                                                                                          
               8 00000080 FFFFFFFF     D  D               630                                                                        
 CEEDSABKC                                                                                                                           
               4 00000004 FFFFFFFF     A  A               599  418M                                                                  
1                               Ordinary Symbol and Literal Cross Reference                                     Page   32            
-Symbol   Length   Value     Id    R Type Asm  Program   Defn References                     HLASM R6.0  2012/02/09 11.03            
0CEEDSACILC                                                                                                                          
               4 00000068 FFFFFFFF     A  A               622                                                                        
 CEEDSAEND                                                                                                                           
               8 00000080 FFFFFFFF     D  D               631  632                                                                   
 CEEDSAEXIT                                                                                                                          
               1 00000008 FFFFFFFF A   U                  597                                                                        
 CEEDSAFLAGS                                                                                                                         
               2 00000000 FFFFFFFF     X  X               594  420M  420                                                             
 CEEDSAFWC                                                                                                                           
               4 00000008 FFFFFFFF     A  A               600  421M                                                                  
 CEEDSAHP      1 00000000 FFFFFFFE     J                  642                                                                        
 CEEDSAHP_ARG_PRE                                                                                                                    
               4 0000083C FFFFFFFE     A  A               672                                                                        
 CEEDSAHP_ARGLIST                                                                                                                    
               1 00000840 FFFFFFFE     X  X               675                                                                        
 CEEDSAHP_BIAS                                                                                                                       
            2048 00000000 FFFFFFFE     X  X               648  649                                                                   
 CEEDSAHP_FIXED                                                                                                                      
               1 00000800 FFFFFFFE     X  X               650  652   654   674                                                       
 CEEDSAHPBIASSZ                                                                                                                      
               1 00000800 FFFFFFFE A   U                  649                                                                        
 CEEDSAHPMBRUSE                                                                                                                      
               4 00000834 FFFFFFFE     F  F               670                                                                        
 CEEDSAHPRENT                                                                                                                        
               4 0000083C FFFFFFFE     A  A               673                                                                        
 CEEDSAHPR10                                                                                                                         
               4 00000818 FFFFFFFE     F  F               663                                                                        
 CEEDSAHPR11                                                                                                                         
               4 0000081C FFFFFFFE     F  F               664                                                                        
 CEEDSAHPR12                                                                                                                         
               4 00000820 FFFFFFFE     F  F               665                                                                        
 CEEDSAHPR13                                                                                                                         
               4 00000824 FFFFFFFE     F  F               666                                                                        
 CEEDSAHPR14                                                                                                                         
               4 00000828 FFFFFFFE     F  F               667                                                                        
 CEEDSAHPR15                                                                                                                         
               4 0000082C FFFFFFFE     F  F               668                                                                        
 CEEDSAHPR4                                                                                                                          
               4 00000800 FFFFFFFE     F  F               655                                                                        
 CEEDSAHPR5                                                                                                                          
               4 00000804 FFFFFFFE     F  F               656                                                                        
 CEEDSAHPR6                                                                                                                          
               4 00000808 FFFFFFFE     F  F               657                                                                        
 CEEDSAHPR7                                                                                                                          
               4 0000080C FFFFFFFE     F  F               658                                                                        
 CEEDSAHPR8                                                                                                                          
               4 00000810 FFFFFFFE     F  F               661                                                                        
 CEEDSAHPR9                                                                                                                          
               4 00000814 FFFFFFFE     F  F               662                                                                        
 CEEDSAHPSZ                                                                                                                          
               1 00000040 FFFFFFFE A   U                  674                                                                        
 CEEDSAHPTRAN                                                                                                                        
               4 00000838 FFFFFFFE     A  A               671                                                                        
 CEEDSAHP4TO15                                                                                                                       
               4 00000800 FFFFFFFE     F  F               651                                                                        
1                               Ordinary Symbol and Literal Cross Reference                                     Page   33            
-Symbol   Length   Value     Id    R Type Asm  Program   Defn References                     HLASM R6.0  2012/02/09 11.03            
0CEEDSAHP4TO7                                                                                                                        
               4 00000800 FFFFFFFE     F  F               653                                                                        
 CEEDSAHP8TO15                                                                                                                       
               4 00000810 FFFFFFFE     F  F               659  660                                                                   
 CEEDSALNGC                                                                                                                          
               1 00001000 FFFFFFFF A   U                  595                                                                        
 CEEDSALNGP                                                                                                                          
               1 00000800 FFFFFFFF A   U                  596                                                                        
 CEEDSALWS                                                                                                                           
               4 00000048 FFFFFFFF     A  A               616  425M                                                                  
 CEEDSAMEMD                                                                                                                          
               2 00000002 FFFFFFFF     X  X               598                                                                        
 CEEDSAMODE                                                                                                                          
               4 0000006C FFFFFFFF     A  A               623                                                                        
 CEEDSANAB                                                                                                                           
               4 0000004C FFFFFFFF     A  A               617  405   419M                                                            
 CEEDSAPNAB                                                                                                                          
               4 00000050 FFFFFFFF     A  A               618                                                                        
 CEEDSARENT                                                                                                                          
               4 00000064 FFFFFFFF     A  A               621                                                                        
 CEEDSARMR                                                                                                                           
               4 00000078 FFFFFFFF     A  A               626                                                                        
 CEEDSAR0      4 00000014 FFFFFFFF     F  F               603                                                                        
 CEEDSAR1      4 00000018 FFFFFFFF     F  F               604                                                                        
 CEEDSAR10                                                                                                                           
               4 0000003C FFFFFFFF     F  F               613                                                                        
 CEEDSAR11                                                                                                                           
               4 00000040 FFFFFFFF     F  F               614                                                                        
 CEEDSAR12                                                                                                                           
               4 00000044 FFFFFFFF     F  F               615                                                                        
 CEEDSAR14                                                                                                                           
               4 0000000C FFFFFFFF     F  F               601  397M                                                                  
 CEEDSAR15                                                                                                                           
               4 00000010 FFFFFFFF     F  F               602                                                                        
 CEEDSAR2      4 0000001C FFFFFFFF     F  F               605                                                                        
 CEEDSAR3      4 00000020 FFFFFFFF     F  F               606                                                                        
 CEEDSAR4      4 00000024 FFFFFFFF     F  F               607                                                                        
 CEEDSAR5      4 00000028 FFFFFFFF     F  F               608                                                                        
 CEEDSAR6      4 0000002C FFFFFFFF     F  F               609                                                                        
 CEEDSAR7      4 00000030 FFFFFFFF     F  F               610                                                                        
 CEEDSAR8      4 00000034 FFFFFFFF     F  F               611                                                                        
 CEEDSAR9      4 00000038 FFFFFFFF     F  F               612                                                                        
 CEEDSASZ      8 00000080 FFFFFFFF A   U                  632                                                                        
 CEEDSATRAN                                                                                                                          
               4 00000064 FFFFFFFF     A  A               620                                                                        
 CEEINPL       8 000000F0 00000001     D  D               538  415   540                                                             
 CEEINPLSTST                                                                                                                         
               4 000000F8 00000001     F  F               541  540                                                                   
 CEEINPL0003                                                                                                                         
               4 00000050 00000001     A  A               415  398                                                                   
 CEEINT        1 00000000 00000002     T                  416  416                                                                   
 CEEINT0003                                                                                                                          
               4 00000054 00000001     V  V               416  399                                                                   
 CEEMAIN       1 00000140 00000003     J                  444  445   446                                                             
 CEESTART      1 00000000 00000005     T                  558  547   564                                                             
1                               Ordinary Symbol and Literal Cross Reference                                     Page   34            
-Symbol   Length   Value     Id    R Type Asm  Program   Defn References                     HLASM R6.0  2012/02/09 11.03            
0CEETERM_BLOCK                                                                                                                       
               4 00000080 FFFFFFFF     F  F               683  434M  435M  436   437M  439M  440M  441                               
 CEETIMES      4 00000128 00000001     F  F               576  566                                                                   
 CEETREC       1 00000000 00000004     T                  461  461                                                                   
 CEEX0003      1 00000058 00000001     U                  417  410B  414B                                                            
 CEEY0003      1 00000098 00000001 A   U                  390  391   406   407   407                                                 
 CEEZ0003      1 00000014 00000001     U                  396  388B                                                                  
 CEL_LEVEL_IDENTIFIER                                                                                                                
               1 00000018 FFFFFFFD A   U                  836                                                                        
 DSASIZE       1 00000098 FFFFFFFF A   U                  686  390                                                                   
 GO            2 000000A8 00000001     H  H               450  431B                                                                  
 GOBACK        2 0000007E 00000001     H  H               432  458B                                                                  
 LEPTRLEN      1 00000004 FFFFFFFE A   U                  646                                                                        
 MODIFIER      4 00000094 FFFFFFFF     F  F               685  457M  457                                                             
 PPANL0009                                                                                                                           
               2 000000E6 00000001     R  A               536  481                                                                   
 PPA10009      4 000000C8 00000001     F  F               479                                                                        
 PPA2M0009                                                                                                                           
               4 00000124 00000001     A  A               567  539   546                                                             
 PPA2S0009                                                                                                                           
               4 00000118 00000001     A  A               564                                                                        
 PPA20009      4 00000114 00000001     F  F               559  500   566                                                             
 RETURN_CODE                                                                                                                         
               4 00000090 FFFFFFFF     F  F               684  435   456M  456                                                       
 RET0          2 000000AC 00000001     H  H               455                                                                        
 R0            1 00000000 FFFFFFFD A   U  GR             1021                                                                        
 R0_32         1 00000000 FFFFFFFD A   U  GR32           1053                                                                        
 R0_64         1 00000000 FFFFFFFD A   U  GR64           1037                                                                        
 R1            1 00000001 FFFFFFFD A   U  GR             1022                                                                        
 R1_32         1 00000001 FFFFFFFD A   U  GR32           1054  452                                                                   
 R1_64         1 00000001 FFFFFFFD A   U  GR64           1038                                                                        
 R10           1 0000000A FFFFFFFD A   U  GR             1031                                                                        
 R10_32        1 0000000A FFFFFFFD A   U  GR32           1063                                                                        
 R10_64        1 0000000A FFFFFFFD A   U  GR64           1047                                                                        
 R11           1 0000000B FFFFFFFD A   U  GR             1032                                                                        
 R11_32        1 0000000B FFFFFFFD A   U  GR32           1064  427M  428U                                                            
 R11_64        1 0000000B FFFFFFFD A   U  GR64           1048                                                                        
 R12           1 0000000C FFFFFFFD A   U  GR             1033                                                                        
 R12_32        1 0000000C FFFFFFFD A   U  GR32           1065  429U                                                                  
 R12_64        1 0000000C FFFFFFFD A   U  GR64           1049                                                                        
 R13           1 0000000D FFFFFFFD A   U  GR             1034                                                                        
 R13_32        1 0000000D FFFFFFFD A   U  GR32           1066  430U                                                                  
 R13_64        1 0000000D FFFFFFFD A   U  GR64           1050                                                                        
 R14           1 0000000E FFFFFFFD A   U  GR             1035                                                                        
 R14_32        1 0000000E FFFFFFFD A   U  GR32           1067                                                                        
 R14_64        1 0000000E FFFFFFFD A   U  GR64           1051                                                                        
 R15           1 0000000F FFFFFFFD A   U  GR             1036                                                                        
 R15_32        1 0000000F FFFFFFFD A   U  GR32           1068                                                                        
 R15_64        1 0000000F FFFFFFFD A   U  GR64           1052                                                                        
 R2            1 00000002 FFFFFFFD A   U  GR             1023                                                                        
 R2_32         1 00000002 FFFFFFFD A   U  GR32           1055                                                                        
 R2_64         1 00000002 FFFFFFFD A   U  GR64           1039                                                                        
 R3            1 00000003 FFFFFFFD A   U  GR             1024                                                                        
 R3_32         1 00000003 FFFFFFFD A   U  GR32           1056                                                                        
 R3_64         1 00000003 FFFFFFFD A   U  GR64           1040                                                                        
1                               Ordinary Symbol and Literal Cross Reference                                     Page   35            
-Symbol   Length   Value     Id    R Type Asm  Program   Defn References                     HLASM R6.0  2012/02/09 11.03            
0R4            1 00000004 FFFFFFFD A   U  GR             1025                                                                        
 R4_32         1 00000004 FFFFFFFD A   U  GR32           1057  452M                                                                  
 R4_64         1 00000004 FFFFFFFD A   U  GR64           1041                                                                        
 R5            1 00000005 FFFFFFFD A   U  GR             1026                                                                        
 R5_32         1 00000005 FFFFFFFD A   U  GR32           1058  452M                                                                  
 R5_64         1 00000005 FFFFFFFD A   U  GR64           1042                                                                        
 R6            1 00000006 FFFFFFFD A   U  GR             1027                                                                        
 R6_32         1 00000006 FFFFFFFD A   U  GR32           1059                                                                        
 R6_64         1 00000006 FFFFFFFD A   U  GR64           1043                                                                        
 R7            1 00000007 FFFFFFFD A   U  GR             1028                                                                        
 R7_32         1 00000007 FFFFFFFD A   U  GR32           1060                                                                        
 R7_64         1 00000007 FFFFFFFD A   U  GR64           1044                                                                        
 R8            1 00000008 FFFFFFFD A   U  GR             1029                                                                        
 R8_32         1 00000008 FFFFFFFD A   U  GR32           1061                                                                        
 R8_64         1 00000008 FFFFFFFD A   U  GR64           1045                                                                        
 R9            1 00000009 FFFFFFFD A   U  GR             1030                                                                        
 R9_32         1 00000009 FFFFFFFD A   U  GR32           1062                                                                        
 R9_64         1 00000009 FFFFFFFD A   U  GR64           1046                                                                        
 STORGRUP      1 00000000 00000001     J                  379  380   381   382   392   427   428U  447   449   567  1085             
 STORGRUP_PPA                                                                                                                        
               4 000000C8 00000001     F  F               480  392                                                                   
 =A(0)         4 000000C0 00000001     A                  460  434                                                                   
 =V(CEETREC)                                                                                                                         
               4 000000C4 00000001     V                  461  442                                                                   
1                                          Macro and Copy Code Source Summary                                   Page   36            
- Con Source                                        Volume    Members                        HLASM R6.0  2012/02/09 11.03            
0     PRIMARY INPUT                                           B        BAL      BAS      BC       BCT      BE       BH               
                                                              BL       BM       BNE      BNH      BNL      BNM      BNO              
                                                              BNP      BNZ      BO       BP       BXH      BXLE     BZ               
   L1 /home/tsh009/maclib                                     REGS                                                                   
   L2 CEE.SCEEMAC                                   I17RS3    CEECAA   CEEDNUT  CEEDSA   CEEENTRY CEEPPA   CEETERM                   
   L3 SYS1.MACLIB                                   I17RS2    IEABRC   IEABRCX                                                       
1                                          Macro and Copy Code Cross Reference                                  Page   37            
-Macro     Con  Called By        Defn  References                                            HLASM R6.0  2012/02/09 11.03            
0B              CEEENTRY          107  386, 393                                                                                      
 BAL                              275                                                                                                
 BAS                              302                                                                                                
 BC             PRIMARY INPUT     167  387, 394                                                                                      
 BCT                              194                                                                                                
 BE                               111                                                                                                
 BH                               119                                                                                                
 BL                               115                                                                                                
 BM                               123                                                                                                
 BNE                              127                                                                                                
 BNH                              131                                                                                                
 BNL                              135                                                                                                
 BNM                              139                                                                                                
 BNO                              143                                                                                                
 BNP                              147                                                                                                
 BNZ                              151                                                                                                
 BO                               155                                                                                                
 BP                               159                                                                                                
 BXH                              248                                                                                                
 BXLE                             221                                                                                                
 BZ                               163                                                                                                
 CEECAA     L2  PRIMARY INPUT       -  687                                                                                           
 CEEDNUT    L2  CEEDSA              -  643                                                                                           
                CEECAA                 692                                                                                           
 CEEDSA     L2  PRIMARY INPUT       -  586                                                                                           
 CEEENTRY   L2  PRIMARY INPUT       -  378                                                                                           
 CEEPPA     L2  PRIMARY INPUT       -  462                                                                                           
 CEETERM    L2  PRIMARY INPUT       -  433, 682                                                                                      
 IEABRC     L3  IEABRCX             -  12C                                                                                           
 IEABRCX    L3  PRIMARY INPUT       -  12, 350                                                                                       
 REGS       L1  PRIMARY INPUT       -  1020                                                                                          
1                                                Dsect Cross Reference                                          Page   38            
-Dsect     Length      Id       Defn                                                         HLASM R6.0  2012/02/09 11.03            
0CEECAA   000003F8  FFFFFFFD     696                                                                                                 
 CEEDSA   00000098  FFFFFFFF     592                                                                                                 
 CEEDSAHP 00000840  FFFFFFFE     642                                                                                                 
1                                                      Using Map                                                Page   39            
-                                                                                            HLASM R6.0  2012/02/09 11.03            
   Stmt  -----Location----- Action ----------------Using----------------- Reg Max     Last Label and Using Text                      
           Count      Id           Type          Value    Range     Id        Disp    Stmt                                           
0   383  00000000  00000001 PUSH                                                                                                     
    384  00000000  00000001 DROP                                           **                                                        
    385  00000000  00000001 USING  ORDINARY    00000000 00001000 00000001  15 00054    399 *,15                                      
    400  00000020  00000001 DROP                                           15              15                                        
    423  0000006C  00000001 POP                                                                                                      
    424  0000006C  00000001 USING  ORDINARY    00000000 00001000 FFFFFFFF  13 00048    425 CEEDSA,13                                 
    428  0000007A  00000001 USING  ORDINARY    00000000 00001000 00000001  11 000C4    442 STORGRUP,R11_32                           
    429  0000007A  00000001 USING  ORDINARY    00000000 00001000 FFFFFFFD  12 00000        CEECAA,R12_32                             
    430  0000007A  00000001 USING  ORDINARY    00000000 00001000 FFFFFFFF  13 00094    457 CEEDSA,R13_32                             
1                                   General Purpose Register Cross Reference                                    Page   40            
- Register  References (M=modified, B=branch, U=USING, D=DROP, N=index)                      HLASM R6.0  2012/02/09 11.03            
0    0(0)     397   406M  407M  408M  409   419                                                                                      
     1(1)     397   402   405M  408   413M  418   419   420   420   421   422   426M  436M  437   438M  438   439   441M  452        
     2(2)     397   398M  402M  426                                                                                                  
     3(3)     397                                                                                                                    
     4(4)     397   452M                                                                                                             
     5(5)     397   452M                                                                                                             
     6(6)     397                                                                                                                    
     7(7)     397                                                                                                                    
     8(8)     397                                                                                                                    
     9(9)     397                                                                                                                    
    10(A)     397                                                                                                                    
    11(B)     397   427M  428U                                                                                                       
    12(C)     397   403   409   411   425   429U                                                                                     
    13(D)     397   405   418   421   422M  424U  430U                                                                               
    14(E)     397   401M  403M  404   412M  443M                                                                                     
    15(F)     385U  395   397   399M  400D  401B  411M  412B  413   442M  443B                                                       
1                                  Diagnostic Cross Reference and Assembler Summary                             Page   41            
-                                                                                            HLASM R6.0  2012/02/09 11.03            
0     No Statements Flagged in this Assembly                                                                                         
 HIGH LEVEL ASSEMBLER, 5696-234, RELEASE 6.0, PTF UK67595                                                                            
0SYSTEM: z/OS 01.12.00              JOBNAME: TSH0092     STEPNAME: STEP1      PROCSTEP: (NOPROC)                                     
0Data Sets Allocated for this Assembly                                                                                               
  Con DDname   Data Set Name                                Volume  Member                                                           
   P1 SYSIN    /home/tsh009/utilities-1/storgrup.s                                                                                   
   L1 SYSLIB   /home/tsh009/maclib                                                                                                   
   L2          CEE.SCEEMAC                                  I17RS3                                                                   
   L3          SYS1.MACLIB                                  I17RS2                                                                   
   L4          SYS1.MODGEN                                  I17RS1                                                                   
      SYSADATA /home/tsh009/utilities-1/storgrup.ad                                                                                  
      SYSLIN   /home/tsh009/utilities-1/storgrup.o                                                                                   
      SYSPRINT /home/tsh009/utilities-1/storgrup.listing                                                                             
      SYSTERM  /dev/fd2                                                                                                              
                                                                                                                                     
 1890840K allocated to Buffer Pool       Storage required     652K                                                                   
      61 Primary Input Records Read         2578 Library Records Read                  0 Work File Reads                             
       0 ASMAOPT Records Read               1987 Primary Print Records Written         0 Work File Writes                            
      13 Object Records Written             2253 ADATA Records Written                                                               
0Assembly Start Time: 11.03.01 Stop Time: 11.03.01 Processor Time: 00.00.00.0748                                                     
 Return Code 000                                                                                                                     
